GAS LISTING C:\DOCUME~1\KEUNSO~1\LOCALS~1\Temp/ccIyMOV1.s 			page 1


   1               		.file	"test.c"
   2               	__SREG__ = 0x3f
   3               	__SP_H__ = 0x3e
   4               	__SP_L__ = 0x3d
   5               	__CCP__  = 0x34
   6               	__tmp_reg__ = 0
   7               	__zero_reg__ = 1
   8               		.section	.debug_abbrev,"",@progbits
   9               	.Ldebug_abbrev0:
  10               		.section	.debug_info,"",@progbits
  11               	.Ldebug_info0:
  12               		.section	.debug_line,"",@progbits
  13               	.Ldebug_line0:
  14               		.text
  15               	.Ltext0:
  16               	.global	AvrInit
  17               		.type	AvrInit, @function
  18               	AvrInit:
  19               	.LFB6:
  20               	.LM1:
  21               	/* prologue: function */
  22               	/* frame size = 0 */
  23               	.LM2:
  24 0000 85E0      		ldi r24,lo8(5)
  25 0002 83BF      		out 83-32,r24
  26               	.LM3:
  27 0004 82E0      		ldi r24,lo8(2)
  28 0006 87BF      		out 87-32,r24
  29               	.LM4:
  30 0008 83E2      		ldi r24,lo8(35)
  31 000a 89B9      		out 41-32,r24
  32               	.LM5:
  33 000c 80E8      		ldi r24,lo8(-128)
  34 000e 85BF      		out 85-32,r24
  35               	.LM6:
  36 0010 88E0      		ldi r24,lo8(8)
  37 0012 8AB9      		out 42-32,r24
  38               	.LM7:
  39 0014 669A      		sbi 44-32,6
  40               	.LM8:
  41 0016 1092 0000 		sts UartTxCount,__zero_reg__
  42               	.LM9:
  43 001a 1092 0000 		sts UartTxRdPtr,__zero_reg__
  44               	.LM10:
  45 001e 1092 0000 		sts UartTxWrPtr,__zero_reg__
  46               	/* epilogue start */
  47               	.LM11:
  48 0022 0895      		ret
  49               	.LFE6:
  50               		.size	AvrInit, .-AvrInit
  51               	.global	SPrintDec
  52               		.type	SPrintDec, @function
  53               	SPrintDec:
  54               	.LFB9:
  55               	.LM12:
  56               	.LVL0:
  57 0024 EF92      		push r14
GAS LISTING C:\DOCUME~1\KEUNSO~1\LOCALS~1\Temp/ccIyMOV1.s 			page 2


  58 0026 FF92      		push r15
  59 0028 1F93      		push r17
  60 002a CF93      		push r28
  61 002c DF93      		push r29
  62               	/* prologue: function */
  63               	/* frame size = 0 */
  64 002e E82E      		mov r14,r24
  65 0030 F92E      		mov r15,r25
  66 0032 162F      		mov r17,r22
  67 0034 372F      		mov r19,r23
  68               	.LVL1:
  69               	.LM13:
  70 0036 842F      		mov r24,r20
  71               	.LVL2:
  72 0038 90E0      		ldi r25,lo8(0)
  73 003a EE2D      		mov r30,r14
  74 003c FF2D      		mov r31,r15
  75 003e E80F      		add r30,r24
  76 0040 F91F      		adc r31,r25
  77 0042 1082      		st Z,__zero_reg__
  78               	.LM14:
  79 0044 4423      		tst r20
  80 0046 01F0      		breq .L8
  81               	.LVL3:
  82 0048 C82F      		mov r28,r24
  83 004a D92F      		mov r29,r25
  84 004c 2197      		sbiw r28,1
  85 004e EE2D      		mov r30,r14
  86 0050 FF2D      		mov r31,r15
  87 0052 EC0F      		add r30,r28
  88 0054 FD1F      		adc r31,r29
  89 0056 20E0      		ldi r18,lo8(0)
  90               	.LVL4:
  91               	.L5:
  92               	.LM15:
  93 0058 812F      		mov r24,r17
  94 005a 932F      		mov r25,r19
  95 005c 6AE0      		ldi r22,lo8(10)
  96 005e 70E0      		ldi r23,hi8(10)
  97 0060 0E94 0000 		call __udivmodhi4
  98 0064 805D      		subi r24,lo8(-(48))
  99 0066 8083      		st Z,r24
 100               	.LM16:
 101 0068 812F      		mov r24,r17
 102 006a 932F      		mov r25,r19
 103 006c 6AE0      		ldi r22,lo8(10)
 104 006e 70E0      		ldi r23,hi8(10)
 105 0070 0E94 0000 		call __udivmodhi4
 106 0074 162F      		mov r17,r22
 107 0076 372F      		mov r19,r23
 108               	.LM17:
 109 0078 2F5F      		subi r18,lo8(-(1))
 110 007a 3197      		sbiw r30,1
 111 007c 2417      		cp r18,r20
 112 007e 00F0      		brlo .L5
 113               	.LM18:
 114 0080 1C16      		cp __zero_reg__,r28
GAS LISTING C:\DOCUME~1\KEUNSO~1\LOCALS~1\Temp/ccIyMOV1.s 			page 3


 115 0082 1D06      		cpc __zero_reg__,r29
 116 0084 04F4      		brge .L8
 117               	.LM19:
 118 0086 EE2D      		mov r30,r14
 119 0088 FF2D      		mov r31,r15
 120 008a 8081      		ld r24,Z
 121 008c 8033      		cpi r24,lo8(48)
 122 008e 01F4      		brne .L8
 123 0090 20E0      		ldi r18,lo8(0)
 124               	.LVL5:
 125               	.LM20:
 126 0092 30E2      		ldi r19,lo8(32)
 127               	.LVL6:
 128 0094 00C0      		rjmp .L6
 129               	.LVL7:
 130               	.L7:
 131               	.LM21:
 132 0096 EE2D      		mov r30,r14
 133 0098 FF2D      		mov r31,r15
 134 009a E80F      		add r30,r24
 135 009c F91F      		adc r31,r25
 136 009e 8081      		ld r24,Z
 137               	.LVL8:
 138 00a0 8033      		cpi r24,lo8(48)
 139 00a2 01F4      		brne .L8
 140               	.LVL9:
 141               	.L6:
 142               	.LM22:
 143 00a4 3083      		st Z,r19
 144               	.LM23:
 145 00a6 2F5F      		subi r18,lo8(-(1))
 146 00a8 822F      		mov r24,r18
 147 00aa 90E0      		ldi r25,lo8(0)
 148 00ac 8C17      		cp r24,r28
 149 00ae 9D07      		cpc r25,r29
 150 00b0 04F0      		brlt .L7
 151               	.LVL10:
 152               	.L8:
 153               	/* epilogue start */
 154               	.LM24:
 155 00b2 DF91      		pop r29
 156 00b4 CF91      		pop r28
 157 00b6 1F91      		pop r17
 158               	.LVL11:
 159 00b8 FF90      		pop r15
 160 00ba EF90      		pop r14
 161 00bc 0895      		ret
 162               	.LFE9:
 163               		.size	SPrintDec, .-SPrintDec
 164               	.global	random
 165               		.type	random, @function
 166               	random:
 167               	.LFB10:
 168               	.LM25:
 169               	.LVL12:
 170 00be 0F93      		push r16
 171 00c0 1F93      		push r17
GAS LISTING C:\DOCUME~1\KEUNSO~1\LOCALS~1\Temp/ccIyMOV1.s 			page 4


 172               	/* prologue: function */
 173               	/* frame size = 0 */
 174 00c2 082F      		mov r16,r24
 175               	.LM26:
 176 00c4 6091 0000 		lds r22,RndNext
 177 00c8 7091 0000 		lds r23,(RndNext)+1
 178 00cc 8091 0000 		lds r24,(RndNext)+2
 179 00d0 9091 0000 		lds r25,(RndNext)+3
 180 00d4 2DE6      		ldi r18,lo8(1103515245)
 181 00d6 3EE4      		ldi r19,hi8(1103515245)
 182 00d8 46EC      		ldi r20,hlo8(1103515245)
 183 00da 51E4      		ldi r21,hhi8(1103515245)
 184 00dc 0E94 0000 		call __mulsi3
 185               	.LVL13:
 186 00e0 B92F      		mov r27,r25
 187 00e2 A82F      		mov r26,r24
 188 00e4 972F      		mov r25,r23
 189 00e6 862F      		mov r24,r22
 190 00e8 875C      		subi r24,lo8(-(12345))
 191 00ea 9F4C      		sbci r25,hi8(-(12345))
 192 00ec AF4F      		sbci r26,hlo8(-(12345))
 193 00ee BF4F      		sbci r27,hhi8(-(12345))
 194 00f0 8093 0000 		sts RndNext,r24
 195 00f4 9093 0000 		sts (RndNext)+1,r25
 196 00f8 A093 0000 		sts (RndNext)+2,r26
 197 00fc B093 0000 		sts (RndNext)+3,r27
 198 0100 892F      		mov r24,r25
 199 0102 9A2F      		mov r25,r26
 200 0104 AB2F      		mov r26,r27
 201 0106 BB27      		clr r27
 202 0108 10E0      		ldi r17,lo8(0)
 203               	.LVL14:
 204 010a 0F5F      		subi r16,lo8(-(1))
 205 010c 1F4F      		sbci r17,hi8(-(1))
 206               	.LVL15:
 207 010e 90E0      		ldi r25,lo8(0)
 208 0110 602F      		mov r22,r16
 209 0112 712F      		mov r23,r17
 210 0114 0E94 0000 		call __divmodhi4
 211               	/* epilogue start */
 212               	.LM27:
 213 0118 1F91      		pop r17
 214               	.LVL16:
 215 011a 0F91      		pop r16
 216               	.LVL17:
 217 011c 0895      		ret
 218               	.LFE10:
 219               		.size	random, .-random
 220               	.global	PutChar
 221               		.type	PutChar, @function
 222               	PutChar:
 223               	.LFB7:
 224               	.LM28:
 225               	.LVL18:
 226 011e 1F93      		push r17
 227 0120 DF93      		push r29
 228 0122 CF93      		push r28
GAS LISTING C:\DOCUME~1\KEUNSO~1\LOCALS~1\Temp/ccIyMOV1.s 			page 5


 229 0124 0F92      		push __tmp_reg__
 230 0126 CDB7      		in r28,__SP_L__
 231 0128 DEB7      		in r29,__SP_H__
 232               	/* prologue: function */
 233               	/* frame size = 1 */
 234 012a 182F      		mov r17,r24
 235               	.LM29:
 236 012c 9091 0000 		lds r25,UartTxCount
 237 0130 9923      		tst r25
 238 0132 01F4      		brne .L18
 239               	.LVL19:
 240               	.L14:
 241               	.LM30:
 242               	/* #APP */
 243               	 ;  207 "test.c" 1
 244 0134 F894      		cli
 245               	 ;  0 "" 2
 246               	.LM31:
 247               	/* #NOAPP */
 248 0136 9923      		tst r25
 249 0138 01F4      		brne .L19
 250               	.LM32:
 251 013a 1CB9      		out 44-32,r17
 252               	.LM33:
 253 013c 81E0      		ldi r24,lo8(1)
 254 013e 8093 0000 		sts UartTxCount,r24
 255               	.LM34:
 256 0142 569A      		sbi 42-32,6
 257               	.LM35:
 258               	/* #APP */
 259               	 ;  217 "test.c" 1
 260 0144 7894      		sei
 261               	 ;  0 "" 2
 262               	/* epilogue start */
 263               	.LM36:
 264               	/* #NOAPP */
 265 0146 0F90      		pop __tmp_reg__
 266 0148 CF91      		pop r28
 267 014a DF91      		pop r29
 268 014c 1F91      		pop r17
 269               	.LVL20:
 270 014e 0895      		ret
 271               	.LVL21:
 272               	.L19:
 273               	.LM37:
 274 0150 8091 0000 		lds r24,UartTxWrPtr
 275 0154 E82F      		mov r30,r24
 276 0156 F0E0      		ldi r31,lo8(0)
 277 0158 E050      		subi r30,lo8(-(UartTxBuf))
 278 015a F040      		sbci r31,hi8(-(UartTxBuf))
 279 015c 1083      		st Z,r17
 280               	.LM38:
 281 015e 8F5F      		subi r24,lo8(-(1))
 282 0160 8093 0000 		sts UartTxWrPtr,r24
 283               	.LM39:
 284 0164 9F5F      		subi r25,lo8(-(1))
 285 0166 9093 0000 		sts UartTxCount,r25
GAS LISTING C:\DOCUME~1\KEUNSO~1\LOCALS~1\Temp/ccIyMOV1.s 			page 6


 286               	.LM40:
 287               	/* #APP */
 288               	 ;  217 "test.c" 1
 289 016a 7894      		sei
 290               	 ;  0 "" 2
 291               	.LM41:
 292               	/* #NOAPP */
 293 016c 0F90      		pop __tmp_reg__
 294 016e CF91      		pop r28
 295 0170 DF91      		pop r29
 296 0172 1F91      		pop r17
 297               	.LVL22:
 298 0174 0895      		ret
 299               	.LVL23:
 300               	.L18:
 301               	.LM42:
 302 0176 8091 0000 		lds r24,UartTxSem
 303 017a 9091 0000 		lds r25,(UartTxSem)+1
 304 017e 60E0      		ldi r22,lo8(0)
 305 0180 70E0      		ldi r23,hi8(0)
 306 0182 4C2F      		mov r20,r28
 307 0184 5D2F      		mov r21,r29
 308 0186 4F5F      		subi r20,lo8(-(1))
 309 0188 5F4F      		sbci r21,hi8(-(1))
 310 018a 0E94 0000 		call OSSemPend
 311 018e 9091 0000 		lds r25,UartTxCount
 312 0192 00C0      		rjmp .L14
 313               	.LFE7:
 314               		.size	PutChar, .-PutChar
 315               	.global	__vector_20
 316               		.type	__vector_20, @function
 317               	__vector_20:
 318               	.LFB5:
 319               	.LM43:
 320 0194 1F92      		push __zero_reg__
 321 0196 0F92      		push r0
 322 0198 0FB6      		in r0,__SREG__
 323 019a 0F92      		push r0
 324 019c 1124      		clr __zero_reg__
 325 019e 2F93      		push r18
 326 01a0 3F93      		push r19
 327 01a2 4F93      		push r20
 328 01a4 5F93      		push r21
 329 01a6 6F93      		push r22
 330 01a8 7F93      		push r23
 331 01aa 8F93      		push r24
 332 01ac 9F93      		push r25
 333 01ae AF93      		push r26
 334 01b0 BF93      		push r27
 335 01b2 EF93      		push r30
 336 01b4 FF93      		push r31
 337               	/* prologue: Signal */
 338               	/* frame size = 0 */
 339               	.LM44:
 340 01b6 8091 0000 		lds r24,UartTxCount
 341 01ba 8150      		subi r24,lo8(-(-1))
 342 01bc 8093 0000 		sts UartTxCount,r24
GAS LISTING C:\DOCUME~1\KEUNSO~1\LOCALS~1\Temp/ccIyMOV1.s 			page 7


 343               	.LM45:
 344 01c0 8823      		tst r24
 345 01c2 01F4      		brne .L24
 346               	.LM46:
 347 01c4 5698      		cbi 42-32,6
 348               	.L23:
 349               	/* epilogue start */
 350               	.LM47:
 351 01c6 FF91      		pop r31
 352 01c8 EF91      		pop r30
 353 01ca BF91      		pop r27
 354 01cc AF91      		pop r26
 355 01ce 9F91      		pop r25
 356 01d0 8F91      		pop r24
 357 01d2 7F91      		pop r23
 358 01d4 6F91      		pop r22
 359 01d6 5F91      		pop r21
 360 01d8 4F91      		pop r20
 361 01da 3F91      		pop r19
 362 01dc 2F91      		pop r18
 363 01de 0F90      		pop r0
 364 01e0 0FBE      		out __SREG__,r0
 365 01e2 0F90      		pop r0
 366 01e4 1F90      		pop __zero_reg__
 367 01e6 1895      		reti
 368               	.L24:
 369               	.LM48:
 370 01e8 8091 0000 		lds r24,UartTxRdPtr
 371 01ec E82F      		mov r30,r24
 372 01ee F0E0      		ldi r31,lo8(0)
 373 01f0 E050      		subi r30,lo8(-(UartTxBuf))
 374 01f2 F040      		sbci r31,hi8(-(UartTxBuf))
 375 01f4 9081      		ld r25,Z
 376 01f6 9CB9      		out 44-32,r25
 377               	.LM49:
 378 01f8 8F5F      		subi r24,lo8(-(1))
 379 01fa 8093 0000 		sts UartTxRdPtr,r24
 380               	.LM50:
 381 01fe 8091 0000 		lds r24,UartTxSem
 382 0202 9091 0000 		lds r25,(UartTxSem)+1
 383 0206 0E94 0000 		call OSSemPost
 384 020a 00C0      		rjmp .L23
 385               	.LFE5:
 386               		.size	__vector_20, .-__vector_20
 387               	.global	main
 388               		.type	main, @function
 389               	main:
 390               	.LFB2:
 391               	.LM51:
 392               	/* prologue: function */
 393               	/* frame size = 0 */
 394               	.LBB4:
 395               	.LBB5:
 396               	.LM52:
 397 020c 85E0      		ldi r24,lo8(5)
 398 020e 83BF      		out 83-32,r24
 399               	.LM53:
GAS LISTING C:\DOCUME~1\KEUNSO~1\LOCALS~1\Temp/ccIyMOV1.s 			page 8


 400 0210 82E0      		ldi r24,lo8(2)
 401 0212 87BF      		out 87-32,r24
 402               	.LM54:
 403 0214 83E2      		ldi r24,lo8(35)
 404 0216 89B9      		out 41-32,r24
 405               	.LM55:
 406 0218 80E8      		ldi r24,lo8(-128)
 407 021a 85BF      		out 85-32,r24
 408               	.LM56:
 409 021c 88E0      		ldi r24,lo8(8)
 410 021e 8AB9      		out 42-32,r24
 411               	.LM57:
 412 0220 669A      		sbi 44-32,6
 413               	.LM58:
 414 0222 1092 0000 		sts UartTxCount,__zero_reg__
 415               	.LM59:
 416 0226 1092 0000 		sts UartTxRdPtr,__zero_reg__
 417               	.LM60:
 418 022a 1092 0000 		sts UartTxWrPtr,__zero_reg__
 419               	.LBE5:
 420               	.LBE4:
 421               	.LM61:
 422 022e 0E94 0000 		call OSInit
 423               	.LM62:
 424 0232 81E0      		ldi r24,lo8(1)
 425 0234 90E0      		ldi r25,hi8(1)
 426 0236 0E94 0000 		call OSSemCreate
 427 023a 9093 0000 		sts (RandomSem)+1,r25
 428 023e 8093 0000 		sts RandomSem,r24
 429               	.LM63:
 430 0242 81E0      		ldi r24,lo8(1)
 431 0244 90E0      		ldi r25,hi8(1)
 432 0246 0E94 0000 		call OSSemCreate
 433 024a 9093 0000 		sts (DispStrSem)+1,r25
 434 024e 8093 0000 		sts DispStrSem,r24
 435               	.LM64:
 436 0252 8EEF      		ldi r24,lo8(254)
 437 0254 90E0      		ldi r25,hi8(254)
 438 0256 0E94 0000 		call OSSemCreate
 439 025a 9093 0000 		sts (UartTxSem)+1,r25
 440 025e 8093 0000 		sts UartTxSem,r24
 441               	.LM65:
 442 0262 80E0      		ldi r24,lo8(gs(TaskStart))
 443 0264 90E0      		ldi r25,hi8(gs(TaskStart))
 444 0266 60E0      		ldi r22,lo8(0)
 445 0268 70E0      		ldi r23,hi8(0)
 446 026a 40E0      		ldi r20,lo8(TaskStartStk+511)
 447 026c 50E0      		ldi r21,hi8(TaskStartStk+511)
 448 026e 20E0      		ldi r18,lo8(0)
 449 0270 0E94 0000 		call OSTaskCreate
 450               	.LM66:
 451 0274 81E0      		ldi r24,lo8(1)
 452 0276 90E0      		ldi r25,hi8(1)
 453 0278 A0E0      		ldi r26,hlo8(1)
 454 027a B0E0      		ldi r27,hhi8(1)
 455 027c 8093 0000 		sts RndNext,r24
 456 0280 9093 0000 		sts (RndNext)+1,r25
GAS LISTING C:\DOCUME~1\KEUNSO~1\LOCALS~1\Temp/ccIyMOV1.s 			page 9


 457 0284 A093 0000 		sts (RndNext)+2,r26
 458 0288 B093 0000 		sts (RndNext)+3,r27
 459               	.LM67:
 460 028c 0E94 0000 		call OSStart
 461               	.LM68:
 462 0290 80E0      		ldi r24,lo8(0)
 463 0292 90E0      		ldi r25,hi8(0)
 464               	/* epilogue start */
 465 0294 0895      		ret
 466               	.LFE2:
 467               		.size	main, .-main
 468               	.global	PutString
 469               		.type	PutString, @function
 470               	PutString:
 471               	.LFB8:
 472               	.LM69:
 473               	.LVL24:
 474 0296 CF92      		push r12
 475 0298 DF92      		push r13
 476 029a EF92      		push r14
 477 029c FF92      		push r15
 478 029e 0F93      		push r16
 479 02a0 1F93      		push r17
 480 02a2 DF93      		push r29
 481 02a4 CF93      		push r28
 482 02a6 0F92      		push __tmp_reg__
 483 02a8 CDB7      		in r28,__SP_L__
 484 02aa DEB7      		in r29,__SP_H__
 485               	/* prologue: function */
 486               	/* frame size = 1 */
 487 02ac 082F      		mov r16,r24
 488 02ae 192F      		mov r17,r25
 489               	.LM70:
 490 02b0 E82F      		mov r30,r24
 491 02b2 F92F      		mov r31,r25
 492 02b4 F080      		ld r15,Z
 493 02b6 FF20      		tst r15
 494 02b8 01F0      		breq .L33
 495               	.LBB8:
 496               	.LBB10:
 497               	.LM71:
 498 02ba CC2E      		mov r12,r28
 499 02bc DD2E      		mov r13,r29
 500 02be 0894      		sec
 501 02c0 C11C      		adc r12,__zero_reg__
 502 02c2 D11C      		adc r13,__zero_reg__
 503               	.LM72:
 504 02c4 EE24      		clr r14
 505 02c6 E394      		inc r14
 506 02c8 00C0      		rjmp .L34
 507               	.LVL25:
 508               	.L30:
 509               	.LM73:
 510 02ca FCB8      		out 44-32,r15
 511               	.LM74:
 512 02cc E092 0000 		sts UartTxCount,r14
 513               	.LM75:
GAS LISTING C:\DOCUME~1\KEUNSO~1\LOCALS~1\Temp/ccIyMOV1.s 			page 10


 514 02d0 569A      		sbi 42-32,6
 515               	.LM76:
 516               	/* #APP */
 517               	 ;  217 "test.c" 1
 518 02d2 7894      		sei
 519               	 ;  0 "" 2
 520               	/* #NOAPP */
 521               	.LBE10:
 522               	.LBE8:
 523               	.LM77:
 524 02d4 E02F      		mov r30,r16
 525 02d6 F12F      		mov r31,r17
 526 02d8 F080      		ld r15,Z
 527 02da FF20      		tst r15
 528 02dc 01F0      		breq .L33
 529               	.LVL26:
 530               	.L34:
 531               	.LM78:
 532 02de 0F5F      		subi r16,lo8(-(1))
 533 02e0 1F4F      		sbci r17,hi8(-(1))
 534               	.LBB12:
 535               	.LBB9:
 536               	.LM79:
 537 02e2 9091 0000 		lds r25,UartTxCount
 538 02e6 9923      		tst r25
 539 02e8 01F4      		brne .L36
 540               	.L29:
 541               	.LM80:
 542               	/* #APP */
 543               	 ;  207 "test.c" 1
 544 02ea F894      		cli
 545               	 ;  0 "" 2
 546               	.LM81:
 547               	/* #NOAPP */
 548 02ec 9923      		tst r25
 549 02ee 01F0      		breq .L30
 550               	.LM82:
 551 02f0 8091 0000 		lds r24,UartTxWrPtr
 552 02f4 E82F      		mov r30,r24
 553 02f6 F0E0      		ldi r31,lo8(0)
 554 02f8 E050      		subi r30,lo8(-(UartTxBuf))
 555 02fa F040      		sbci r31,hi8(-(UartTxBuf))
 556 02fc F082      		st Z,r15
 557               	.LM83:
 558 02fe 8F5F      		subi r24,lo8(-(1))
 559 0300 8093 0000 		sts UartTxWrPtr,r24
 560               	.LM84:
 561 0304 9F5F      		subi r25,lo8(-(1))
 562 0306 9093 0000 		sts UartTxCount,r25
 563               	.LM85:
 564               	/* #APP */
 565               	 ;  217 "test.c" 1
 566 030a 7894      		sei
 567               	 ;  0 "" 2
 568               	/* #NOAPP */
 569               	.LBE9:
 570               	.LBE12:
GAS LISTING C:\DOCUME~1\KEUNSO~1\LOCALS~1\Temp/ccIyMOV1.s 			page 11


 571               	.LM86:
 572 030c E02F      		mov r30,r16
 573 030e F12F      		mov r31,r17
 574 0310 F080      		ld r15,Z
 575 0312 FF20      		tst r15
 576 0314 01F4      		brne .L34
 577               	.LVL27:
 578               	.L33:
 579               	/* epilogue start */
 580               	.LM87:
 581 0316 0F90      		pop __tmp_reg__
 582 0318 CF91      		pop r28
 583 031a DF91      		pop r29
 584 031c 1F91      		pop r17
 585 031e 0F91      		pop r16
 586               	.LVL28:
 587 0320 FF90      		pop r15
 588 0322 EF90      		pop r14
 589 0324 DF90      		pop r13
 590 0326 CF90      		pop r12
 591 0328 0895      		ret
 592               	.LVL29:
 593               	.L36:
 594               	.LBB13:
 595               	.LBB11:
 596               	.LM88:
 597 032a 8091 0000 		lds r24,UartTxSem
 598 032e 9091 0000 		lds r25,(UartTxSem)+1
 599 0332 60E0      		ldi r22,lo8(0)
 600 0334 70E0      		ldi r23,hi8(0)
 601 0336 4C2D      		mov r20,r12
 602 0338 5D2D      		mov r21,r13
 603 033a 0E94 0000 		call OSSemPend
 604 033e 9091 0000 		lds r25,UartTxCount
 605 0342 00C0      		rjmp .L29
 606               	.LBE11:
 607               	.LBE13:
 608               	.LFE8:
 609               		.size	PutString, .-PutString
 610               	.global	PutDec
 611               		.type	PutDec, @function
 612               	PutDec:
 613               	.LFB11:
 614               	.LM89:
 615               	.LVL30:
 616 0344 EF92      		push r14
 617 0346 FF92      		push r15
 618 0348 0F93      		push r16
 619 034a 1F93      		push r17
 620 034c DF93      		push r29
 621 034e CF93      		push r28
 622 0350 0F92      		push __tmp_reg__
 623 0352 CDB7      		in r28,__SP_L__
 624 0354 DEB7      		in r29,__SP_H__
 625               	/* prologue: function */
 626               	/* frame size = 1 */
 627 0356 F82E      		mov r15,r24
GAS LISTING C:\DOCUME~1\KEUNSO~1\LOCALS~1\Temp/ccIyMOV1.s 			page 12


 628               	.LM90:
 629 0358 6AE0      		ldi r22,lo8(10)
 630 035a 0E94 0000 		call __udivmodqi4
 631               	.LVL31:
 632 035e 282F      		mov r18,r24
 633               	.LM91:
 634 0360 0E94 0000 		call __udivmodqi4
 635 0364 092F      		mov r16,r25
 636               	.LVL32:
 637               	.LM92:
 638 0366 822F      		mov r24,r18
 639 0368 0E94 0000 		call __udivmodqi4
 640 036c 182F      		mov r17,r24
 641               	.LVL33:
 642               	.LM93:
 643 036e 8823      		tst r24
 644 0370 01F0      		breq .+2
 645 0372 00C0      		rjmp .L51
 646               	.L38:
 647               	.LM94:
 648 0374 0023      		tst r16
 649 0376 01F4      		brne .L42
 650 0378 1123      		tst r17
 651 037a 01F0      		breq .L43
 652               	.L42:
 653               	.LM95:
 654 037c 102F      		mov r17,r16
 655               	.LVL34:
 656 037e 105D      		subi r17,lo8(-(48))
 657               	.LBB20:
 658               	.LBB21:
 659               	.LM96:
 660 0380 9091 0000 		lds r25,UartTxCount
 661 0384 9923      		tst r25
 662 0386 01F4      		brne .L52
 663               	.LM97:
 664               	/* #APP */
 665               	 ;  207 "test.c" 1
 666 0388 F894      		cli
 667               	 ;  0 "" 2
 668               	.LM98:
 669               	/* #NOAPP */
 670 038a 9923      		tst r25
 671 038c 01F4      		brne .L53
 672               	.L45:
 673               	.LM99:
 674 038e 1CB9      		out 44-32,r17
 675               	.LM100:
 676 0390 81E0      		ldi r24,lo8(1)
 677               	.LVL35:
 678 0392 8093 0000 		sts UartTxCount,r24
 679               	.LM101:
 680 0396 569A      		sbi 42-32,6
 681               	.L46:
 682               	.LM102:
 683               	/* #APP */
 684               	 ;  217 "test.c" 1
GAS LISTING C:\DOCUME~1\KEUNSO~1\LOCALS~1\Temp/ccIyMOV1.s 			page 13


 685 0398 7894      		sei
 686               	 ;  0 "" 2
 687               	.LVL36:
 688               	/* #NOAPP */
 689               	.L43:
 690               	.LBE21:
 691               	.LBE20:
 692               	.LM103:
 693 039a 8F2D      		mov r24,r15
 694 039c 6AE0      		ldi r22,lo8(10)
 695 039e 0E94 0000 		call __udivmodqi4
 696 03a2 192F      		mov r17,r25
 697               	.LVL37:
 698 03a4 105D      		subi r17,lo8(-(48))
 699               	.LBB23:
 700               	.LBB25:
 701               	.LM104:
 702 03a6 9091 0000 		lds r25,UartTxCount
 703 03aa 9923      		tst r25
 704 03ac 01F0      		breq .+2
 705 03ae 00C0      		rjmp .L54
 706               	.L47:
 707               	.LM105:
 708               	/* #APP */
 709               	 ;  207 "test.c" 1
 710 03b0 F894      		cli
 711               	 ;  0 "" 2
 712               	.LM106:
 713               	/* #NOAPP */
 714 03b2 9923      		tst r25
 715 03b4 01F4      		brne .L55
 716               	.LM107:
 717 03b6 1CB9      		out 44-32,r17
 718               	.LM108:
 719 03b8 81E0      		ldi r24,lo8(1)
 720 03ba 8093 0000 		sts UartTxCount,r24
 721               	.LM109:
 722 03be 569A      		sbi 42-32,6
 723               	.L49:
 724               	.LM110:
 725               	/* #APP */
 726               	 ;  217 "test.c" 1
 727 03c0 7894      		sei
 728               	 ;  0 "" 2
 729               	/* epilogue start */
 730               	/* #NOAPP */
 731               	.LBE25:
 732               	.LBE23:
 733               	.LM111:
 734 03c2 0F90      		pop __tmp_reg__
 735 03c4 CF91      		pop r28
 736 03c6 DF91      		pop r29
 737 03c8 1F91      		pop r17
 738 03ca 0F91      		pop r16
 739               	.LVL38:
 740 03cc FF90      		pop r15
 741               	.LVL39:
GAS LISTING C:\DOCUME~1\KEUNSO~1\LOCALS~1\Temp/ccIyMOV1.s 			page 14


 742 03ce EF90      		pop r14
 743 03d0 0895      		ret
 744               	.LVL40:
 745               	.L53:
 746               	.LBB27:
 747               	.LBB22:
 748               	.LM112:
 749 03d2 8091 0000 		lds r24,UartTxWrPtr
 750               	.LVL41:
 751 03d6 E82F      		mov r30,r24
 752 03d8 F0E0      		ldi r31,lo8(0)
 753 03da E050      		subi r30,lo8(-(UartTxBuf))
 754 03dc F040      		sbci r31,hi8(-(UartTxBuf))
 755 03de 1083      		st Z,r17
 756               	.LM113:
 757 03e0 8F5F      		subi r24,lo8(-(1))
 758 03e2 8093 0000 		sts UartTxWrPtr,r24
 759               	.LM114:
 760 03e6 9F5F      		subi r25,lo8(-(1))
 761 03e8 9093 0000 		sts UartTxCount,r25
 762 03ec 00C0      		rjmp .L46
 763               	.LVL42:
 764               	.L52:
 765               	.LM115:
 766 03ee 8091 0000 		lds r24,UartTxSem
 767 03f2 9091 0000 		lds r25,(UartTxSem)+1
 768               	.LVL43:
 769 03f6 60E0      		ldi r22,lo8(0)
 770 03f8 70E0      		ldi r23,hi8(0)
 771 03fa 4C2F      		mov r20,r28
 772 03fc 5D2F      		mov r21,r29
 773 03fe 4F5F      		subi r20,lo8(-(1))
 774 0400 5F4F      		sbci r21,hi8(-(1))
 775 0402 0E94 0000 		call OSSemPend
 776 0406 9091 0000 		lds r25,UartTxCount
 777               	.LM116:
 778               	/* #APP */
 779               	 ;  207 "test.c" 1
 780 040a F894      		cli
 781               	 ;  0 "" 2
 782               	.LM117:
 783               	/* #NOAPP */
 784 040c 9923      		tst r25
 785 040e 01F4      		brne .+2
 786 0410 00C0      		rjmp .L45
 787 0412 00C0      		rjmp .L53
 788               	.LVL44:
 789               	.L55:
 790               	.LBE22:
 791               	.LBE27:
 792               	.LBB28:
 793               	.LBB24:
 794               	.LM118:
 795 0414 8091 0000 		lds r24,UartTxWrPtr
 796 0418 E82F      		mov r30,r24
 797 041a F0E0      		ldi r31,lo8(0)
 798 041c E050      		subi r30,lo8(-(UartTxBuf))
GAS LISTING C:\DOCUME~1\KEUNSO~1\LOCALS~1\Temp/ccIyMOV1.s 			page 15


 799 041e F040      		sbci r31,hi8(-(UartTxBuf))
 800 0420 1083      		st Z,r17
 801               	.LM119:
 802 0422 8F5F      		subi r24,lo8(-(1))
 803 0424 8093 0000 		sts UartTxWrPtr,r24
 804               	.LM120:
 805 0428 9F5F      		subi r25,lo8(-(1))
 806 042a 9093 0000 		sts UartTxCount,r25
 807 042e 00C0      		rjmp .L49
 808               	.LVL45:
 809               	.L51:
 810               	.LBE24:
 811               	.LBE28:
 812               	.LM121:
 813 0430 30E3      		ldi r19,lo8(48)
 814 0432 E32E      		mov r14,r19
 815 0434 E80E      		add r14,r24
 816               	.LBB29:
 817               	.LBB30:
 818               	.LM122:
 819 0436 9091 0000 		lds r25,UartTxCount
 820 043a 9923      		tst r25
 821 043c 01F4      		brne .L56
 822               	.LVL46:
 823               	.L39:
 824               	.LM123:
 825               	/* #APP */
 826               	 ;  207 "test.c" 1
 827 043e F894      		cli
 828               	 ;  0 "" 2
 829               	.LM124:
 830               	/* #NOAPP */
 831 0440 9923      		tst r25
 832 0442 01F4      		brne .L57
 833               	.LM125:
 834 0444 ECB8      		out 44-32,r14
 835               	.LM126:
 836 0446 81E0      		ldi r24,lo8(1)
 837 0448 8093 0000 		sts UartTxCount,r24
 838               	.LM127:
 839 044c 569A      		sbi 42-32,6
 840               	.L41:
 841               	.LM128:
 842               	/* #APP */
 843               	 ;  217 "test.c" 1
 844 044e 7894      		sei
 845               	 ;  0 "" 2
 846               	/* #NOAPP */
 847 0450 00C0      		rjmp .L38
 848               	.LVL47:
 849               	.L54:
 850               	.LBE30:
 851               	.LBE29:
 852               	.LBB32:
 853               	.LBB26:
 854               	.LM129:
 855 0452 8091 0000 		lds r24,UartTxSem
GAS LISTING C:\DOCUME~1\KEUNSO~1\LOCALS~1\Temp/ccIyMOV1.s 			page 16


 856 0456 9091 0000 		lds r25,(UartTxSem)+1
 857 045a 60E0      		ldi r22,lo8(0)
 858 045c 70E0      		ldi r23,hi8(0)
 859 045e 4C2F      		mov r20,r28
 860 0460 5D2F      		mov r21,r29
 861 0462 4F5F      		subi r20,lo8(-(1))
 862 0464 5F4F      		sbci r21,hi8(-(1))
 863 0466 0E94 0000 		call OSSemPend
 864 046a 9091 0000 		lds r25,UartTxCount
 865 046e 00C0      		rjmp .L47
 866               	.LVL48:
 867               	.L57:
 868               	.LBE26:
 869               	.LBE32:
 870               	.LBB33:
 871               	.LBB31:
 872               	.LM130:
 873 0470 8091 0000 		lds r24,UartTxWrPtr
 874 0474 E82F      		mov r30,r24
 875 0476 F0E0      		ldi r31,lo8(0)
 876 0478 E050      		subi r30,lo8(-(UartTxBuf))
 877 047a F040      		sbci r31,hi8(-(UartTxBuf))
 878 047c E082      		st Z,r14
 879               	.LM131:
 880 047e 8F5F      		subi r24,lo8(-(1))
 881 0480 8093 0000 		sts UartTxWrPtr,r24
 882               	.LM132:
 883 0484 9F5F      		subi r25,lo8(-(1))
 884 0486 9093 0000 		sts UartTxCount,r25
 885 048a 00C0      		rjmp .L41
 886               	.LVL49:
 887               	.L56:
 888               	.LM133:
 889 048c 8091 0000 		lds r24,UartTxSem
 890 0490 9091 0000 		lds r25,(UartTxSem)+1
 891               	.LVL50:
 892 0494 60E0      		ldi r22,lo8(0)
 893 0496 70E0      		ldi r23,hi8(0)
 894 0498 4C2F      		mov r20,r28
 895 049a 5D2F      		mov r21,r29
 896 049c 4F5F      		subi r20,lo8(-(1))
 897 049e 5F4F      		sbci r21,hi8(-(1))
 898 04a0 0E94 0000 		call OSSemPend
 899 04a4 9091 0000 		lds r25,UartTxCount
 900 04a8 00C0      		rjmp .L39
 901               	.LBE31:
 902               	.LBE33:
 903               	.LFE11:
 904               		.size	PutDec, .-PutDec
 905               	.global	VT102Attribute
 906               		.type	VT102Attribute, @function
 907               	VT102Attribute:
 908               	.LFB12:
 909               	.LM134:
 910               	.LVL51:
 911 04aa 0F93      		push r16
 912 04ac 1F93      		push r17
GAS LISTING C:\DOCUME~1\KEUNSO~1\LOCALS~1\Temp/ccIyMOV1.s 			page 17


 913 04ae DF93      		push r29
 914 04b0 CF93      		push r28
 915 04b2 0F92      		push __tmp_reg__
 916 04b4 CDB7      		in r28,__SP_L__
 917 04b6 DEB7      		in r29,__SP_H__
 918               	/* prologue: function */
 919               	/* frame size = 1 */
 920 04b8 182F      		mov r17,r24
 921 04ba 062F      		mov r16,r22
 922               	.LBB42:
 923               	.LBB44:
 924               	.LM135:
 925 04bc 2091 0000 		lds r18,UartTxCount
 926 04c0 2223      		tst r18
 927 04c2 01F0      		breq .+2
 928 04c4 00C0      		rjmp .L72
 929               	.LVL52:
 930               	.L59:
 931               	.LM136:
 932               	/* #APP */
 933               	 ;  207 "test.c" 1
 934 04c6 F894      		cli
 935               	 ;  0 "" 2
 936               	.LM137:
 937               	/* #NOAPP */
 938 04c8 2223      		tst r18
 939 04ca 01F0      		breq .+2
 940 04cc 00C0      		rjmp .L73
 941               	.LM138:
 942 04ce 8BE1      		ldi r24,lo8(27)
 943 04d0 8CB9      		out 44-32,r24
 944               	.LM139:
 945 04d2 81E0      		ldi r24,lo8(1)
 946 04d4 8093 0000 		sts UartTxCount,r24
 947               	.LM140:
 948 04d8 569A      		sbi 42-32,6
 949 04da 282F      		mov r18,r24
 950               	.LM141:
 951               	/* #APP */
 952               	 ;  217 "test.c" 1
 953 04dc 7894      		sei
 954               	 ;  0 "" 2
 955               	/* #NOAPP */
 956               	.LBE44:
 957               	.LBE42:
 958               	.LBB46:
 959               	.LBB47:
 960               	.LM142:
 961 04de 2223      		tst r18
 962 04e0 01F0      		breq .+2
 963 04e2 00C0      		rjmp .L74
 964               	.L62:
 965               	.LM143:
 966               	/* #APP */
 967               	 ;  207 "test.c" 1
 968 04e4 F894      		cli
 969               	 ;  0 "" 2
GAS LISTING C:\DOCUME~1\KEUNSO~1\LOCALS~1\Temp/ccIyMOV1.s 			page 18


 970               	.LM144:
 971               	/* #NOAPP */
 972 04e6 2223      		tst r18
 973 04e8 01F0      		breq .+2
 974 04ea 00C0      		rjmp .L75
 975               	.L63:
 976               	.LM145:
 977 04ec 8BE5      		ldi r24,lo8(91)
 978 04ee 8CB9      		out 44-32,r24
 979               	.LM146:
 980 04f0 81E0      		ldi r24,lo8(1)
 981 04f2 8093 0000 		sts UartTxCount,r24
 982               	.LM147:
 983 04f6 569A      		sbi 42-32,6
 984               	.L64:
 985               	.LM148:
 986               	/* #APP */
 987               	 ;  217 "test.c" 1
 988 04f8 7894      		sei
 989               	 ;  0 "" 2
 990               	/* #NOAPP */
 991               	.LBE47:
 992               	.LBE46:
 993               	.LM149:
 994 04fa 812F      		mov r24,r17
 995 04fc 825E      		subi r24,lo8(-(30))
 996 04fe 0E94 0000 		call PutDec
 997               	.LBB49:
 998               	.LBB50:
 999               	.LM150:
 1000 0502 2091 0000 		lds r18,UartTxCount
 1001 0506 2223      		tst r18
 1002 0508 01F0      		breq .+2
 1003 050a 00C0      		rjmp .L76
 1004               	.L65:
 1005               	.LM151:
 1006               	/* #APP */
 1007               	 ;  207 "test.c" 1
 1008 050c F894      		cli
 1009               	 ;  0 "" 2
 1010               	.LM152:
 1011               	/* #NOAPP */
 1012 050e 2223      		tst r18
 1013 0510 01F0      		breq .+2
 1014 0512 00C0      		rjmp .L77
 1015               	.LM153:
 1016 0514 8BE3      		ldi r24,lo8(59)
 1017 0516 8CB9      		out 44-32,r24
 1018               	.LM154:
 1019 0518 81E0      		ldi r24,lo8(1)
 1020 051a 8093 0000 		sts UartTxCount,r24
 1021               	.LM155:
 1022 051e 569A      		sbi 42-32,6
 1023               	.L67:
 1024               	.LM156:
 1025               	/* #APP */
 1026               	 ;  217 "test.c" 1
GAS LISTING C:\DOCUME~1\KEUNSO~1\LOCALS~1\Temp/ccIyMOV1.s 			page 19


 1027 0520 7894      		sei
 1028               	 ;  0 "" 2
 1029               	/* #NOAPP */
 1030               	.LBE50:
 1031               	.LBE49:
 1032               	.LM157:
 1033 0522 802F      		mov r24,r16
 1034 0524 885D      		subi r24,lo8(-(40))
 1035 0526 0E94 0000 		call PutDec
 1036               	.LBB52:
 1037               	.LBB54:
 1038               	.LM158:
 1039 052a 2091 0000 		lds r18,UartTxCount
 1040 052e 2223      		tst r18
 1041 0530 01F0      		breq .+2
 1042 0532 00C0      		rjmp .L78
 1043               	.L68:
 1044               	.LM159:
 1045               	/* #APP */
 1046               	 ;  207 "test.c" 1
 1047 0534 F894      		cli
 1048               	 ;  0 "" 2
 1049               	.LM160:
 1050               	/* #NOAPP */
 1051 0536 2223      		tst r18
 1052 0538 01F0      		breq .+2
 1053 053a 00C0      		rjmp .L79
 1054               	.LM161:
 1055 053c 8DE6      		ldi r24,lo8(109)
 1056 053e 8CB9      		out 44-32,r24
 1057               	.LM162:
 1058 0540 81E0      		ldi r24,lo8(1)
 1059 0542 8093 0000 		sts UartTxCount,r24
 1060               	.LM163:
 1061 0546 569A      		sbi 42-32,6
 1062               	.LM164:
 1063               	/* #APP */
 1064               	 ;  217 "test.c" 1
 1065 0548 7894      		sei
 1066               	 ;  0 "" 2
 1067               	/* epilogue start */
 1068               	/* #NOAPP */
 1069               	.LBE54:
 1070               	.LBE52:
 1071               	.LM165:
 1072 054a 0F90      		pop __tmp_reg__
 1073 054c CF91      		pop r28
 1074 054e DF91      		pop r29
 1075 0550 1F91      		pop r17
 1076               	.LVL53:
 1077 0552 0F91      		pop r16
 1078               	.LVL54:
 1079 0554 0895      		ret
 1080               	.LVL55:
 1081               	.L73:
 1082               	.LBB56:
 1083               	.LBB43:
GAS LISTING C:\DOCUME~1\KEUNSO~1\LOCALS~1\Temp/ccIyMOV1.s 			page 20


 1084               	.LM166:
 1085 0556 8091 0000 		lds r24,UartTxWrPtr
 1086 055a E82F      		mov r30,r24
 1087 055c F0E0      		ldi r31,lo8(0)
 1088 055e E050      		subi r30,lo8(-(UartTxBuf))
 1089 0560 F040      		sbci r31,hi8(-(UartTxBuf))
 1090 0562 9BE1      		ldi r25,lo8(27)
 1091 0564 9083      		st Z,r25
 1092               	.LM167:
 1093 0566 8F5F      		subi r24,lo8(-(1))
 1094 0568 8093 0000 		sts UartTxWrPtr,r24
 1095               	.LM168:
 1096 056c 2F5F      		subi r18,lo8(-(1))
 1097 056e 2093 0000 		sts UartTxCount,r18
 1098               	.LM169:
 1099               	/* #APP */
 1100               	 ;  217 "test.c" 1
 1101 0572 7894      		sei
 1102               	 ;  0 "" 2
 1103               	/* #NOAPP */
 1104               	.LBE43:
 1105               	.LBE56:
 1106               	.LBB57:
 1107               	.LBB48:
 1108               	.LM170:
 1109 0574 2223      		tst r18
 1110 0576 01F4      		brne .+2
 1111 0578 00C0      		rjmp .L62
 1112               	.L74:
 1113               	.LM171:
 1114 057a 8091 0000 		lds r24,UartTxSem
 1115 057e 9091 0000 		lds r25,(UartTxSem)+1
 1116 0582 60E0      		ldi r22,lo8(0)
 1117 0584 70E0      		ldi r23,hi8(0)
 1118 0586 4C2F      		mov r20,r28
 1119 0588 5D2F      		mov r21,r29
 1120 058a 4F5F      		subi r20,lo8(-(1))
 1121 058c 5F4F      		sbci r21,hi8(-(1))
 1122 058e 0E94 0000 		call OSSemPend
 1123 0592 2091 0000 		lds r18,UartTxCount
 1124               	.LM172:
 1125               	/* #APP */
 1126               	 ;  207 "test.c" 1
 1127 0596 F894      		cli
 1128               	 ;  0 "" 2
 1129               	.LM173:
 1130               	/* #NOAPP */
 1131 0598 2223      		tst r18
 1132 059a 01F4      		brne .+2
 1133 059c 00C0      		rjmp .L63
 1134               	.LVL56:
 1135               	.L75:
 1136               	.LM174:
 1137 059e 8091 0000 		lds r24,UartTxWrPtr
 1138 05a2 E82F      		mov r30,r24
 1139 05a4 F0E0      		ldi r31,lo8(0)
 1140 05a6 E050      		subi r30,lo8(-(UartTxBuf))
GAS LISTING C:\DOCUME~1\KEUNSO~1\LOCALS~1\Temp/ccIyMOV1.s 			page 21


 1141 05a8 F040      		sbci r31,hi8(-(UartTxBuf))
 1142 05aa 9BE5      		ldi r25,lo8(91)
 1143 05ac 9083      		st Z,r25
 1144               	.LM175:
 1145 05ae 8F5F      		subi r24,lo8(-(1))
 1146 05b0 8093 0000 		sts UartTxWrPtr,r24
 1147               	.LM176:
 1148 05b4 2F5F      		subi r18,lo8(-(1))
 1149 05b6 2093 0000 		sts UartTxCount,r18
 1150 05ba 00C0      		rjmp .L64
 1151               	.LVL57:
 1152               	.L79:
 1153               	.LBE48:
 1154               	.LBE57:
 1155               	.LBB58:
 1156               	.LBB53:
 1157               	.LM177:
 1158 05bc 8091 0000 		lds r24,UartTxWrPtr
 1159 05c0 E82F      		mov r30,r24
 1160 05c2 F0E0      		ldi r31,lo8(0)
 1161 05c4 E050      		subi r30,lo8(-(UartTxBuf))
 1162 05c6 F040      		sbci r31,hi8(-(UartTxBuf))
 1163 05c8 9DE6      		ldi r25,lo8(109)
 1164 05ca 9083      		st Z,r25
 1165               	.LM178:
 1166 05cc 8F5F      		subi r24,lo8(-(1))
 1167 05ce 8093 0000 		sts UartTxWrPtr,r24
 1168               	.LM179:
 1169 05d2 2F5F      		subi r18,lo8(-(1))
 1170 05d4 2093 0000 		sts UartTxCount,r18
 1171               	.LM180:
 1172               	/* #APP */
 1173               	 ;  217 "test.c" 1
 1174 05d8 7894      		sei
 1175               	 ;  0 "" 2
 1176               	/* #NOAPP */
 1177               	.LBE53:
 1178               	.LBE58:
 1179               	.LM181:
 1180 05da 0F90      		pop __tmp_reg__
 1181 05dc CF91      		pop r28
 1182 05de DF91      		pop r29
 1183 05e0 1F91      		pop r17
 1184               	.LVL58:
 1185 05e2 0F91      		pop r16
 1186               	.LVL59:
 1187 05e4 0895      		ret
 1188               	.LVL60:
 1189               	.L77:
 1190               	.LBB59:
 1191               	.LBB51:
 1192               	.LM182:
 1193 05e6 8091 0000 		lds r24,UartTxWrPtr
 1194 05ea E82F      		mov r30,r24
 1195 05ec F0E0      		ldi r31,lo8(0)
 1196 05ee E050      		subi r30,lo8(-(UartTxBuf))
 1197 05f0 F040      		sbci r31,hi8(-(UartTxBuf))
GAS LISTING C:\DOCUME~1\KEUNSO~1\LOCALS~1\Temp/ccIyMOV1.s 			page 22


 1198 05f2 9BE3      		ldi r25,lo8(59)
 1199 05f4 9083      		st Z,r25
 1200               	.LM183:
 1201 05f6 8F5F      		subi r24,lo8(-(1))
 1202 05f8 8093 0000 		sts UartTxWrPtr,r24
 1203               	.LM184:
 1204 05fc 2F5F      		subi r18,lo8(-(1))
 1205 05fe 2093 0000 		sts UartTxCount,r18
 1206 0602 00C0      		rjmp .L67
 1207               	.L76:
 1208               	.LM185:
 1209 0604 8091 0000 		lds r24,UartTxSem
 1210 0608 9091 0000 		lds r25,(UartTxSem)+1
 1211 060c 60E0      		ldi r22,lo8(0)
 1212 060e 70E0      		ldi r23,hi8(0)
 1213 0610 4C2F      		mov r20,r28
 1214 0612 5D2F      		mov r21,r29
 1215 0614 4F5F      		subi r20,lo8(-(1))
 1216 0616 5F4F      		sbci r21,hi8(-(1))
 1217 0618 0E94 0000 		call OSSemPend
 1218 061c 2091 0000 		lds r18,UartTxCount
 1219 0620 00C0      		rjmp .L65
 1220               	.LVL61:
 1221               	.L72:
 1222               	.LBE51:
 1223               	.LBE59:
 1224               	.LBB60:
 1225               	.LBB45:
 1226 0622 8091 0000 		lds r24,UartTxSem
 1227 0626 9091 0000 		lds r25,(UartTxSem)+1
 1228 062a 60E0      		ldi r22,lo8(0)
 1229 062c 70E0      		ldi r23,hi8(0)
 1230 062e 4C2F      		mov r20,r28
 1231 0630 5D2F      		mov r21,r29
 1232 0632 4F5F      		subi r20,lo8(-(1))
 1233 0634 5F4F      		sbci r21,hi8(-(1))
 1234 0636 0E94 0000 		call OSSemPend
 1235 063a 2091 0000 		lds r18,UartTxCount
 1236 063e 00C0      		rjmp .L59
 1237               	.L78:
 1238               	.LBE45:
 1239               	.LBE60:
 1240               	.LBB61:
 1241               	.LBB55:
 1242 0640 8091 0000 		lds r24,UartTxSem
 1243 0644 9091 0000 		lds r25,(UartTxSem)+1
 1244 0648 60E0      		ldi r22,lo8(0)
 1245 064a 70E0      		ldi r23,hi8(0)
 1246 064c 4C2F      		mov r20,r28
 1247 064e 5D2F      		mov r21,r29
 1248 0650 4F5F      		subi r20,lo8(-(1))
 1249 0652 5F4F      		sbci r21,hi8(-(1))
 1250 0654 0E94 0000 		call OSSemPend
 1251 0658 2091 0000 		lds r18,UartTxCount
 1252 065c 00C0      		rjmp .L68
 1253               	.LBE55:
 1254               	.LBE61:
GAS LISTING C:\DOCUME~1\KEUNSO~1\LOCALS~1\Temp/ccIyMOV1.s 			page 23


 1255               	.LFE12:
 1256               		.size	VT102Attribute, .-VT102Attribute
 1257               		.data
 1258               	.LC0:
 1259 0000 1B5B 324A 		.string	"\033[2J"
 1259      00
 1260               		.text
 1261               	.global	VT102DispClrScr
 1262               		.type	VT102DispClrScr, @function
 1263               	VT102DispClrScr:
 1264               	.LFB13:
 1265               	.LM186:
 1266 065e CF92      		push r12
 1267 0660 DF92      		push r13
 1268 0662 EF92      		push r14
 1269 0664 FF92      		push r15
 1270 0666 0F93      		push r16
 1271 0668 1F93      		push r17
 1272 066a DF93      		push r29
 1273 066c CF93      		push r28
 1274 066e 0F92      		push __tmp_reg__
 1275 0670 CDB7      		in r28,__SP_L__
 1276 0672 DEB7      		in r29,__SP_H__
 1277               	/* prologue: function */
 1278               	/* frame size = 1 */
 1279               	.LBB76:
 1280               	.LBB77:
 1281               	.LBB88:
 1282               	.LBB90:
 1283               	.LM187:
 1284 0674 2091 0000 		lds r18,UartTxCount
 1285 0678 2223      		tst r18
 1286 067a 01F0      		breq .+2
 1287 067c 00C0      		rjmp .L99
 1288               	.L81:
 1289               	.LM188:
 1290               	/* #APP */
 1291               	 ;  207 "test.c" 1
 1292 067e F894      		cli
 1293               	 ;  0 "" 2
 1294               	.LM189:
 1295               	/* #NOAPP */
 1296 0680 2223      		tst r18
 1297 0682 01F0      		breq .+2
 1298 0684 00C0      		rjmp .L100
 1299               	.LM190:
 1300 0686 8BE1      		ldi r24,lo8(27)
 1301 0688 8CB9      		out 44-32,r24
 1302               	.LM191:
 1303 068a 81E0      		ldi r24,lo8(1)
 1304 068c 8093 0000 		sts UartTxCount,r24
 1305               	.LM192:
 1306 0690 569A      		sbi 42-32,6
 1307 0692 282F      		mov r18,r24
 1308               	.LM193:
 1309               	/* #APP */
 1310               	 ;  217 "test.c" 1
GAS LISTING C:\DOCUME~1\KEUNSO~1\LOCALS~1\Temp/ccIyMOV1.s 			page 24


 1311 0694 7894      		sei
 1312               	 ;  0 "" 2
 1313               	/* #NOAPP */
 1314               	.LBE90:
 1315               	.LBE88:
 1316               	.LBB85:
 1317               	.LBB86:
 1318               	.LM194:
 1319 0696 2223      		tst r18
 1320 0698 01F0      		breq .+2
 1321 069a 00C0      		rjmp .L101
 1322               	.L84:
 1323               	.LM195:
 1324               	/* #APP */
 1325               	 ;  207 "test.c" 1
 1326 069c F894      		cli
 1327               	 ;  0 "" 2
 1328               	.LM196:
 1329               	/* #NOAPP */
 1330 069e 2223      		tst r18
 1331 06a0 01F0      		breq .+2
 1332 06a2 00C0      		rjmp .L102
 1333               	.L85:
 1334               	.LM197:
 1335 06a4 8BE5      		ldi r24,lo8(91)
 1336 06a6 8CB9      		out 44-32,r24
 1337               	.LM198:
 1338 06a8 81E0      		ldi r24,lo8(1)
 1339 06aa 8093 0000 		sts UartTxCount,r24
 1340               	.LM199:
 1341 06ae 569A      		sbi 42-32,6
 1342               	.L86:
 1343               	.LM200:
 1344               	/* #APP */
 1345               	 ;  217 "test.c" 1
 1346 06b0 7894      		sei
 1347               	 ;  0 "" 2
 1348               	/* #NOAPP */
 1349               	.LBE86:
 1350               	.LBE85:
 1351               	.LM201:
 1352 06b2 85E2      		ldi r24,lo8(37)
 1353 06b4 0E94 0000 		call PutDec
 1354               	.LBB82:
 1355               	.LBB83:
 1356               	.LM202:
 1357 06b8 2091 0000 		lds r18,UartTxCount
 1358 06bc 2223      		tst r18
 1359 06be 01F0      		breq .+2
 1360 06c0 00C0      		rjmp .L103
 1361               	.L87:
 1362               	.LM203:
 1363               	/* #APP */
 1364               	 ;  207 "test.c" 1
 1365 06c2 F894      		cli
 1366               	 ;  0 "" 2
 1367               	.LM204:
GAS LISTING C:\DOCUME~1\KEUNSO~1\LOCALS~1\Temp/ccIyMOV1.s 			page 25


 1368               	/* #NOAPP */
 1369 06c4 2223      		tst r18
 1370 06c6 01F0      		breq .+2
 1371 06c8 00C0      		rjmp .L104
 1372               	.LM205:
 1373 06ca 8BE3      		ldi r24,lo8(59)
 1374 06cc 8CB9      		out 44-32,r24
 1375               	.LM206:
 1376 06ce 81E0      		ldi r24,lo8(1)
 1377 06d0 8093 0000 		sts UartTxCount,r24
 1378               	.LM207:
 1379 06d4 569A      		sbi 42-32,6
 1380               	.L89:
 1381               	.LM208:
 1382               	/* #APP */
 1383               	 ;  217 "test.c" 1
 1384 06d6 7894      		sei
 1385               	 ;  0 "" 2
 1386               	/* #NOAPP */
 1387               	.LBE83:
 1388               	.LBE82:
 1389               	.LM209:
 1390 06d8 88E2      		ldi r24,lo8(40)
 1391 06da 0E94 0000 		call PutDec
 1392               	.LBB78:
 1393               	.LBB80:
 1394               	.LM210:
 1395 06de 2091 0000 		lds r18,UartTxCount
 1396 06e2 2223      		tst r18
 1397 06e4 01F0      		breq .+2
 1398 06e6 00C0      		rjmp .L105
 1399               	.L90:
 1400               	.LM211:
 1401               	/* #APP */
 1402               	 ;  207 "test.c" 1
 1403 06e8 F894      		cli
 1404               	 ;  0 "" 2
 1405               	.LM212:
 1406               	/* #NOAPP */
 1407 06ea 2223      		tst r18
 1408 06ec 01F0      		breq .+2
 1409 06ee 00C0      		rjmp .L106
 1410               	.LM213:
 1411 06f0 8DE6      		ldi r24,lo8(109)
 1412 06f2 8CB9      		out 44-32,r24
 1413               	.LM214:
 1414 06f4 81E0      		ldi r24,lo8(1)
 1415 06f6 8093 0000 		sts UartTxCount,r24
 1416               	.LM215:
 1417 06fa 569A      		sbi 42-32,6
 1418               	.L92:
 1419               	.LM216:
 1420               	/* #APP */
 1421               	 ;  217 "test.c" 1
 1422 06fc 7894      		sei
 1423               	 ;  0 "" 2
 1424               	/* #NOAPP */
GAS LISTING C:\DOCUME~1\KEUNSO~1\LOCALS~1\Temp/ccIyMOV1.s 			page 26


 1425 06fe 00E0      		ldi r16,lo8(.LC0)
 1426 0700 10E0      		ldi r17,hi8(.LC0)
 1427               	.LVL62:
 1428 0702 4BE1      		ldi r20,lo8(27)
 1429 0704 F42E      		mov r15,r20
 1430               	.LBE80:
 1431               	.LBE78:
 1432               	.LBE77:
 1433               	.LBE76:
 1434               	.LBB99:
 1435               	.LBB100:
 1436               	.LBB102:
 1437               	.LBB104:
 1438               	.LM217:
 1439 0706 CC2E      		mov r12,r28
 1440 0708 DD2E      		mov r13,r29
 1441 070a 0894      		sec
 1442 070c C11C      		adc r12,__zero_reg__
 1443 070e D11C      		adc r13,__zero_reg__
 1444               	.LM218:
 1445 0710 EE24      		clr r14
 1446 0712 E394      		inc r14
 1447 0714 00C0      		rjmp .L96
 1448               	.L94:
 1449               	.LM219:
 1450 0716 FCB8      		out 44-32,r15
 1451               	.LM220:
 1452 0718 E092 0000 		sts UartTxCount,r14
 1453               	.LM221:
 1454 071c 569A      		sbi 42-32,6
 1455               	.LM222:
 1456               	/* #APP */
 1457               	 ;  217 "test.c" 1
 1458 071e 7894      		sei
 1459               	 ;  0 "" 2
 1460               	/* #NOAPP */
 1461               	.LBE104:
 1462               	.LBE102:
 1463               	.LM223:
 1464 0720 E02F      		mov r30,r16
 1465 0722 F12F      		mov r31,r17
 1466 0724 F080      		ld r15,Z
 1467 0726 FF20      		tst r15
 1468 0728 01F0      		breq .L107
 1469               	.L96:
 1470               	.LM224:
 1471 072a 0F5F      		subi r16,lo8(-(1))
 1472 072c 1F4F      		sbci r17,hi8(-(1))
 1473               	.LBB101:
 1474               	.LBB103:
 1475               	.LM225:
 1476 072e 2091 0000 		lds r18,UartTxCount
 1477 0732 2223      		tst r18
 1478 0734 01F4      		brne .L108
 1479               	.L93:
 1480               	.LM226:
 1481               	/* #APP */
GAS LISTING C:\DOCUME~1\KEUNSO~1\LOCALS~1\Temp/ccIyMOV1.s 			page 27


 1482               	 ;  207 "test.c" 1
 1483 0736 F894      		cli
 1484               	 ;  0 "" 2
 1485               	.LM227:
 1486               	/* #NOAPP */
 1487 0738 2223      		tst r18
 1488 073a 01F0      		breq .L94
 1489               	.LM228:
 1490 073c 8091 0000 		lds r24,UartTxWrPtr
 1491 0740 E82F      		mov r30,r24
 1492 0742 F0E0      		ldi r31,lo8(0)
 1493 0744 E050      		subi r30,lo8(-(UartTxBuf))
 1494 0746 F040      		sbci r31,hi8(-(UartTxBuf))
 1495 0748 F082      		st Z,r15
 1496               	.LM229:
 1497 074a 8F5F      		subi r24,lo8(-(1))
 1498 074c 8093 0000 		sts UartTxWrPtr,r24
 1499               	.LM230:
 1500 0750 2F5F      		subi r18,lo8(-(1))
 1501 0752 2093 0000 		sts UartTxCount,r18
 1502               	.LM231:
 1503               	/* #APP */
 1504               	 ;  217 "test.c" 1
 1505 0756 7894      		sei
 1506               	 ;  0 "" 2
 1507               	/* #NOAPP */
 1508               	.LBE103:
 1509               	.LBE101:
 1510               	.LM232:
 1511 0758 E02F      		mov r30,r16
 1512 075a F12F      		mov r31,r17
 1513 075c F080      		ld r15,Z
 1514 075e FF20      		tst r15
 1515 0760 01F4      		brne .L96
 1516               	.L107:
 1517               	/* epilogue start */
 1518               	.LBE100:
 1519               	.LBE99:
 1520               	.LM233:
 1521 0762 0F90      		pop __tmp_reg__
 1522 0764 CF91      		pop r28
 1523 0766 DF91      		pop r29
 1524 0768 1F91      		pop r17
 1525 076a 0F91      		pop r16
 1526               	.LVL63:
 1527 076c FF90      		pop r15
 1528 076e EF90      		pop r14
 1529 0770 DF90      		pop r13
 1530 0772 CF90      		pop r12
 1531 0774 0895      		ret
 1532               	.LVL64:
 1533               	.L108:
 1534               	.LBB108:
 1535               	.LBB107:
 1536               	.LBB106:
 1537               	.LBB105:
 1538               	.LM234:
GAS LISTING C:\DOCUME~1\KEUNSO~1\LOCALS~1\Temp/ccIyMOV1.s 			page 28


 1539 0776 8091 0000 		lds r24,UartTxSem
 1540 077a 9091 0000 		lds r25,(UartTxSem)+1
 1541 077e 60E0      		ldi r22,lo8(0)
 1542 0780 70E0      		ldi r23,hi8(0)
 1543 0782 4C2D      		mov r20,r12
 1544 0784 5D2D      		mov r21,r13
 1545 0786 0E94 0000 		call OSSemPend
 1546 078a 2091 0000 		lds r18,UartTxCount
 1547 078e 00C0      		rjmp .L93
 1548               	.LVL65:
 1549               	.L100:
 1550               	.LBE105:
 1551               	.LBE106:
 1552               	.LBE107:
 1553               	.LBE108:
 1554               	.LBB109:
 1555               	.LBB98:
 1556               	.LBB92:
 1557               	.LBB89:
 1558               	.LM235:
 1559 0790 8091 0000 		lds r24,UartTxWrPtr
 1560 0794 E82F      		mov r30,r24
 1561 0796 F0E0      		ldi r31,lo8(0)
 1562 0798 E050      		subi r30,lo8(-(UartTxBuf))
 1563 079a F040      		sbci r31,hi8(-(UartTxBuf))
 1564 079c 9BE1      		ldi r25,lo8(27)
 1565 079e 9083      		st Z,r25
 1566               	.LM236:
 1567 07a0 8F5F      		subi r24,lo8(-(1))
 1568 07a2 8093 0000 		sts UartTxWrPtr,r24
 1569               	.LM237:
 1570 07a6 2F5F      		subi r18,lo8(-(1))
 1571 07a8 2093 0000 		sts UartTxCount,r18
 1572               	.LM238:
 1573               	/* #APP */
 1574               	 ;  217 "test.c" 1
 1575 07ac 7894      		sei
 1576               	 ;  0 "" 2
 1577               	/* #NOAPP */
 1578               	.LBE89:
 1579               	.LBE92:
 1580               	.LBB93:
 1581               	.LBB87:
 1582               	.LM239:
 1583 07ae 2223      		tst r18
 1584 07b0 01F4      		brne .+2
 1585 07b2 00C0      		rjmp .L84
 1586               	.L101:
 1587               	.LM240:
 1588 07b4 8091 0000 		lds r24,UartTxSem
 1589 07b8 9091 0000 		lds r25,(UartTxSem)+1
 1590 07bc 60E0      		ldi r22,lo8(0)
 1591 07be 70E0      		ldi r23,hi8(0)
 1592 07c0 4C2F      		mov r20,r28
 1593 07c2 5D2F      		mov r21,r29
 1594 07c4 4F5F      		subi r20,lo8(-(1))
 1595 07c6 5F4F      		sbci r21,hi8(-(1))
GAS LISTING C:\DOCUME~1\KEUNSO~1\LOCALS~1\Temp/ccIyMOV1.s 			page 29


 1596 07c8 0E94 0000 		call OSSemPend
 1597 07cc 2091 0000 		lds r18,UartTxCount
 1598               	.LM241:
 1599               	/* #APP */
 1600               	 ;  207 "test.c" 1
 1601 07d0 F894      		cli
 1602               	 ;  0 "" 2
 1603               	.LM242:
 1604               	/* #NOAPP */
 1605 07d2 2223      		tst r18
 1606 07d4 01F4      		brne .+2
 1607 07d6 00C0      		rjmp .L85
 1608               	.L102:
 1609               	.LM243:
 1610 07d8 8091 0000 		lds r24,UartTxWrPtr
 1611 07dc E82F      		mov r30,r24
 1612 07de F0E0      		ldi r31,lo8(0)
 1613 07e0 E050      		subi r30,lo8(-(UartTxBuf))
 1614 07e2 F040      		sbci r31,hi8(-(UartTxBuf))
 1615 07e4 9BE5      		ldi r25,lo8(91)
 1616 07e6 9083      		st Z,r25
 1617               	.LM244:
 1618 07e8 8F5F      		subi r24,lo8(-(1))
 1619 07ea 8093 0000 		sts UartTxWrPtr,r24
 1620               	.LM245:
 1621 07ee 2F5F      		subi r18,lo8(-(1))
 1622 07f0 2093 0000 		sts UartTxCount,r18
 1623 07f4 00C0      		rjmp .L86
 1624               	.L106:
 1625               	.LBE87:
 1626               	.LBE93:
 1627               	.LBB94:
 1628               	.LBB79:
 1629               	.LM246:
 1630 07f6 8091 0000 		lds r24,UartTxWrPtr
 1631 07fa E82F      		mov r30,r24
 1632 07fc F0E0      		ldi r31,lo8(0)
 1633 07fe E050      		subi r30,lo8(-(UartTxBuf))
 1634 0800 F040      		sbci r31,hi8(-(UartTxBuf))
 1635 0802 9DE6      		ldi r25,lo8(109)
 1636 0804 9083      		st Z,r25
 1637               	.LM247:
 1638 0806 8F5F      		subi r24,lo8(-(1))
 1639 0808 8093 0000 		sts UartTxWrPtr,r24
 1640               	.LM248:
 1641 080c 2F5F      		subi r18,lo8(-(1))
 1642 080e 2093 0000 		sts UartTxCount,r18
 1643 0812 00C0      		rjmp .L92
 1644               	.L104:
 1645               	.LBE79:
 1646               	.LBE94:
 1647               	.LBB95:
 1648               	.LBB84:
 1649               	.LM249:
 1650 0814 8091 0000 		lds r24,UartTxWrPtr
 1651 0818 E82F      		mov r30,r24
 1652 081a F0E0      		ldi r31,lo8(0)
GAS LISTING C:\DOCUME~1\KEUNSO~1\LOCALS~1\Temp/ccIyMOV1.s 			page 30


 1653 081c E050      		subi r30,lo8(-(UartTxBuf))
 1654 081e F040      		sbci r31,hi8(-(UartTxBuf))
 1655 0820 9BE3      		ldi r25,lo8(59)
 1656 0822 9083      		st Z,r25
 1657               	.LM250:
 1658 0824 8F5F      		subi r24,lo8(-(1))
 1659 0826 8093 0000 		sts UartTxWrPtr,r24
 1660               	.LM251:
 1661 082a 2F5F      		subi r18,lo8(-(1))
 1662 082c 2093 0000 		sts UartTxCount,r18
 1663 0830 00C0      		rjmp .L89
 1664               	.L103:
 1665               	.LM252:
 1666 0832 8091 0000 		lds r24,UartTxSem
 1667 0836 9091 0000 		lds r25,(UartTxSem)+1
 1668 083a 60E0      		ldi r22,lo8(0)
 1669 083c 70E0      		ldi r23,hi8(0)
 1670 083e 4C2F      		mov r20,r28
 1671 0840 5D2F      		mov r21,r29
 1672 0842 4F5F      		subi r20,lo8(-(1))
 1673 0844 5F4F      		sbci r21,hi8(-(1))
 1674 0846 0E94 0000 		call OSSemPend
 1675 084a 2091 0000 		lds r18,UartTxCount
 1676 084e 00C0      		rjmp .L87
 1677               	.L99:
 1678               	.LBE84:
 1679               	.LBE95:
 1680               	.LBB96:
 1681               	.LBB91:
 1682 0850 8091 0000 		lds r24,UartTxSem
 1683 0854 9091 0000 		lds r25,(UartTxSem)+1
 1684 0858 60E0      		ldi r22,lo8(0)
 1685 085a 70E0      		ldi r23,hi8(0)
 1686 085c 4C2F      		mov r20,r28
 1687 085e 5D2F      		mov r21,r29
 1688 0860 4F5F      		subi r20,lo8(-(1))
 1689 0862 5F4F      		sbci r21,hi8(-(1))
 1690 0864 0E94 0000 		call OSSemPend
 1691 0868 2091 0000 		lds r18,UartTxCount
 1692 086c 00C0      		rjmp .L81
 1693               	.L105:
 1694               	.LBE91:
 1695               	.LBE96:
 1696               	.LBB97:
 1697               	.LBB81:
 1698 086e 8091 0000 		lds r24,UartTxSem
 1699 0872 9091 0000 		lds r25,(UartTxSem)+1
 1700 0876 60E0      		ldi r22,lo8(0)
 1701 0878 70E0      		ldi r23,hi8(0)
 1702 087a 4C2F      		mov r20,r28
 1703 087c 5D2F      		mov r21,r29
 1704 087e 4F5F      		subi r20,lo8(-(1))
 1705 0880 5F4F      		sbci r21,hi8(-(1))
 1706 0882 0E94 0000 		call OSSemPend
 1707 0886 2091 0000 		lds r18,UartTxCount
 1708 088a 00C0      		rjmp .L90
 1709               	.LBE81:
GAS LISTING C:\DOCUME~1\KEUNSO~1\LOCALS~1\Temp/ccIyMOV1.s 			page 31


 1710               	.LBE97:
 1711               	.LBE98:
 1712               	.LBE109:
 1713               	.LFE13:
 1714               		.size	VT102DispClrScr, .-VT102DispClrScr
 1715               	.global	VT102DispStr
 1716               		.type	VT102DispStr, @function
 1717               	VT102DispStr:
 1718               	.LFB15:
 1719               	.LM253:
 1720               	.LVL66:
 1721 088c CF92      		push r12
 1722 088e DF92      		push r13
 1723 0890 EF92      		push r14
 1724 0892 FF92      		push r15
 1725 0894 0F93      		push r16
 1726               	.LVL67:
 1727 0896 1F93      		push r17
 1728 0898 DF93      		push r29
 1729 089a CF93      		push r28
 1730 089c 00D0      		rcall .
 1731 089e CDB7      		in r28,__SP_L__
 1732 08a0 DEB7      		in r29,__SP_H__
 1733               	/* prologue: function */
 1734               	/* frame size = 2 */
 1735 08a2 E82E      		mov r14,r24
 1736 08a4 F62E      		mov r15,r22
 1737 08a6 C42E      		mov r12,r20
 1738 08a8 D52E      		mov r13,r21
 1739 08aa 122F      		mov r17,r18
 1740               	.LM254:
 1741 08ac 8091 0000 		lds r24,DispStrSem
 1742 08b0 9091 0000 		lds r25,(DispStrSem)+1
 1743               	.LVL68:
 1744 08b4 60E0      		ldi r22,lo8(0)
 1745 08b6 70E0      		ldi r23,hi8(0)
 1746               	.LVL69:
 1747 08b8 4C2F      		mov r20,r28
 1748 08ba 5D2F      		mov r21,r29
 1749               	.LVL70:
 1750 08bc 4F5F      		subi r20,lo8(-(1))
 1751 08be 5F4F      		sbci r21,hi8(-(1))
 1752 08c0 0E94 0000 		call OSSemPend
 1753               	.LVL71:
 1754               	.LBB132:
 1755               	.LBB135:
 1756               	.LBB140:
 1757               	.LBB142:
 1758               	.LM255:
 1759 08c4 2091 0000 		lds r18,UartTxCount
 1760 08c8 2223      		tst r18
 1761 08ca 01F0      		breq .+2
 1762 08cc 00C0      		rjmp .L141
 1763               	.L110:
 1764               	.LM256:
 1765               	/* #APP */
 1766               	 ;  207 "test.c" 1
GAS LISTING C:\DOCUME~1\KEUNSO~1\LOCALS~1\Temp/ccIyMOV1.s 			page 32


 1767 08ce F894      		cli
 1768               	 ;  0 "" 2
 1769               	.LM257:
 1770               	/* #NOAPP */
 1771 08d0 2223      		tst r18
 1772 08d2 01F0      		breq .+2
 1773 08d4 00C0      		rjmp .L142
 1774               	.LM258:
 1775 08d6 8BE1      		ldi r24,lo8(27)
 1776 08d8 8CB9      		out 44-32,r24
 1777               	.LM259:
 1778 08da 81E0      		ldi r24,lo8(1)
 1779 08dc 8093 0000 		sts UartTxCount,r24
 1780               	.LM260:
 1781 08e0 569A      		sbi 42-32,6
 1782 08e2 282F      		mov r18,r24
 1783               	.LM261:
 1784               	/* #APP */
 1785               	 ;  217 "test.c" 1
 1786 08e4 7894      		sei
 1787               	 ;  0 "" 2
 1788               	/* #NOAPP */
 1789               	.LBE142:
 1790               	.LBE140:
 1791               	.LBB144:
 1792               	.LBB145:
 1793               	.LM262:
 1794 08e6 2223      		tst r18
 1795 08e8 01F0      		breq .+2
 1796 08ea 00C0      		rjmp .L143
 1797               	.L113:
 1798               	.LM263:
 1799               	/* #APP */
 1800               	 ;  207 "test.c" 1
 1801 08ec F894      		cli
 1802               	 ;  0 "" 2
 1803               	.LM264:
 1804               	/* #NOAPP */
 1805 08ee 2223      		tst r18
 1806 08f0 01F0      		breq .+2
 1807 08f2 00C0      		rjmp .L144
 1808               	.L114:
 1809               	.LM265:
 1810 08f4 8BE5      		ldi r24,lo8(91)
 1811 08f6 8CB9      		out 44-32,r24
 1812               	.LM266:
 1813 08f8 81E0      		ldi r24,lo8(1)
 1814 08fa 8093 0000 		sts UartTxCount,r24
 1815               	.LM267:
 1816 08fe 569A      		sbi 42-32,6
 1817               	.L115:
 1818               	.LM268:
 1819               	/* #APP */
 1820               	 ;  217 "test.c" 1
 1821 0900 7894      		sei
 1822               	 ;  0 "" 2
 1823               	/* #NOAPP */
GAS LISTING C:\DOCUME~1\KEUNSO~1\LOCALS~1\Temp/ccIyMOV1.s 			page 33


 1824               	.LBE145:
 1825               	.LBE144:
 1826               	.LM269:
 1827 0902 812F      		mov r24,r17
 1828 0904 825E      		subi r24,lo8(-(30))
 1829 0906 0E94 0000 		call PutDec
 1830               	.LBB147:
 1831               	.LBB148:
 1832               	.LM270:
 1833 090a 2091 0000 		lds r18,UartTxCount
 1834 090e 2223      		tst r18
 1835 0910 01F0      		breq .+2
 1836 0912 00C0      		rjmp .L145
 1837               	.L116:
 1838               	.LM271:
 1839               	/* #APP */
 1840               	 ;  207 "test.c" 1
 1841 0914 F894      		cli
 1842               	 ;  0 "" 2
 1843               	.LM272:
 1844               	/* #NOAPP */
 1845 0916 2223      		tst r18
 1846 0918 01F0      		breq .+2
 1847 091a 00C0      		rjmp .L146
 1848               	.LM273:
 1849 091c 8BE3      		ldi r24,lo8(59)
 1850 091e 8CB9      		out 44-32,r24
 1851               	.LM274:
 1852 0920 81E0      		ldi r24,lo8(1)
 1853 0922 8093 0000 		sts UartTxCount,r24
 1854               	.LM275:
 1855 0926 569A      		sbi 42-32,6
 1856               	.L118:
 1857               	.LM276:
 1858               	/* #APP */
 1859               	 ;  217 "test.c" 1
 1860 0928 7894      		sei
 1861               	 ;  0 "" 2
 1862               	/* #NOAPP */
 1863               	.LBE148:
 1864               	.LBE147:
 1865               	.LM277:
 1866 092a 802F      		mov r24,r16
 1867               	.LVL72:
 1868 092c 885D      		subi r24,lo8(-(40))
 1869 092e 0E94 0000 		call PutDec
 1870               	.LBB150:
 1871               	.LBB152:
 1872               	.LM278:
 1873 0932 2091 0000 		lds r18,UartTxCount
 1874 0936 2223      		tst r18
 1875 0938 01F0      		breq .+2
 1876 093a 00C0      		rjmp .L147
 1877               	.L119:
 1878               	.LM279:
 1879               	/* #APP */
 1880               	 ;  207 "test.c" 1
GAS LISTING C:\DOCUME~1\KEUNSO~1\LOCALS~1\Temp/ccIyMOV1.s 			page 34


 1881 093c F894      		cli
 1882               	 ;  0 "" 2
 1883               	.LM280:
 1884               	/* #NOAPP */
 1885 093e 2223      		tst r18
 1886 0940 01F0      		breq .+2
 1887 0942 00C0      		rjmp .L148
 1888               	.LM281:
 1889 0944 8DE6      		ldi r24,lo8(109)
 1890 0946 8CB9      		out 44-32,r24
 1891               	.LM282:
 1892 0948 81E0      		ldi r24,lo8(1)
 1893 094a 8093 0000 		sts UartTxCount,r24
 1894               	.LM283:
 1895 094e 569A      		sbi 42-32,6
 1896 0950 282F      		mov r18,r24
 1897               	.LM284:
 1898               	/* #APP */
 1899               	 ;  217 "test.c" 1
 1900 0952 7894      		sei
 1901               	 ;  0 "" 2
 1902               	/* #NOAPP */
 1903               	.LBE152:
 1904               	.LBE150:
 1905               	.LBE135:
 1906               	.LBE132:
 1907               	.LBB158:
 1908               	.LBB160:
 1909               	.LM285:
 1910 0954 2223      		tst r18
 1911 0956 01F0      		breq .+2
 1912 0958 00C0      		rjmp .L149
 1913               	.L122:
 1914               	.LM286:
 1915               	/* #APP */
 1916               	 ;  207 "test.c" 1
 1917 095a F894      		cli
 1918               	 ;  0 "" 2
 1919               	.LM287:
 1920               	/* #NOAPP */
 1921 095c 2223      		tst r18
 1922 095e 01F0      		breq .+2
 1923 0960 00C0      		rjmp .L150
 1924               	.LM288:
 1925 0962 8BE1      		ldi r24,lo8(27)
 1926 0964 8CB9      		out 44-32,r24
 1927               	.LM289:
 1928 0966 81E0      		ldi r24,lo8(1)
 1929 0968 8093 0000 		sts UartTxCount,r24
 1930               	.LM290:
 1931 096c 569A      		sbi 42-32,6
 1932 096e 282F      		mov r18,r24
 1933               	.LM291:
 1934               	/* #APP */
 1935               	 ;  217 "test.c" 1
 1936 0970 7894      		sei
 1937               	 ;  0 "" 2
GAS LISTING C:\DOCUME~1\KEUNSO~1\LOCALS~1\Temp/ccIyMOV1.s 			page 35


 1938               	/* #NOAPP */
 1939               	.LBE160:
 1940               	.LBE158:
 1941               	.LBB162:
 1942               	.LBB164:
 1943               	.LM292:
 1944 0972 2223      		tst r18
 1945 0974 01F0      		breq .+2
 1946 0976 00C0      		rjmp .L151
 1947               	.L125:
 1948               	.LM293:
 1949               	/* #APP */
 1950               	 ;  207 "test.c" 1
 1951 0978 F894      		cli
 1952               	 ;  0 "" 2
 1953               	.LM294:
 1954               	/* #NOAPP */
 1955 097a 2223      		tst r18
 1956 097c 01F0      		breq .+2
 1957 097e 00C0      		rjmp .L152
 1958               	.LM295:
 1959 0980 8BE5      		ldi r24,lo8(91)
 1960 0982 8CB9      		out 44-32,r24
 1961               	.LM296:
 1962 0984 81E0      		ldi r24,lo8(1)
 1963 0986 8093 0000 		sts UartTxCount,r24
 1964               	.LM297:
 1965 098a 569A      		sbi 42-32,6
 1966               	.L127:
 1967               	.LM298:
 1968               	/* #APP */
 1969               	 ;  217 "test.c" 1
 1970 098c 7894      		sei
 1971               	 ;  0 "" 2
 1972               	/* #NOAPP */
 1973               	.LBE164:
 1974               	.LBE162:
 1975               	.LM299:
 1976 098e 8F2D      		mov r24,r15
 1977 0990 0E94 0000 		call PutDec
 1978               	.LBB166:
 1979               	.LBB168:
 1980               	.LM300:
 1981 0994 2091 0000 		lds r18,UartTxCount
 1982 0998 2223      		tst r18
 1983 099a 01F0      		breq .+2
 1984 099c 00C0      		rjmp .L153
 1985               	.L128:
 1986               	.LM301:
 1987               	/* #APP */
 1988               	 ;  207 "test.c" 1
 1989 099e F894      		cli
 1990               	 ;  0 "" 2
 1991               	.LM302:
 1992               	/* #NOAPP */
 1993 09a0 2223      		tst r18
 1994 09a2 01F0      		breq .+2
GAS LISTING C:\DOCUME~1\KEUNSO~1\LOCALS~1\Temp/ccIyMOV1.s 			page 36


 1995 09a4 00C0      		rjmp .L154
 1996               	.LM303:
 1997 09a6 8BE3      		ldi r24,lo8(59)
 1998 09a8 8CB9      		out 44-32,r24
 1999               	.LM304:
 2000 09aa 81E0      		ldi r24,lo8(1)
 2001 09ac 8093 0000 		sts UartTxCount,r24
 2002               	.LM305:
 2003 09b0 569A      		sbi 42-32,6
 2004               	.L130:
 2005               	.LM306:
 2006               	/* #APP */
 2007               	 ;  217 "test.c" 1
 2008 09b2 7894      		sei
 2009               	 ;  0 "" 2
 2010               	/* #NOAPP */
 2011               	.LBE168:
 2012               	.LBE166:
 2013               	.LM307:
 2014 09b4 8E2D      		mov r24,r14
 2015 09b6 0E94 0000 		call PutDec
 2016               	.LBB170:
 2017               	.LBB172:
 2018               	.LM308:
 2019 09ba 2091 0000 		lds r18,UartTxCount
 2020 09be 2223      		tst r18
 2021 09c0 01F0      		breq .+2
 2022 09c2 00C0      		rjmp .L155
 2023               	.L131:
 2024               	.LM309:
 2025               	/* #APP */
 2026               	 ;  207 "test.c" 1
 2027 09c4 F894      		cli
 2028               	 ;  0 "" 2
 2029               	.LM310:
 2030               	/* #NOAPP */
 2031 09c6 2223      		tst r18
 2032 09c8 01F0      		breq .+2
 2033 09ca 00C0      		rjmp .L156
 2034               	.LM311:
 2035 09cc 88E4      		ldi r24,lo8(72)
 2036 09ce 8CB9      		out 44-32,r24
 2037               	.LM312:
 2038 09d0 81E0      		ldi r24,lo8(1)
 2039 09d2 8093 0000 		sts UartTxCount,r24
 2040               	.LM313:
 2041 09d6 569A      		sbi 42-32,6
 2042               	.L133:
 2043               	.LM314:
 2044               	/* #APP */
 2045               	 ;  217 "test.c" 1
 2046 09d8 7894      		sei
 2047               	 ;  0 "" 2
 2048               	/* #NOAPP */
 2049               	.LBE172:
 2050               	.LBE170:
 2051               	.LBB174:
GAS LISTING C:\DOCUME~1\KEUNSO~1\LOCALS~1\Temp/ccIyMOV1.s 			page 37


 2052               	.LBB175:
 2053               	.LM315:
 2054 09da EC2D      		mov r30,r12
 2055 09dc FD2D      		mov r31,r13
 2056 09de F080      		ld r15,Z
 2057               	.LVL73:
 2058 09e0 FF20      		tst r15
 2059 09e2 01F0      		breq .L134
 2060 09e4 0C2D      		mov r16,r12
 2061 09e6 1D2D      		mov r17,r13
 2062               	.LVL74:
 2063               	.LBB177:
 2064               	.LBB179:
 2065               	.LM316:
 2066 09e8 52E0      		ldi r21,lo8(2)
 2067 09ea C52E      		mov r12,r21
 2068 09ec D12C      		mov r13,__zero_reg__
 2069               	.LVL75:
 2070 09ee CC0E      		add r12,r28
 2071 09f0 DD1E      		adc r13,r29
 2072               	.LM317:
 2073 09f2 EE24      		clr r14
 2074 09f4 E394      		inc r14
 2075               	.LVL76:
 2076 09f6 00C0      		rjmp .L138
 2077               	.L136:
 2078               	.LM318:
 2079 09f8 FCB8      		out 44-32,r15
 2080               	.LM319:
 2081 09fa E092 0000 		sts UartTxCount,r14
 2082               	.LM320:
 2083 09fe 569A      		sbi 42-32,6
 2084               	.LM321:
 2085               	/* #APP */
 2086               	 ;  217 "test.c" 1
 2087 0a00 7894      		sei
 2088               	 ;  0 "" 2
 2089               	/* #NOAPP */
 2090               	.LBE179:
 2091               	.LBE177:
 2092               	.LM322:
 2093 0a02 E02F      		mov r30,r16
 2094 0a04 F12F      		mov r31,r17
 2095 0a06 F080      		ld r15,Z
 2096 0a08 FF20      		tst r15
 2097 0a0a 01F0      		breq .L134
 2098               	.L138:
 2099               	.LM323:
 2100 0a0c 0F5F      		subi r16,lo8(-(1))
 2101 0a0e 1F4F      		sbci r17,hi8(-(1))
 2102               	.LBB176:
 2103               	.LBB178:
 2104               	.LM324:
 2105 0a10 2091 0000 		lds r18,UartTxCount
 2106 0a14 2223      		tst r18
 2107 0a16 01F4      		brne .L157
 2108               	.L135:
GAS LISTING C:\DOCUME~1\KEUNSO~1\LOCALS~1\Temp/ccIyMOV1.s 			page 38


 2109               	.LM325:
 2110               	/* #APP */
 2111               	 ;  207 "test.c" 1
 2112 0a18 F894      		cli
 2113               	 ;  0 "" 2
 2114               	.LM326:
 2115               	/* #NOAPP */
 2116 0a1a 2223      		tst r18
 2117 0a1c 01F0      		breq .L136
 2118               	.LM327:
 2119 0a1e 8091 0000 		lds r24,UartTxWrPtr
 2120 0a22 E82F      		mov r30,r24
 2121 0a24 F0E0      		ldi r31,lo8(0)
 2122 0a26 E050      		subi r30,lo8(-(UartTxBuf))
 2123 0a28 F040      		sbci r31,hi8(-(UartTxBuf))
 2124 0a2a F082      		st Z,r15
 2125               	.LM328:
 2126 0a2c 8F5F      		subi r24,lo8(-(1))
 2127 0a2e 8093 0000 		sts UartTxWrPtr,r24
 2128               	.LM329:
 2129 0a32 2F5F      		subi r18,lo8(-(1))
 2130 0a34 2093 0000 		sts UartTxCount,r18
 2131               	.LM330:
 2132               	/* #APP */
 2133               	 ;  217 "test.c" 1
 2134 0a38 7894      		sei
 2135               	 ;  0 "" 2
 2136               	/* #NOAPP */
 2137               	.LBE178:
 2138               	.LBE176:
 2139               	.LM331:
 2140 0a3a E02F      		mov r30,r16
 2141 0a3c F12F      		mov r31,r17
 2142 0a3e F080      		ld r15,Z
 2143 0a40 FF20      		tst r15
 2144 0a42 01F4      		brne .L138
 2145               	.LVL77:
 2146               	.L134:
 2147               	.LBE175:
 2148               	.LBE174:
 2149               	.LM332:
 2150 0a44 8091 0000 		lds r24,DispStrSem
 2151 0a48 9091 0000 		lds r25,(DispStrSem)+1
 2152 0a4c 0E94 0000 		call OSSemPost
 2153               	/* epilogue start */
 2154               	.LM333:
 2155 0a50 0F90      		pop __tmp_reg__
 2156 0a52 0F90      		pop __tmp_reg__
 2157 0a54 CF91      		pop r28
 2158 0a56 DF91      		pop r29
 2159 0a58 1F91      		pop r17
 2160               	.LVL78:
 2161 0a5a 0F91      		pop r16
 2162               	.LVL79:
 2163 0a5c FF90      		pop r15
 2164 0a5e EF90      		pop r14
 2165               	.LVL80:
GAS LISTING C:\DOCUME~1\KEUNSO~1\LOCALS~1\Temp/ccIyMOV1.s 			page 39


 2166 0a60 DF90      		pop r13
 2167 0a62 CF90      		pop r12
 2168               	.LVL81:
 2169 0a64 0895      		ret
 2170               	.LVL82:
 2171               	.L157:
 2172               	.LBB183:
 2173               	.LBB182:
 2174               	.LBB181:
 2175               	.LBB180:
 2176               	.LM334:
 2177 0a66 8091 0000 		lds r24,UartTxSem
 2178 0a6a 9091 0000 		lds r25,(UartTxSem)+1
 2179 0a6e 60E0      		ldi r22,lo8(0)
 2180 0a70 70E0      		ldi r23,hi8(0)
 2181 0a72 4C2D      		mov r20,r12
 2182 0a74 5D2D      		mov r21,r13
 2183 0a76 0E94 0000 		call OSSemPend
 2184 0a7a 2091 0000 		lds r18,UartTxCount
 2185 0a7e 00C0      		rjmp .L135
 2186               	.LVL83:
 2187               	.L142:
 2188               	.LBE180:
 2189               	.LBE181:
 2190               	.LBE182:
 2191               	.LBE183:
 2192               	.LBB184:
 2193               	.LBB134:
 2194               	.LBB139:
 2195               	.LBB141:
 2196               	.LM335:
 2197 0a80 8091 0000 		lds r24,UartTxWrPtr
 2198 0a84 E82F      		mov r30,r24
 2199 0a86 F0E0      		ldi r31,lo8(0)
 2200 0a88 E050      		subi r30,lo8(-(UartTxBuf))
 2201 0a8a F040      		sbci r31,hi8(-(UartTxBuf))
 2202 0a8c 9BE1      		ldi r25,lo8(27)
 2203 0a8e 9083      		st Z,r25
 2204               	.LM336:
 2205 0a90 8F5F      		subi r24,lo8(-(1))
 2206 0a92 8093 0000 		sts UartTxWrPtr,r24
 2207               	.LM337:
 2208 0a96 2F5F      		subi r18,lo8(-(1))
 2209 0a98 2093 0000 		sts UartTxCount,r18
 2210               	.LM338:
 2211               	/* #APP */
 2212               	 ;  217 "test.c" 1
 2213 0a9c 7894      		sei
 2214               	 ;  0 "" 2
 2215               	/* #NOAPP */
 2216               	.LBE141:
 2217               	.LBE139:
 2218               	.LBB138:
 2219               	.LBB146:
 2220               	.LM339:
 2221 0a9e 2223      		tst r18
 2222 0aa0 01F4      		brne .+2
GAS LISTING C:\DOCUME~1\KEUNSO~1\LOCALS~1\Temp/ccIyMOV1.s 			page 40


 2223 0aa2 00C0      		rjmp .L113
 2224               	.L143:
 2225               	.LM340:
 2226 0aa4 8091 0000 		lds r24,UartTxSem
 2227 0aa8 9091 0000 		lds r25,(UartTxSem)+1
 2228 0aac 60E0      		ldi r22,lo8(0)
 2229 0aae 70E0      		ldi r23,hi8(0)
 2230 0ab0 4C2F      		mov r20,r28
 2231 0ab2 5D2F      		mov r21,r29
 2232 0ab4 4E5F      		subi r20,lo8(-(2))
 2233 0ab6 5F4F      		sbci r21,hi8(-(2))
 2234 0ab8 0E94 0000 		call OSSemPend
 2235 0abc 2091 0000 		lds r18,UartTxCount
 2236               	.LM341:
 2237               	/* #APP */
 2238               	 ;  207 "test.c" 1
 2239 0ac0 F894      		cli
 2240               	 ;  0 "" 2
 2241               	.LM342:
 2242               	/* #NOAPP */
 2243 0ac2 2223      		tst r18
 2244 0ac4 01F4      		brne .+2
 2245 0ac6 00C0      		rjmp .L114
 2246               	.L144:
 2247               	.LM343:
 2248 0ac8 8091 0000 		lds r24,UartTxWrPtr
 2249 0acc E82F      		mov r30,r24
 2250 0ace F0E0      		ldi r31,lo8(0)
 2251 0ad0 E050      		subi r30,lo8(-(UartTxBuf))
 2252 0ad2 F040      		sbci r31,hi8(-(UartTxBuf))
 2253 0ad4 9BE5      		ldi r25,lo8(91)
 2254 0ad6 9083      		st Z,r25
 2255               	.LM344:
 2256 0ad8 8F5F      		subi r24,lo8(-(1))
 2257 0ada 8093 0000 		sts UartTxWrPtr,r24
 2258               	.LM345:
 2259 0ade 2F5F      		subi r18,lo8(-(1))
 2260 0ae0 2093 0000 		sts UartTxCount,r18
 2261 0ae4 00C0      		rjmp .L115
 2262               	.LVL84:
 2263               	.L156:
 2264               	.LBE146:
 2265               	.LBE138:
 2266               	.LBE134:
 2267               	.LBE184:
 2268               	.LBB185:
 2269               	.LBB171:
 2270               	.LM346:
 2271 0ae6 8091 0000 		lds r24,UartTxWrPtr
 2272 0aea E82F      		mov r30,r24
 2273 0aec F0E0      		ldi r31,lo8(0)
 2274 0aee E050      		subi r30,lo8(-(UartTxBuf))
 2275 0af0 F040      		sbci r31,hi8(-(UartTxBuf))
 2276 0af2 98E4      		ldi r25,lo8(72)
 2277 0af4 9083      		st Z,r25
 2278               	.LM347:
 2279 0af6 8F5F      		subi r24,lo8(-(1))
GAS LISTING C:\DOCUME~1\KEUNSO~1\LOCALS~1\Temp/ccIyMOV1.s 			page 41


 2280 0af8 8093 0000 		sts UartTxWrPtr,r24
 2281               	.LM348:
 2282 0afc 2F5F      		subi r18,lo8(-(1))
 2283 0afe 2093 0000 		sts UartTxCount,r18
 2284 0b02 00C0      		rjmp .L133
 2285               	.L154:
 2286               	.LBE171:
 2287               	.LBE185:
 2288               	.LBB186:
 2289               	.LBB167:
 2290               	.LM349:
 2291 0b04 8091 0000 		lds r24,UartTxWrPtr
 2292 0b08 E82F      		mov r30,r24
 2293 0b0a F0E0      		ldi r31,lo8(0)
 2294 0b0c E050      		subi r30,lo8(-(UartTxBuf))
 2295 0b0e F040      		sbci r31,hi8(-(UartTxBuf))
 2296 0b10 9BE3      		ldi r25,lo8(59)
 2297 0b12 9083      		st Z,r25
 2298               	.LM350:
 2299 0b14 8F5F      		subi r24,lo8(-(1))
 2300 0b16 8093 0000 		sts UartTxWrPtr,r24
 2301               	.LM351:
 2302 0b1a 2F5F      		subi r18,lo8(-(1))
 2303 0b1c 2093 0000 		sts UartTxCount,r18
 2304 0b20 00C0      		rjmp .L130
 2305               	.L152:
 2306               	.LBE167:
 2307               	.LBE186:
 2308               	.LBB187:
 2309               	.LBB163:
 2310               	.LM352:
 2311 0b22 8091 0000 		lds r24,UartTxWrPtr
 2312 0b26 E82F      		mov r30,r24
 2313 0b28 F0E0      		ldi r31,lo8(0)
 2314 0b2a E050      		subi r30,lo8(-(UartTxBuf))
 2315 0b2c F040      		sbci r31,hi8(-(UartTxBuf))
 2316 0b2e 9BE5      		ldi r25,lo8(91)
 2317 0b30 9083      		st Z,r25
 2318               	.LM353:
 2319 0b32 8F5F      		subi r24,lo8(-(1))
 2320 0b34 8093 0000 		sts UartTxWrPtr,r24
 2321               	.LM354:
 2322 0b38 2F5F      		subi r18,lo8(-(1))
 2323 0b3a 2093 0000 		sts UartTxCount,r18
 2324 0b3e 00C0      		rjmp .L127
 2325               	.L150:
 2326               	.LBE163:
 2327               	.LBE187:
 2328               	.LBB188:
 2329               	.LBB159:
 2330               	.LM355:
 2331 0b40 8091 0000 		lds r24,UartTxWrPtr
 2332 0b44 E82F      		mov r30,r24
 2333 0b46 F0E0      		ldi r31,lo8(0)
 2334 0b48 E050      		subi r30,lo8(-(UartTxBuf))
 2335 0b4a F040      		sbci r31,hi8(-(UartTxBuf))
 2336 0b4c 9BE1      		ldi r25,lo8(27)
GAS LISTING C:\DOCUME~1\KEUNSO~1\LOCALS~1\Temp/ccIyMOV1.s 			page 42


 2337 0b4e 9083      		st Z,r25
 2338               	.LM356:
 2339 0b50 8F5F      		subi r24,lo8(-(1))
 2340 0b52 8093 0000 		sts UartTxWrPtr,r24
 2341               	.LM357:
 2342 0b56 2F5F      		subi r18,lo8(-(1))
 2343 0b58 2093 0000 		sts UartTxCount,r18
 2344               	.LM358:
 2345               	/* #APP */
 2346               	 ;  217 "test.c" 1
 2347 0b5c 7894      		sei
 2348               	 ;  0 "" 2
 2349               	/* #NOAPP */
 2350               	.LBE159:
 2351               	.LBE188:
 2352               	.LBB189:
 2353               	.LBB165:
 2354               	.LM359:
 2355 0b5e 2223      		tst r18
 2356 0b60 01F4      		brne .+2
 2357 0b62 00C0      		rjmp .L125
 2358               	.L151:
 2359               	.LM360:
 2360 0b64 8091 0000 		lds r24,UartTxSem
 2361 0b68 9091 0000 		lds r25,(UartTxSem)+1
 2362 0b6c 60E0      		ldi r22,lo8(0)
 2363 0b6e 70E0      		ldi r23,hi8(0)
 2364 0b70 4C2F      		mov r20,r28
 2365 0b72 5D2F      		mov r21,r29
 2366 0b74 4E5F      		subi r20,lo8(-(2))
 2367 0b76 5F4F      		sbci r21,hi8(-(2))
 2368 0b78 0E94 0000 		call OSSemPend
 2369 0b7c 2091 0000 		lds r18,UartTxCount
 2370 0b80 00C0      		rjmp .L125
 2371               	.L148:
 2372               	.LBE165:
 2373               	.LBE189:
 2374               	.LBB190:
 2375               	.LBB156:
 2376               	.LBB154:
 2377               	.LBB151:
 2378               	.LM361:
 2379 0b82 8091 0000 		lds r24,UartTxWrPtr
 2380 0b86 E82F      		mov r30,r24
 2381 0b88 F0E0      		ldi r31,lo8(0)
 2382 0b8a E050      		subi r30,lo8(-(UartTxBuf))
 2383 0b8c F040      		sbci r31,hi8(-(UartTxBuf))
 2384 0b8e 9DE6      		ldi r25,lo8(109)
 2385 0b90 9083      		st Z,r25
 2386               	.LM362:
 2387 0b92 8F5F      		subi r24,lo8(-(1))
 2388 0b94 8093 0000 		sts UartTxWrPtr,r24
 2389               	.LM363:
 2390 0b98 2F5F      		subi r18,lo8(-(1))
 2391 0b9a 2093 0000 		sts UartTxCount,r18
 2392               	.LM364:
 2393               	/* #APP */
GAS LISTING C:\DOCUME~1\KEUNSO~1\LOCALS~1\Temp/ccIyMOV1.s 			page 43


 2394               	 ;  217 "test.c" 1
 2395 0b9e 7894      		sei
 2396               	 ;  0 "" 2
 2397               	/* #NOAPP */
 2398               	.LBE151:
 2399               	.LBE154:
 2400               	.LBE156:
 2401               	.LBE190:
 2402               	.LBB191:
 2403               	.LBB161:
 2404               	.LM365:
 2405 0ba0 2223      		tst r18
 2406 0ba2 01F4      		brne .+2
 2407 0ba4 00C0      		rjmp .L122
 2408               	.L149:
 2409               	.LM366:
 2410 0ba6 8091 0000 		lds r24,UartTxSem
 2411 0baa 9091 0000 		lds r25,(UartTxSem)+1
 2412 0bae 60E0      		ldi r22,lo8(0)
 2413 0bb0 70E0      		ldi r23,hi8(0)
 2414 0bb2 4C2F      		mov r20,r28
 2415 0bb4 5D2F      		mov r21,r29
 2416 0bb6 4E5F      		subi r20,lo8(-(2))
 2417 0bb8 5F4F      		sbci r21,hi8(-(2))
 2418 0bba 0E94 0000 		call OSSemPend
 2419 0bbe 2091 0000 		lds r18,UartTxCount
 2420 0bc2 00C0      		rjmp .L122
 2421               	.LVL85:
 2422               	.L146:
 2423               	.LBE161:
 2424               	.LBE191:
 2425               	.LBB192:
 2426               	.LBB133:
 2427               	.LBB137:
 2428               	.LBB149:
 2429               	.LM367:
 2430 0bc4 8091 0000 		lds r24,UartTxWrPtr
 2431 0bc8 E82F      		mov r30,r24
 2432 0bca F0E0      		ldi r31,lo8(0)
 2433 0bcc E050      		subi r30,lo8(-(UartTxBuf))
 2434 0bce F040      		sbci r31,hi8(-(UartTxBuf))
 2435 0bd0 9BE3      		ldi r25,lo8(59)
 2436 0bd2 9083      		st Z,r25
 2437               	.LM368:
 2438 0bd4 8F5F      		subi r24,lo8(-(1))
 2439 0bd6 8093 0000 		sts UartTxWrPtr,r24
 2440               	.LM369:
 2441 0bda 2F5F      		subi r18,lo8(-(1))
 2442 0bdc 2093 0000 		sts UartTxCount,r18
 2443 0be0 00C0      		rjmp .L118
 2444               	.L145:
 2445               	.LM370:
 2446 0be2 8091 0000 		lds r24,UartTxSem
 2447 0be6 9091 0000 		lds r25,(UartTxSem)+1
 2448 0bea 60E0      		ldi r22,lo8(0)
 2449 0bec 70E0      		ldi r23,hi8(0)
 2450 0bee 4C2F      		mov r20,r28
GAS LISTING C:\DOCUME~1\KEUNSO~1\LOCALS~1\Temp/ccIyMOV1.s 			page 44


 2451 0bf0 5D2F      		mov r21,r29
 2452 0bf2 4E5F      		subi r20,lo8(-(2))
 2453 0bf4 5F4F      		sbci r21,hi8(-(2))
 2454 0bf6 0E94 0000 		call OSSemPend
 2455 0bfa 2091 0000 		lds r18,UartTxCount
 2456 0bfe 00C0      		rjmp .L116
 2457               	.LVL86:
 2458               	.L147:
 2459               	.LBE149:
 2460               	.LBE137:
 2461               	.LBB136:
 2462               	.LBB153:
 2463 0c00 8091 0000 		lds r24,UartTxSem
 2464 0c04 9091 0000 		lds r25,(UartTxSem)+1
 2465 0c08 60E0      		ldi r22,lo8(0)
 2466 0c0a 70E0      		ldi r23,hi8(0)
 2467 0c0c 4C2F      		mov r20,r28
 2468 0c0e 5D2F      		mov r21,r29
 2469 0c10 4E5F      		subi r20,lo8(-(2))
 2470 0c12 5F4F      		sbci r21,hi8(-(2))
 2471 0c14 0E94 0000 		call OSSemPend
 2472 0c18 2091 0000 		lds r18,UartTxCount
 2473 0c1c 00C0      		rjmp .L119
 2474               	.L153:
 2475               	.LBE153:
 2476               	.LBE136:
 2477               	.LBE133:
 2478               	.LBE192:
 2479               	.LBB193:
 2480               	.LBB169:
 2481 0c1e 8091 0000 		lds r24,UartTxSem
 2482 0c22 9091 0000 		lds r25,(UartTxSem)+1
 2483 0c26 60E0      		ldi r22,lo8(0)
 2484 0c28 70E0      		ldi r23,hi8(0)
 2485 0c2a 4C2F      		mov r20,r28
 2486 0c2c 5D2F      		mov r21,r29
 2487 0c2e 4E5F      		subi r20,lo8(-(2))
 2488 0c30 5F4F      		sbci r21,hi8(-(2))
 2489 0c32 0E94 0000 		call OSSemPend
 2490 0c36 2091 0000 		lds r18,UartTxCount
 2491 0c3a 00C0      		rjmp .L128
 2492               	.LVL87:
 2493               	.L141:
 2494               	.LBE169:
 2495               	.LBE193:
 2496               	.LBB194:
 2497               	.LBB157:
 2498               	.LBB155:
 2499               	.LBB143:
 2500 0c3c 8091 0000 		lds r24,UartTxSem
 2501 0c40 9091 0000 		lds r25,(UartTxSem)+1
 2502 0c44 60E0      		ldi r22,lo8(0)
 2503 0c46 70E0      		ldi r23,hi8(0)
 2504 0c48 4C2F      		mov r20,r28
 2505 0c4a 5D2F      		mov r21,r29
 2506 0c4c 4E5F      		subi r20,lo8(-(2))
 2507 0c4e 5F4F      		sbci r21,hi8(-(2))
GAS LISTING C:\DOCUME~1\KEUNSO~1\LOCALS~1\Temp/ccIyMOV1.s 			page 45


 2508 0c50 0E94 0000 		call OSSemPend
 2509 0c54 2091 0000 		lds r18,UartTxCount
 2510 0c58 00C0      		rjmp .L110
 2511               	.LVL88:
 2512               	.L155:
 2513               	.LBE143:
 2514               	.LBE155:
 2515               	.LBE157:
 2516               	.LBE194:
 2517               	.LBB195:
 2518               	.LBB173:
 2519 0c5a 8091 0000 		lds r24,UartTxSem
 2520 0c5e 9091 0000 		lds r25,(UartTxSem)+1
 2521 0c62 60E0      		ldi r22,lo8(0)
 2522 0c64 70E0      		ldi r23,hi8(0)
 2523 0c66 4C2F      		mov r20,r28
 2524 0c68 5D2F      		mov r21,r29
 2525 0c6a 4E5F      		subi r20,lo8(-(2))
 2526 0c6c 5F4F      		sbci r21,hi8(-(2))
 2527 0c6e 0E94 0000 		call OSSemPend
 2528 0c72 2091 0000 		lds r18,UartTxCount
 2529 0c76 00C0      		rjmp .L131
 2530               	.LBE173:
 2531               	.LBE195:
 2532               	.LFE15:
 2533               		.size	VT102DispStr, .-VT102DispStr
 2534               	.global	VT102DispChar
 2535               		.type	VT102DispChar, @function
 2536               	VT102DispChar:
 2537               	.LFB14:
 2538               	.LM371:
 2539               	.LVL89:
 2540 0c78 DF92      		push r13
 2541 0c7a EF92      		push r14
 2542 0c7c FF92      		push r15
 2543 0c7e 0F93      		push r16
 2544               	.LVL90:
 2545 0c80 1F93      		push r17
 2546 0c82 DF93      		push r29
 2547 0c84 CF93      		push r28
 2548 0c86 00D0      		rcall .
 2549 0c88 CDB7      		in r28,__SP_L__
 2550 0c8a DEB7      		in r29,__SP_H__
 2551               	/* prologue: function */
 2552               	/* frame size = 2 */
 2553 0c8c E82E      		mov r14,r24
 2554 0c8e F62E      		mov r15,r22
 2555 0c90 D42E      		mov r13,r20
 2556 0c92 122F      		mov r17,r18
 2557               	.LM372:
 2558 0c94 8091 0000 		lds r24,DispStrSem
 2559 0c98 9091 0000 		lds r25,(DispStrSem)+1
 2560               	.LVL91:
 2561 0c9c 60E0      		ldi r22,lo8(0)
 2562 0c9e 70E0      		ldi r23,hi8(0)
 2563               	.LVL92:
 2564 0ca0 4C2F      		mov r20,r28
GAS LISTING C:\DOCUME~1\KEUNSO~1\LOCALS~1\Temp/ccIyMOV1.s 			page 46


 2565 0ca2 5D2F      		mov r21,r29
 2566               	.LVL93:
 2567 0ca4 4F5F      		subi r20,lo8(-(1))
 2568 0ca6 5F4F      		sbci r21,hi8(-(1))
 2569 0ca8 0E94 0000 		call OSSemPend
 2570               	.LVL94:
 2571               	.LBB216:
 2572               	.LBB218:
 2573               	.LBB231:
 2574               	.LBB233:
 2575               	.LM373:
 2576 0cac 2091 0000 		lds r18,UartTxCount
 2577 0cb0 2223      		tst r18
 2578 0cb2 01F0      		breq .+2
 2579 0cb4 00C0      		rjmp .L187
 2580               	.L159:
 2581               	.LM374:
 2582               	/* #APP */
 2583               	 ;  207 "test.c" 1
 2584 0cb6 F894      		cli
 2585               	 ;  0 "" 2
 2586               	.LM375:
 2587               	/* #NOAPP */
 2588 0cb8 2223      		tst r18
 2589 0cba 01F0      		breq .+2
 2590 0cbc 00C0      		rjmp .L188
 2591               	.LM376:
 2592 0cbe 8BE1      		ldi r24,lo8(27)
 2593 0cc0 8CB9      		out 44-32,r24
 2594               	.LM377:
 2595 0cc2 81E0      		ldi r24,lo8(1)
 2596 0cc4 8093 0000 		sts UartTxCount,r24
 2597               	.LM378:
 2598 0cc8 569A      		sbi 42-32,6
 2599 0cca 282F      		mov r18,r24
 2600               	.LM379:
 2601               	/* #APP */
 2602               	 ;  217 "test.c" 1
 2603 0ccc 7894      		sei
 2604               	 ;  0 "" 2
 2605               	/* #NOAPP */
 2606               	.LBE233:
 2607               	.LBE231:
 2608               	.LBB228:
 2609               	.LBB229:
 2610               	.LM380:
 2611 0cce 2223      		tst r18
 2612 0cd0 01F0      		breq .+2
 2613 0cd2 00C0      		rjmp .L189
 2614               	.L162:
 2615               	.LM381:
 2616               	/* #APP */
 2617               	 ;  207 "test.c" 1
 2618 0cd4 F894      		cli
 2619               	 ;  0 "" 2
 2620               	.LM382:
 2621               	/* #NOAPP */
GAS LISTING C:\DOCUME~1\KEUNSO~1\LOCALS~1\Temp/ccIyMOV1.s 			page 47


 2622 0cd6 2223      		tst r18
 2623 0cd8 01F0      		breq .+2
 2624 0cda 00C0      		rjmp .L190
 2625               	.L163:
 2626               	.LM383:
 2627 0cdc 8BE5      		ldi r24,lo8(91)
 2628 0cde 8CB9      		out 44-32,r24
 2629               	.LM384:
 2630 0ce0 81E0      		ldi r24,lo8(1)
 2631 0ce2 8093 0000 		sts UartTxCount,r24
 2632               	.LM385:
 2633 0ce6 569A      		sbi 42-32,6
 2634               	.L164:
 2635               	.LM386:
 2636               	/* #APP */
 2637               	 ;  217 "test.c" 1
 2638 0ce8 7894      		sei
 2639               	 ;  0 "" 2
 2640               	/* #NOAPP */
 2641               	.LBE229:
 2642               	.LBE228:
 2643               	.LM387:
 2644 0cea 812F      		mov r24,r17
 2645 0cec 825E      		subi r24,lo8(-(30))
 2646 0cee 0E94 0000 		call PutDec
 2647               	.LBB224:
 2648               	.LBB226:
 2649               	.LM388:
 2650 0cf2 2091 0000 		lds r18,UartTxCount
 2651 0cf6 2223      		tst r18
 2652 0cf8 01F0      		breq .+2
 2653 0cfa 00C0      		rjmp .L191
 2654               	.L165:
 2655               	.LM389:
 2656               	/* #APP */
 2657               	 ;  207 "test.c" 1
 2658 0cfc F894      		cli
 2659               	 ;  0 "" 2
 2660               	.LM390:
 2661               	/* #NOAPP */
 2662 0cfe 2223      		tst r18
 2663 0d00 01F0      		breq .+2
 2664 0d02 00C0      		rjmp .L192
 2665               	.LM391:
 2666 0d04 8BE3      		ldi r24,lo8(59)
 2667 0d06 8CB9      		out 44-32,r24
 2668               	.LM392:
 2669 0d08 81E0      		ldi r24,lo8(1)
 2670 0d0a 8093 0000 		sts UartTxCount,r24
 2671               	.LM393:
 2672 0d0e 569A      		sbi 42-32,6
 2673               	.L167:
 2674               	.LM394:
 2675               	/* #APP */
 2676               	 ;  217 "test.c" 1
 2677 0d10 7894      		sei
 2678               	 ;  0 "" 2
GAS LISTING C:\DOCUME~1\KEUNSO~1\LOCALS~1\Temp/ccIyMOV1.s 			page 48


 2679               	/* #NOAPP */
 2680               	.LBE226:
 2681               	.LBE224:
 2682               	.LM395:
 2683 0d12 802F      		mov r24,r16
 2684               	.LVL95:
 2685 0d14 885D      		subi r24,lo8(-(40))
 2686 0d16 0E94 0000 		call PutDec
 2687               	.LBB220:
 2688               	.LBB222:
 2689               	.LM396:
 2690 0d1a 2091 0000 		lds r18,UartTxCount
 2691 0d1e 2223      		tst r18
 2692 0d20 01F0      		breq .+2
 2693 0d22 00C0      		rjmp .L193
 2694               	.L168:
 2695               	.LM397:
 2696               	/* #APP */
 2697               	 ;  207 "test.c" 1
 2698 0d24 F894      		cli
 2699               	 ;  0 "" 2
 2700               	.LM398:
 2701               	/* #NOAPP */
 2702 0d26 2223      		tst r18
 2703 0d28 01F0      		breq .+2
 2704 0d2a 00C0      		rjmp .L194
 2705               	.LM399:
 2706 0d2c 8DE6      		ldi r24,lo8(109)
 2707 0d2e 8CB9      		out 44-32,r24
 2708               	.LM400:
 2709 0d30 81E0      		ldi r24,lo8(1)
 2710 0d32 8093 0000 		sts UartTxCount,r24
 2711               	.LM401:
 2712 0d36 569A      		sbi 42-32,6
 2713 0d38 282F      		mov r18,r24
 2714               	.LM402:
 2715               	/* #APP */
 2716               	 ;  217 "test.c" 1
 2717 0d3a 7894      		sei
 2718               	 ;  0 "" 2
 2719               	/* #NOAPP */
 2720               	.LBE222:
 2721               	.LBE220:
 2722               	.LBE218:
 2723               	.LBE216:
 2724               	.LBB243:
 2725               	.LBB245:
 2726               	.LM403:
 2727 0d3c 2223      		tst r18
 2728 0d3e 01F0      		breq .+2
 2729 0d40 00C0      		rjmp .L195
 2730               	.L171:
 2731               	.LM404:
 2732               	/* #APP */
 2733               	 ;  207 "test.c" 1
 2734 0d42 F894      		cli
 2735               	 ;  0 "" 2
GAS LISTING C:\DOCUME~1\KEUNSO~1\LOCALS~1\Temp/ccIyMOV1.s 			page 49


 2736               	.LM405:
 2737               	/* #NOAPP */
 2738 0d44 2223      		tst r18
 2739 0d46 01F0      		breq .+2
 2740 0d48 00C0      		rjmp .L196
 2741               	.LM406:
 2742 0d4a 8BE1      		ldi r24,lo8(27)
 2743 0d4c 8CB9      		out 44-32,r24
 2744               	.LM407:
 2745 0d4e 81E0      		ldi r24,lo8(1)
 2746 0d50 8093 0000 		sts UartTxCount,r24
 2747               	.LM408:
 2748 0d54 569A      		sbi 42-32,6
 2749 0d56 282F      		mov r18,r24
 2750               	.LM409:
 2751               	/* #APP */
 2752               	 ;  217 "test.c" 1
 2753 0d58 7894      		sei
 2754               	 ;  0 "" 2
 2755               	/* #NOAPP */
 2756               	.LBE245:
 2757               	.LBE243:
 2758               	.LBB247:
 2759               	.LBB249:
 2760               	.LM410:
 2761 0d5a 2223      		tst r18
 2762 0d5c 01F0      		breq .+2
 2763 0d5e 00C0      		rjmp .L197
 2764               	.L174:
 2765               	.LM411:
 2766               	/* #APP */
 2767               	 ;  207 "test.c" 1
 2768 0d60 F894      		cli
 2769               	 ;  0 "" 2
 2770               	.LM412:
 2771               	/* #NOAPP */
 2772 0d62 2223      		tst r18
 2773 0d64 01F0      		breq .+2
 2774 0d66 00C0      		rjmp .L198
 2775               	.LM413:
 2776 0d68 8BE5      		ldi r24,lo8(91)
 2777 0d6a 8CB9      		out 44-32,r24
 2778               	.LM414:
 2779 0d6c 81E0      		ldi r24,lo8(1)
 2780 0d6e 8093 0000 		sts UartTxCount,r24
 2781               	.LM415:
 2782 0d72 569A      		sbi 42-32,6
 2783               	.L176:
 2784               	.LM416:
 2785               	/* #APP */
 2786               	 ;  217 "test.c" 1
 2787 0d74 7894      		sei
 2788               	 ;  0 "" 2
 2789               	/* #NOAPP */
 2790               	.LBE249:
 2791               	.LBE247:
 2792               	.LM417:
GAS LISTING C:\DOCUME~1\KEUNSO~1\LOCALS~1\Temp/ccIyMOV1.s 			page 50


 2793 0d76 8F2D      		mov r24,r15
 2794 0d78 0E94 0000 		call PutDec
 2795               	.LBB251:
 2796               	.LBB253:
 2797               	.LM418:
 2798 0d7c 2091 0000 		lds r18,UartTxCount
 2799 0d80 2223      		tst r18
 2800 0d82 01F0      		breq .+2
 2801 0d84 00C0      		rjmp .L199
 2802               	.L177:
 2803               	.LM419:
 2804               	/* #APP */
 2805               	 ;  207 "test.c" 1
 2806 0d86 F894      		cli
 2807               	 ;  0 "" 2
 2808               	.LM420:
 2809               	/* #NOAPP */
 2810 0d88 2223      		tst r18
 2811 0d8a 01F0      		breq .+2
 2812 0d8c 00C0      		rjmp .L200
 2813               	.LM421:
 2814 0d8e 8BE3      		ldi r24,lo8(59)
 2815 0d90 8CB9      		out 44-32,r24
 2816               	.LM422:
 2817 0d92 81E0      		ldi r24,lo8(1)
 2818 0d94 8093 0000 		sts UartTxCount,r24
 2819               	.LM423:
 2820 0d98 569A      		sbi 42-32,6
 2821               	.L179:
 2822               	.LM424:
 2823               	/* #APP */
 2824               	 ;  217 "test.c" 1
 2825 0d9a 7894      		sei
 2826               	 ;  0 "" 2
 2827               	/* #NOAPP */
 2828               	.LBE253:
 2829               	.LBE251:
 2830               	.LM425:
 2831 0d9c 8E2D      		mov r24,r14
 2832 0d9e 0E94 0000 		call PutDec
 2833               	.LBB255:
 2834               	.LBB257:
 2835               	.LM426:
 2836 0da2 2091 0000 		lds r18,UartTxCount
 2837 0da6 2223      		tst r18
 2838 0da8 01F0      		breq .+2
 2839 0daa 00C0      		rjmp .L201
 2840               	.L180:
 2841               	.LM427:
 2842               	/* #APP */
 2843               	 ;  207 "test.c" 1
 2844 0dac F894      		cli
 2845               	 ;  0 "" 2
 2846               	.LM428:
 2847               	/* #NOAPP */
 2848 0dae 2223      		tst r18
 2849 0db0 01F0      		breq .+2
GAS LISTING C:\DOCUME~1\KEUNSO~1\LOCALS~1\Temp/ccIyMOV1.s 			page 51


 2850 0db2 00C0      		rjmp .L202
 2851               	.LM429:
 2852 0db4 88E4      		ldi r24,lo8(72)
 2853 0db6 8CB9      		out 44-32,r24
 2854               	.LM430:
 2855 0db8 81E0      		ldi r24,lo8(1)
 2856 0dba 8093 0000 		sts UartTxCount,r24
 2857               	.LM431:
 2858 0dbe 569A      		sbi 42-32,6
 2859 0dc0 282F      		mov r18,r24
 2860               	.LM432:
 2861               	/* #APP */
 2862               	 ;  217 "test.c" 1
 2863 0dc2 7894      		sei
 2864               	 ;  0 "" 2
 2865               	/* #NOAPP */
 2866               	.LBE257:
 2867               	.LBE255:
 2868               	.LBB259:
 2869               	.LBB261:
 2870               	.LM433:
 2871 0dc4 2223      		tst r18
 2872 0dc6 01F0      		breq .+2
 2873 0dc8 00C0      		rjmp .L203
 2874               	.L183:
 2875               	.LM434:
 2876               	/* #APP */
 2877               	 ;  207 "test.c" 1
 2878 0dca F894      		cli
 2879               	 ;  0 "" 2
 2880               	.LM435:
 2881               	/* #NOAPP */
 2882 0dcc 2223      		tst r18
 2883 0dce 01F0      		breq .+2
 2884 0dd0 00C0      		rjmp .L204
 2885               	.LM436:
 2886 0dd2 DCB8      		out 44-32,r13
 2887               	.LM437:
 2888 0dd4 81E0      		ldi r24,lo8(1)
 2889 0dd6 8093 0000 		sts UartTxCount,r24
 2890               	.LM438:
 2891 0dda 569A      		sbi 42-32,6
 2892               	.L185:
 2893               	.LM439:
 2894               	/* #APP */
 2895               	 ;  217 "test.c" 1
 2896 0ddc 7894      		sei
 2897               	 ;  0 "" 2
 2898               	/* #NOAPP */
 2899               	.LBE261:
 2900               	.LBE259:
 2901               	.LM440:
 2902 0dde 8091 0000 		lds r24,DispStrSem
 2903 0de2 9091 0000 		lds r25,(DispStrSem)+1
 2904 0de6 0E94 0000 		call OSSemPost
 2905               	/* epilogue start */
 2906               	.LM441:
GAS LISTING C:\DOCUME~1\KEUNSO~1\LOCALS~1\Temp/ccIyMOV1.s 			page 52


 2907 0dea 0F90      		pop __tmp_reg__
 2908 0dec 0F90      		pop __tmp_reg__
 2909 0dee CF91      		pop r28
 2910 0df0 DF91      		pop r29
 2911 0df2 1F91      		pop r17
 2912               	.LVL96:
 2913 0df4 0F91      		pop r16
 2914               	.LVL97:
 2915 0df6 FF90      		pop r15
 2916               	.LVL98:
 2917 0df8 EF90      		pop r14
 2918               	.LVL99:
 2919 0dfa DF90      		pop r13
 2920               	.LVL100:
 2921 0dfc 0895      		ret
 2922               	.LVL101:
 2923               	.L188:
 2924               	.LBB263:
 2925               	.LBB241:
 2926               	.LBB235:
 2927               	.LBB232:
 2928               	.LM442:
 2929 0dfe 8091 0000 		lds r24,UartTxWrPtr
 2930 0e02 E82F      		mov r30,r24
 2931 0e04 F0E0      		ldi r31,lo8(0)
 2932 0e06 E050      		subi r30,lo8(-(UartTxBuf))
 2933 0e08 F040      		sbci r31,hi8(-(UartTxBuf))
 2934 0e0a 9BE1      		ldi r25,lo8(27)
 2935 0e0c 9083      		st Z,r25
 2936               	.LM443:
 2937 0e0e 8F5F      		subi r24,lo8(-(1))
 2938 0e10 8093 0000 		sts UartTxWrPtr,r24
 2939               	.LM444:
 2940 0e14 2F5F      		subi r18,lo8(-(1))
 2941 0e16 2093 0000 		sts UartTxCount,r18
 2942               	.LM445:
 2943               	/* #APP */
 2944               	 ;  217 "test.c" 1
 2945 0e1a 7894      		sei
 2946               	 ;  0 "" 2
 2947               	/* #NOAPP */
 2948               	.LBE232:
 2949               	.LBE235:
 2950               	.LBB236:
 2951               	.LBB230:
 2952               	.LM446:
 2953 0e1c 2223      		tst r18
 2954 0e1e 01F4      		brne .+2
 2955 0e20 00C0      		rjmp .L162
 2956               	.L189:
 2957               	.LM447:
 2958 0e22 8091 0000 		lds r24,UartTxSem
 2959 0e26 9091 0000 		lds r25,(UartTxSem)+1
 2960 0e2a 60E0      		ldi r22,lo8(0)
 2961 0e2c 70E0      		ldi r23,hi8(0)
 2962 0e2e 4C2F      		mov r20,r28
 2963 0e30 5D2F      		mov r21,r29
GAS LISTING C:\DOCUME~1\KEUNSO~1\LOCALS~1\Temp/ccIyMOV1.s 			page 53


 2964 0e32 4E5F      		subi r20,lo8(-(2))
 2965 0e34 5F4F      		sbci r21,hi8(-(2))
 2966 0e36 0E94 0000 		call OSSemPend
 2967 0e3a 2091 0000 		lds r18,UartTxCount
 2968               	.LM448:
 2969               	/* #APP */
 2970               	 ;  207 "test.c" 1
 2971 0e3e F894      		cli
 2972               	 ;  0 "" 2
 2973               	.LM449:
 2974               	/* #NOAPP */
 2975 0e40 2223      		tst r18
 2976 0e42 01F4      		brne .+2
 2977 0e44 00C0      		rjmp .L163
 2978               	.L190:
 2979               	.LM450:
 2980 0e46 8091 0000 		lds r24,UartTxWrPtr
 2981 0e4a E82F      		mov r30,r24
 2982 0e4c F0E0      		ldi r31,lo8(0)
 2983 0e4e E050      		subi r30,lo8(-(UartTxBuf))
 2984 0e50 F040      		sbci r31,hi8(-(UartTxBuf))
 2985 0e52 9BE5      		ldi r25,lo8(91)
 2986 0e54 9083      		st Z,r25
 2987               	.LM451:
 2988 0e56 8F5F      		subi r24,lo8(-(1))
 2989 0e58 8093 0000 		sts UartTxWrPtr,r24
 2990               	.LM452:
 2991 0e5c 2F5F      		subi r18,lo8(-(1))
 2992 0e5e 2093 0000 		sts UartTxCount,r18
 2993 0e62 00C0      		rjmp .L164
 2994               	.LVL102:
 2995               	.L204:
 2996               	.LBE230:
 2997               	.LBE236:
 2998               	.LBE241:
 2999               	.LBE263:
 3000               	.LBB264:
 3001               	.LBB260:
 3002               	.LM453:
 3003 0e64 8091 0000 		lds r24,UartTxWrPtr
 3004 0e68 E82F      		mov r30,r24
 3005 0e6a F0E0      		ldi r31,lo8(0)
 3006 0e6c E050      		subi r30,lo8(-(UartTxBuf))
 3007 0e6e F040      		sbci r31,hi8(-(UartTxBuf))
 3008 0e70 D082      		st Z,r13
 3009               	.LM454:
 3010 0e72 8F5F      		subi r24,lo8(-(1))
 3011 0e74 8093 0000 		sts UartTxWrPtr,r24
 3012               	.LM455:
 3013 0e78 2F5F      		subi r18,lo8(-(1))
 3014 0e7a 2093 0000 		sts UartTxCount,r18
 3015 0e7e 00C0      		rjmp .L185
 3016               	.L202:
 3017               	.LBE260:
 3018               	.LBE264:
 3019               	.LBB265:
 3020               	.LBB256:
GAS LISTING C:\DOCUME~1\KEUNSO~1\LOCALS~1\Temp/ccIyMOV1.s 			page 54


 3021               	.LM456:
 3022 0e80 8091 0000 		lds r24,UartTxWrPtr
 3023 0e84 E82F      		mov r30,r24
 3024 0e86 F0E0      		ldi r31,lo8(0)
 3025 0e88 E050      		subi r30,lo8(-(UartTxBuf))
 3026 0e8a F040      		sbci r31,hi8(-(UartTxBuf))
 3027 0e8c 98E4      		ldi r25,lo8(72)
 3028 0e8e 9083      		st Z,r25
 3029               	.LM457:
 3030 0e90 8F5F      		subi r24,lo8(-(1))
 3031 0e92 8093 0000 		sts UartTxWrPtr,r24
 3032               	.LM458:
 3033 0e96 2F5F      		subi r18,lo8(-(1))
 3034 0e98 2093 0000 		sts UartTxCount,r18
 3035               	.LM459:
 3036               	/* #APP */
 3037               	 ;  217 "test.c" 1
 3038 0e9c 7894      		sei
 3039               	 ;  0 "" 2
 3040               	/* #NOAPP */
 3041               	.LBE256:
 3042               	.LBE265:
 3043               	.LBB266:
 3044               	.LBB262:
 3045               	.LM460:
 3046 0e9e 2223      		tst r18
 3047 0ea0 01F4      		brne .+2
 3048 0ea2 00C0      		rjmp .L183
 3049               	.L203:
 3050               	.LM461:
 3051 0ea4 8091 0000 		lds r24,UartTxSem
 3052 0ea8 9091 0000 		lds r25,(UartTxSem)+1
 3053 0eac 60E0      		ldi r22,lo8(0)
 3054 0eae 70E0      		ldi r23,hi8(0)
 3055 0eb0 4C2F      		mov r20,r28
 3056 0eb2 5D2F      		mov r21,r29
 3057 0eb4 4E5F      		subi r20,lo8(-(2))
 3058 0eb6 5F4F      		sbci r21,hi8(-(2))
 3059 0eb8 0E94 0000 		call OSSemPend
 3060 0ebc 2091 0000 		lds r18,UartTxCount
 3061 0ec0 00C0      		rjmp .L183
 3062               	.L200:
 3063               	.LBE262:
 3064               	.LBE266:
 3065               	.LBB267:
 3066               	.LBB252:
 3067               	.LM462:
 3068 0ec2 8091 0000 		lds r24,UartTxWrPtr
 3069 0ec6 E82F      		mov r30,r24
 3070 0ec8 F0E0      		ldi r31,lo8(0)
 3071 0eca E050      		subi r30,lo8(-(UartTxBuf))
 3072 0ecc F040      		sbci r31,hi8(-(UartTxBuf))
 3073 0ece 9BE3      		ldi r25,lo8(59)
 3074 0ed0 9083      		st Z,r25
 3075               	.LM463:
 3076 0ed2 8F5F      		subi r24,lo8(-(1))
 3077 0ed4 8093 0000 		sts UartTxWrPtr,r24
GAS LISTING C:\DOCUME~1\KEUNSO~1\LOCALS~1\Temp/ccIyMOV1.s 			page 55


 3078               	.LM464:
 3079 0ed8 2F5F      		subi r18,lo8(-(1))
 3080 0eda 2093 0000 		sts UartTxCount,r18
 3081 0ede 00C0      		rjmp .L179
 3082               	.L198:
 3083               	.LBE252:
 3084               	.LBE267:
 3085               	.LBB268:
 3086               	.LBB248:
 3087               	.LM465:
 3088 0ee0 8091 0000 		lds r24,UartTxWrPtr
 3089 0ee4 E82F      		mov r30,r24
 3090 0ee6 F0E0      		ldi r31,lo8(0)
 3091 0ee8 E050      		subi r30,lo8(-(UartTxBuf))
 3092 0eea F040      		sbci r31,hi8(-(UartTxBuf))
 3093 0eec 9BE5      		ldi r25,lo8(91)
 3094 0eee 9083      		st Z,r25
 3095               	.LM466:
 3096 0ef0 8F5F      		subi r24,lo8(-(1))
 3097 0ef2 8093 0000 		sts UartTxWrPtr,r24
 3098               	.LM467:
 3099 0ef6 2F5F      		subi r18,lo8(-(1))
 3100 0ef8 2093 0000 		sts UartTxCount,r18
 3101 0efc 00C0      		rjmp .L176
 3102               	.L196:
 3103               	.LBE248:
 3104               	.LBE268:
 3105               	.LBB269:
 3106               	.LBB244:
 3107               	.LM468:
 3108 0efe 8091 0000 		lds r24,UartTxWrPtr
 3109 0f02 E82F      		mov r30,r24
 3110 0f04 F0E0      		ldi r31,lo8(0)
 3111 0f06 E050      		subi r30,lo8(-(UartTxBuf))
 3112 0f08 F040      		sbci r31,hi8(-(UartTxBuf))
 3113 0f0a 9BE1      		ldi r25,lo8(27)
 3114 0f0c 9083      		st Z,r25
 3115               	.LM469:
 3116 0f0e 8F5F      		subi r24,lo8(-(1))
 3117 0f10 8093 0000 		sts UartTxWrPtr,r24
 3118               	.LM470:
 3119 0f14 2F5F      		subi r18,lo8(-(1))
 3120 0f16 2093 0000 		sts UartTxCount,r18
 3121               	.LM471:
 3122               	/* #APP */
 3123               	 ;  217 "test.c" 1
 3124 0f1a 7894      		sei
 3125               	 ;  0 "" 2
 3126               	/* #NOAPP */
 3127               	.LBE244:
 3128               	.LBE269:
 3129               	.LBB270:
 3130               	.LBB250:
 3131               	.LM472:
 3132 0f1c 2223      		tst r18
 3133 0f1e 01F4      		brne .+2
 3134 0f20 00C0      		rjmp .L174
GAS LISTING C:\DOCUME~1\KEUNSO~1\LOCALS~1\Temp/ccIyMOV1.s 			page 56


 3135               	.L197:
 3136               	.LM473:
 3137 0f22 8091 0000 		lds r24,UartTxSem
 3138 0f26 9091 0000 		lds r25,(UartTxSem)+1
 3139 0f2a 60E0      		ldi r22,lo8(0)
 3140 0f2c 70E0      		ldi r23,hi8(0)
 3141 0f2e 4C2F      		mov r20,r28
 3142 0f30 5D2F      		mov r21,r29
 3143 0f32 4E5F      		subi r20,lo8(-(2))
 3144 0f34 5F4F      		sbci r21,hi8(-(2))
 3145 0f36 0E94 0000 		call OSSemPend
 3146 0f3a 2091 0000 		lds r18,UartTxCount
 3147 0f3e 00C0      		rjmp .L174
 3148               	.L194:
 3149               	.LBE250:
 3150               	.LBE270:
 3151               	.LBB271:
 3152               	.LBB217:
 3153               	.LBB219:
 3154               	.LBB221:
 3155               	.LM474:
 3156 0f40 8091 0000 		lds r24,UartTxWrPtr
 3157 0f44 E82F      		mov r30,r24
 3158 0f46 F0E0      		ldi r31,lo8(0)
 3159 0f48 E050      		subi r30,lo8(-(UartTxBuf))
 3160 0f4a F040      		sbci r31,hi8(-(UartTxBuf))
 3161 0f4c 9DE6      		ldi r25,lo8(109)
 3162 0f4e 9083      		st Z,r25
 3163               	.LM475:
 3164 0f50 8F5F      		subi r24,lo8(-(1))
 3165 0f52 8093 0000 		sts UartTxWrPtr,r24
 3166               	.LM476:
 3167 0f56 2F5F      		subi r18,lo8(-(1))
 3168 0f58 2093 0000 		sts UartTxCount,r18
 3169               	.LM477:
 3170               	/* #APP */
 3171               	 ;  217 "test.c" 1
 3172 0f5c 7894      		sei
 3173               	 ;  0 "" 2
 3174               	/* #NOAPP */
 3175               	.LBE221:
 3176               	.LBE219:
 3177               	.LBE217:
 3178               	.LBE271:
 3179               	.LBB272:
 3180               	.LBB246:
 3181               	.LM478:
 3182 0f5e 2223      		tst r18
 3183 0f60 01F4      		brne .+2
 3184 0f62 00C0      		rjmp .L171
 3185               	.L195:
 3186               	.LM479:
 3187 0f64 8091 0000 		lds r24,UartTxSem
 3188 0f68 9091 0000 		lds r25,(UartTxSem)+1
 3189 0f6c 60E0      		ldi r22,lo8(0)
 3190 0f6e 70E0      		ldi r23,hi8(0)
 3191 0f70 4C2F      		mov r20,r28
GAS LISTING C:\DOCUME~1\KEUNSO~1\LOCALS~1\Temp/ccIyMOV1.s 			page 57


 3192 0f72 5D2F      		mov r21,r29
 3193 0f74 4E5F      		subi r20,lo8(-(2))
 3194 0f76 5F4F      		sbci r21,hi8(-(2))
 3195 0f78 0E94 0000 		call OSSemPend
 3196 0f7c 2091 0000 		lds r18,UartTxCount
 3197 0f80 00C0      		rjmp .L171
 3198               	.LVL103:
 3199               	.L192:
 3200               	.LBE246:
 3201               	.LBE272:
 3202               	.LBB273:
 3203               	.LBB242:
 3204               	.LBB237:
 3205               	.LBB225:
 3206               	.LM480:
 3207 0f82 8091 0000 		lds r24,UartTxWrPtr
 3208 0f86 E82F      		mov r30,r24
 3209 0f88 F0E0      		ldi r31,lo8(0)
 3210 0f8a E050      		subi r30,lo8(-(UartTxBuf))
 3211 0f8c F040      		sbci r31,hi8(-(UartTxBuf))
 3212 0f8e 9BE3      		ldi r25,lo8(59)
 3213 0f90 9083      		st Z,r25
 3214               	.LM481:
 3215 0f92 8F5F      		subi r24,lo8(-(1))
 3216 0f94 8093 0000 		sts UartTxWrPtr,r24
 3217               	.LM482:
 3218 0f98 2F5F      		subi r18,lo8(-(1))
 3219 0f9a 2093 0000 		sts UartTxCount,r18
 3220 0f9e 00C0      		rjmp .L167
 3221               	.LVL104:
 3222               	.L193:
 3223               	.LBE225:
 3224               	.LBE237:
 3225               	.LBB238:
 3226               	.LBB223:
 3227               	.LM483:
 3228 0fa0 8091 0000 		lds r24,UartTxSem
 3229 0fa4 9091 0000 		lds r25,(UartTxSem)+1
 3230 0fa8 60E0      		ldi r22,lo8(0)
 3231 0faa 70E0      		ldi r23,hi8(0)
 3232 0fac 4C2F      		mov r20,r28
 3233 0fae 5D2F      		mov r21,r29
 3234 0fb0 4E5F      		subi r20,lo8(-(2))
 3235 0fb2 5F4F      		sbci r21,hi8(-(2))
 3236 0fb4 0E94 0000 		call OSSemPend
 3237 0fb8 2091 0000 		lds r18,UartTxCount
 3238 0fbc 00C0      		rjmp .L168
 3239               	.LVL105:
 3240               	.L191:
 3241               	.LBE223:
 3242               	.LBE238:
 3243               	.LBB239:
 3244               	.LBB227:
 3245 0fbe 8091 0000 		lds r24,UartTxSem
 3246 0fc2 9091 0000 		lds r25,(UartTxSem)+1
 3247 0fc6 60E0      		ldi r22,lo8(0)
 3248 0fc8 70E0      		ldi r23,hi8(0)
GAS LISTING C:\DOCUME~1\KEUNSO~1\LOCALS~1\Temp/ccIyMOV1.s 			page 58


 3249 0fca 4C2F      		mov r20,r28
 3250 0fcc 5D2F      		mov r21,r29
 3251 0fce 4E5F      		subi r20,lo8(-(2))
 3252 0fd0 5F4F      		sbci r21,hi8(-(2))
 3253 0fd2 0E94 0000 		call OSSemPend
 3254 0fd6 2091 0000 		lds r18,UartTxCount
 3255 0fda 00C0      		rjmp .L165
 3256               	.L187:
 3257               	.LBE227:
 3258               	.LBE239:
 3259               	.LBB240:
 3260               	.LBB234:
 3261 0fdc 8091 0000 		lds r24,UartTxSem
 3262 0fe0 9091 0000 		lds r25,(UartTxSem)+1
 3263 0fe4 60E0      		ldi r22,lo8(0)
 3264 0fe6 70E0      		ldi r23,hi8(0)
 3265 0fe8 4C2F      		mov r20,r28
 3266 0fea 5D2F      		mov r21,r29
 3267 0fec 4E5F      		subi r20,lo8(-(2))
 3268 0fee 5F4F      		sbci r21,hi8(-(2))
 3269 0ff0 0E94 0000 		call OSSemPend
 3270 0ff4 2091 0000 		lds r18,UartTxCount
 3271 0ff8 00C0      		rjmp .L159
 3272               	.LVL106:
 3273               	.L201:
 3274               	.LBE234:
 3275               	.LBE240:
 3276               	.LBE242:
 3277               	.LBE273:
 3278               	.LBB274:
 3279               	.LBB258:
 3280 0ffa 8091 0000 		lds r24,UartTxSem
 3281 0ffe 9091 0000 		lds r25,(UartTxSem)+1
 3282 1002 60E0      		ldi r22,lo8(0)
 3283 1004 70E0      		ldi r23,hi8(0)
 3284 1006 4C2F      		mov r20,r28
 3285 1008 5D2F      		mov r21,r29
 3286 100a 4E5F      		subi r20,lo8(-(2))
 3287 100c 5F4F      		sbci r21,hi8(-(2))
 3288 100e 0E94 0000 		call OSSemPend
 3289 1012 2091 0000 		lds r18,UartTxCount
 3290 1016 00C0      		rjmp .L180
 3291               	.L199:
 3292               	.LBE258:
 3293               	.LBE274:
 3294               	.LBB275:
 3295               	.LBB254:
 3296 1018 8091 0000 		lds r24,UartTxSem
 3297 101c 9091 0000 		lds r25,(UartTxSem)+1
 3298 1020 60E0      		ldi r22,lo8(0)
 3299 1022 70E0      		ldi r23,hi8(0)
 3300 1024 4C2F      		mov r20,r28
 3301 1026 5D2F      		mov r21,r29
 3302 1028 4E5F      		subi r20,lo8(-(2))
 3303 102a 5F4F      		sbci r21,hi8(-(2))
 3304 102c 0E94 0000 		call OSSemPend
 3305 1030 2091 0000 		lds r18,UartTxCount
GAS LISTING C:\DOCUME~1\KEUNSO~1\LOCALS~1\Temp/ccIyMOV1.s 			page 59


 3306 1034 00C0      		rjmp .L177
 3307               	.LBE254:
 3308               	.LBE275:
 3309               	.LFE14:
 3310               		.size	VT102DispChar, .-VT102DispChar
 3311               	.global	Task
 3312               		.type	Task, @function
 3313               	Task:
 3314               	.LFB4:
 3315               	.LM484:
 3316               	.LVL107:
 3317 1036 2F92      		push r2
 3318 1038 3F92      		push r3
 3319 103a 4F92      		push r4
 3320 103c 5F92      		push r5
 3321 103e 6F92      		push r6
 3322 1040 7F92      		push r7
 3323 1042 8F92      		push r8
 3324 1044 9F92      		push r9
 3325 1046 AF92      		push r10
 3326 1048 BF92      		push r11
 3327 104a CF92      		push r12
 3328 104c DF92      		push r13
 3329 104e EF92      		push r14
 3330 1050 FF92      		push r15
 3331 1052 0F93      		push r16
 3332 1054 1F93      		push r17
 3333 1056 DF93      		push r29
 3334 1058 CF93      		push r28
 3335 105a 00D0      		rcall .
 3336 105c 00D0      		rcall .
 3337 105e 0F92      		push __tmp_reg__
 3338 1060 CDB7      		in r28,__SP_L__
 3339 1062 DEB7      		in r29,__SP_H__
 3340               	/* prologue: function */
 3341               	/* frame size = 5 */
 3342 1064 9D83      		std Y+5,r25
 3343 1066 8C83      		std Y+4,r24
 3344 1068 13E0      		ldi r17,lo8(3)
 3345 106a 812E      		mov r8,r17
 3346 106c 912C      		mov r9,__zero_reg__
 3347 106e 8C0E      		add r8,r28
 3348 1070 9D1E      		adc r9,r29
 3349               	.LBB302:
 3350               	.LBB303:
 3351               	.LBB324:
 3352               	.LBB326:
 3353               	.LBB346:
 3354               	.LBB348:
 3355               	.LM485:
 3356 1072 BBE1      		ldi r27,lo8(27)
 3357 1074 3B2E      		mov r3,r27
 3358               	.LM486:
 3359 1076 7724      		clr r7
 3360 1078 7394      		inc r7
 3361               	.LBE348:
 3362               	.LBE346:
GAS LISTING C:\DOCUME~1\KEUNSO~1\LOCALS~1\Temp/ccIyMOV1.s 			page 60


 3363               	.LBB342:
 3364               	.LBB344:
 3365               	.LM487:
 3366 107a ABE5      		ldi r26,lo8(91)
 3367 107c 5A2E      		mov r5,r26
 3368               	.LBE344:
 3369               	.LBE342:
 3370               	.LBB337:
 3371               	.LBB339:
 3372 107e FBE3      		ldi r31,lo8(59)
 3373 1080 4F2E      		mov r4,r31
 3374               	.LBE339:
 3375               	.LBE337:
 3376               	.LBB332:
 3377               	.LBB334:
 3378 1082 EDE6      		ldi r30,lo8(109)
 3379 1084 2E2E      		mov r2,r30
 3380 1086 00C0      		rjmp .L233
 3381               	.LVL108:
 3382               	.L207:
 3383               	.LBE334:
 3384               	.LBE332:
 3385               	.LBB331:
 3386               	.LBB349:
 3387 1088 3CB8      		out 44-32,r3
 3388               	.LM488:
 3389 108a 7092 0000 		sts UartTxCount,r7
 3390               	.LM489:
 3391 108e 569A      		sbi 42-32,6
 3392 1090 972D      		mov r25,r7
 3393               	.LM490:
 3394               	/* #APP */
 3395               	 ;  217 "test.c" 1
 3396 1092 7894      		sei
 3397               	 ;  0 "" 2
 3398               	/* #NOAPP */
 3399               	.LBE349:
 3400               	.LBE331:
 3401               	.LBB330:
 3402               	.LBB343:
 3403               	.LM491:
 3404 1094 9923      		tst r25
 3405 1096 01F0      		breq .+2
 3406 1098 00C0      		rjmp .L235
 3407               	.L209:
 3408               	.LM492:
 3409               	/* #APP */
 3410               	 ;  207 "test.c" 1
 3411 109a F894      		cli
 3412               	 ;  0 "" 2
 3413               	.LM493:
 3414               	/* #NOAPP */
 3415 109c 9923      		tst r25
 3416 109e 01F0      		breq .+2
 3417 10a0 00C0      		rjmp .L236
 3418               	.L210:
 3419               	.LM494:
GAS LISTING C:\DOCUME~1\KEUNSO~1\LOCALS~1\Temp/ccIyMOV1.s 			page 61


 3420 10a2 5CB8      		out 44-32,r5
 3421               	.LM495:
 3422 10a4 7092 0000 		sts UartTxCount,r7
 3423               	.LM496:
 3424 10a8 569A      		sbi 42-32,6
 3425               	.L211:
 3426               	.LM497:
 3427               	/* #APP */
 3428               	 ;  217 "test.c" 1
 3429 10aa 7894      		sei
 3430               	 ;  0 "" 2
 3431               	/* #NOAPP */
 3432               	.LBE343:
 3433               	.LBE330:
 3434               	.LM498:
 3435 10ac 85E2      		ldi r24,lo8(37)
 3436 10ae 0E94 0000 		call PutDec
 3437               	.LBB329:
 3438               	.LBB340:
 3439               	.LM499:
 3440 10b2 9091 0000 		lds r25,UartTxCount
 3441 10b6 9923      		tst r25
 3442 10b8 01F0      		breq .+2
 3443 10ba 00C0      		rjmp .L237
 3444               	.L212:
 3445               	.LM500:
 3446               	/* #APP */
 3447               	 ;  207 "test.c" 1
 3448 10bc F894      		cli
 3449               	 ;  0 "" 2
 3450               	.LM501:
 3451               	/* #NOAPP */
 3452 10be 9923      		tst r25
 3453 10c0 01F0      		breq .+2
 3454 10c2 00C0      		rjmp .L238
 3455               	.LM502:
 3456 10c4 4CB8      		out 44-32,r4
 3457               	.LM503:
 3458 10c6 7092 0000 		sts UartTxCount,r7
 3459               	.LM504:
 3460 10ca 569A      		sbi 42-32,6
 3461               	.L214:
 3462               	.LM505:
 3463               	/* #APP */
 3464               	 ;  217 "test.c" 1
 3465 10cc 7894      		sei
 3466               	 ;  0 "" 2
 3467               	/* #NOAPP */
 3468               	.LBE340:
 3469               	.LBE329:
 3470               	.LM506:
 3471 10ce 88E2      		ldi r24,lo8(40)
 3472 10d0 0E94 0000 		call PutDec
 3473               	.LBB328:
 3474               	.LBB335:
 3475               	.LM507:
 3476 10d4 9091 0000 		lds r25,UartTxCount
GAS LISTING C:\DOCUME~1\KEUNSO~1\LOCALS~1\Temp/ccIyMOV1.s 			page 62


 3477 10d8 9923      		tst r25
 3478 10da 01F0      		breq .+2
 3479 10dc 00C0      		rjmp .L239
 3480               	.L215:
 3481               	.LM508:
 3482               	/* #APP */
 3483               	 ;  207 "test.c" 1
 3484 10de F894      		cli
 3485               	 ;  0 "" 2
 3486               	.LM509:
 3487               	/* #NOAPP */
 3488 10e0 9923      		tst r25
 3489 10e2 01F0      		breq .+2
 3490 10e4 00C0      		rjmp .L240
 3491               	.LM510:
 3492 10e6 2CB8      		out 44-32,r2
 3493               	.LM511:
 3494 10e8 7092 0000 		sts UartTxCount,r7
 3495               	.LM512:
 3496 10ec 569A      		sbi 42-32,6
 3497 10ee 972D      		mov r25,r7
 3498               	.LM513:
 3499               	/* #APP */
 3500               	 ;  217 "test.c" 1
 3501 10f0 7894      		sei
 3502               	 ;  0 "" 2
 3503               	/* #NOAPP */
 3504               	.LBE335:
 3505               	.LBE328:
 3506               	.LBE326:
 3507               	.LBE324:
 3508               	.LBB320:
 3509               	.LBB322:
 3510               	.LM514:
 3511 10f2 9923      		tst r25
 3512 10f4 01F0      		breq .+2
 3513 10f6 00C0      		rjmp .L241
 3514               	.L218:
 3515               	.LM515:
 3516               	/* #APP */
 3517               	 ;  207 "test.c" 1
 3518 10f8 F894      		cli
 3519               	 ;  0 "" 2
 3520               	.LM516:
 3521               	/* #NOAPP */
 3522 10fa 9923      		tst r25
 3523 10fc 01F0      		breq .+2
 3524 10fe 00C0      		rjmp .L242
 3525               	.LM517:
 3526 1100 3CB8      		out 44-32,r3
 3527               	.LM518:
 3528 1102 7092 0000 		sts UartTxCount,r7
 3529               	.LM519:
 3530 1106 569A      		sbi 42-32,6
 3531 1108 972D      		mov r25,r7
 3532               	.LM520:
 3533               	/* #APP */
GAS LISTING C:\DOCUME~1\KEUNSO~1\LOCALS~1\Temp/ccIyMOV1.s 			page 63


 3534               	 ;  217 "test.c" 1
 3535 110a 7894      		sei
 3536               	 ;  0 "" 2
 3537               	/* #NOAPP */
 3538               	.LBE322:
 3539               	.LBE320:
 3540               	.LBB316:
 3541               	.LBB318:
 3542               	.LM521:
 3543 110c 9923      		tst r25
 3544 110e 01F0      		breq .+2
 3545 1110 00C0      		rjmp .L243
 3546               	.L221:
 3547               	.LM522:
 3548               	/* #APP */
 3549               	 ;  207 "test.c" 1
 3550 1112 F894      		cli
 3551               	 ;  0 "" 2
 3552               	.LM523:
 3553               	/* #NOAPP */
 3554 1114 9923      		tst r25
 3555 1116 01F0      		breq .+2
 3556 1118 00C0      		rjmp .L244
 3557               	.LM524:
 3558 111a 5CB8      		out 44-32,r5
 3559               	.LM525:
 3560 111c 7092 0000 		sts UartTxCount,r7
 3561               	.LM526:
 3562 1120 569A      		sbi 42-32,6
 3563               	.L223:
 3564               	.LM527:
 3565               	/* #APP */
 3566               	 ;  217 "test.c" 1
 3567 1122 7894      		sei
 3568               	 ;  0 "" 2
 3569               	/* #NOAPP */
 3570               	.LBE318:
 3571               	.LBE316:
 3572               	.LM528:
 3573 1124 BB27      		clr r27
 3574 1126 A12F      		mov r26,r17
 3575 1128 902F      		mov r25,r16
 3576 112a 8F2D      		mov r24,r15
 3577 112c 8F70      		andi r24,lo8(15)
 3578 112e 8A5F      		subi r24,lo8(-(6))
 3579 1130 0E94 0000 		call PutDec
 3580               	.LBB312:
 3581               	.LBB314:
 3582               	.LM529:
 3583 1134 9091 0000 		lds r25,UartTxCount
 3584 1138 9923      		tst r25
 3585 113a 01F0      		breq .+2
 3586 113c 00C0      		rjmp .L245
 3587               	.L224:
 3588               	.LM530:
 3589               	/* #APP */
 3590               	 ;  207 "test.c" 1
GAS LISTING C:\DOCUME~1\KEUNSO~1\LOCALS~1\Temp/ccIyMOV1.s 			page 64


 3591 113e F894      		cli
 3592               	 ;  0 "" 2
 3593               	.LM531:
 3594               	/* #NOAPP */
 3595 1140 9923      		tst r25
 3596 1142 01F0      		breq .+2
 3597 1144 00C0      		rjmp .L246
 3598               	.LM532:
 3599 1146 4CB8      		out 44-32,r4
 3600               	.LM533:
 3601 1148 7092 0000 		sts UartTxCount,r7
 3602               	.LM534:
 3603 114c 569A      		sbi 42-32,6
 3604               	.L226:
 3605               	.LM535:
 3606               	/* #APP */
 3607               	 ;  217 "test.c" 1
 3608 114e 7894      		sei
 3609               	 ;  0 "" 2
 3610               	/* #NOAPP */
 3611               	.LBE314:
 3612               	.LBE312:
 3613               	.LM536:
 3614 1150 BB27      		clr r27
 3615 1152 AD2D      		mov r26,r13
 3616 1154 9C2D      		mov r25,r12
 3617 1156 8B2D      		mov r24,r11
 3618 1158 90E0      		ldi r25,lo8(0)
 3619 115a 61E5      		ldi r22,lo8(81)
 3620 115c 70E0      		ldi r23,hi8(81)
 3621 115e 0E94 0000 		call __divmodhi4
 3622 1162 8F5F      		subi r24,lo8(-(1))
 3623 1164 0E94 0000 		call PutDec
 3624               	.LBB308:
 3625               	.LBB310:
 3626               	.LM537:
 3627 1168 9091 0000 		lds r25,UartTxCount
 3628 116c 9923      		tst r25
 3629 116e 01F0      		breq .+2
 3630 1170 00C0      		rjmp .L247
 3631               	.L227:
 3632               	.LM538:
 3633               	/* #APP */
 3634               	 ;  207 "test.c" 1
 3635 1172 F894      		cli
 3636               	 ;  0 "" 2
 3637               	.LM539:
 3638               	/* #NOAPP */
 3639 1174 9923      		tst r25
 3640 1176 01F0      		breq .+2
 3641 1178 00C0      		rjmp .L248
 3642               	.LM540:
 3643 117a E8E4      		ldi r30,lo8(72)
 3644 117c ECB9      		out 44-32,r30
 3645               	.LM541:
 3646 117e 7092 0000 		sts UartTxCount,r7
 3647               	.LM542:
GAS LISTING C:\DOCUME~1\KEUNSO~1\LOCALS~1\Temp/ccIyMOV1.s 			page 65


 3648 1182 569A      		sbi 42-32,6
 3649 1184 972D      		mov r25,r7
 3650               	.LM543:
 3651               	/* #APP */
 3652               	 ;  217 "test.c" 1
 3653 1186 7894      		sei
 3654               	 ;  0 "" 2
 3655               	/* #NOAPP */
 3656               	.LBE310:
 3657               	.LBE308:
 3658               	.LBB304:
 3659               	.LBB306:
 3660               	.LM544:
 3661 1188 9923      		tst r25
 3662 118a 01F0      		breq .+2
 3663 118c 00C0      		rjmp .L249
 3664               	.L230:
 3665               	.LM545:
 3666               	/* #APP */
 3667               	 ;  207 "test.c" 1
 3668 118e F894      		cli
 3669               	 ;  0 "" 2
 3670               	.LM546:
 3671               	/* #NOAPP */
 3672 1190 9923      		tst r25
 3673 1192 01F0      		breq .+2
 3674 1194 00C0      		rjmp .L250
 3675               	.LM547:
 3676 1196 6CB8      		out 44-32,r6
 3677               	.LM548:
 3678 1198 7092 0000 		sts UartTxCount,r7
 3679               	.LM549:
 3680 119c 569A      		sbi 42-32,6
 3681               	.L232:
 3682               	.LM550:
 3683               	/* #APP */
 3684               	 ;  217 "test.c" 1
 3685 119e 7894      		sei
 3686               	 ;  0 "" 2
 3687               	/* #NOAPP */
 3688               	.LBE306:
 3689               	.LBE304:
 3690               	.LM551:
 3691 11a0 8091 0000 		lds r24,DispStrSem
 3692 11a4 9091 0000 		lds r25,(DispStrSem)+1
 3693 11a8 0E94 0000 		call OSSemPost
 3694               	.LBE303:
 3695               	.LBE302:
 3696               	.LM552:
 3697 11ac 83E0      		ldi r24,lo8(3)
 3698 11ae 90E0      		ldi r25,hi8(3)
 3699 11b0 0E94 0000 		call OSTimeDly
 3700               	.LVL109:
 3701               	.L233:
 3702               	.LM553:
 3703 11b4 8091 0000 		lds r24,RandomSem
 3704 11b8 9091 0000 		lds r25,(RandomSem)+1
GAS LISTING C:\DOCUME~1\KEUNSO~1\LOCALS~1\Temp/ccIyMOV1.s 			page 66


 3705 11bc 60E0      		ldi r22,lo8(0)
 3706 11be 70E0      		ldi r23,hi8(0)
 3707 11c0 4C2F      		mov r20,r28
 3708 11c2 5D2F      		mov r21,r29
 3709 11c4 4F5F      		subi r20,lo8(-(1))
 3710 11c6 5F4F      		sbci r21,hi8(-(1))
 3711 11c8 0E94 0000 		call OSSemPend
 3712               	.LBB373:
 3713               	.LBB374:
 3714               	.LM554:
 3715 11cc 6091 0000 		lds r22,RndNext
 3716 11d0 7091 0000 		lds r23,(RndNext)+1
 3717 11d4 8091 0000 		lds r24,(RndNext)+2
 3718 11d8 9091 0000 		lds r25,(RndNext)+3
 3719 11dc 2DE6      		ldi r18,lo8(1103515245)
 3720 11de 3EE4      		ldi r19,hi8(1103515245)
 3721 11e0 46EC      		ldi r20,hlo8(1103515245)
 3722 11e2 51E4      		ldi r21,hhi8(1103515245)
 3723 11e4 0E94 0000 		call __mulsi3
 3724 11e8 A62E      		mov r10,r22
 3725 11ea B72E      		mov r11,r23
 3726 11ec C82E      		mov r12,r24
 3727 11ee D92E      		mov r13,r25
 3728 11f0 89E3      		ldi r24,lo8(12345)
 3729 11f2 90E3      		ldi r25,hi8(12345)
 3730 11f4 A0E0      		ldi r26,hlo8(12345)
 3731 11f6 B0E0      		ldi r27,hhi8(12345)
 3732 11f8 A80E      		add r10,r24
 3733 11fa B91E      		adc r11,r25
 3734 11fc CA1E      		adc r12,r26
 3735 11fe DB1E      		adc r13,r27
 3736               	.LBE374:
 3737               	.LBE373:
 3738               	.LBB375:
 3739               	.LBB376:
 3740 1200 9D2D      		mov r25,r13
 3741 1202 8C2D      		mov r24,r12
 3742 1204 7B2D      		mov r23,r11
 3743 1206 6A2D      		mov r22,r10
 3744 1208 2DE6      		ldi r18,lo8(1103515245)
 3745 120a 3EE4      		ldi r19,hi8(1103515245)
 3746 120c 46EC      		ldi r20,hlo8(1103515245)
 3747 120e 51E4      		ldi r21,hhi8(1103515245)
 3748 1210 0E94 0000 		call __mulsi3
 3749 1214 E62E      		mov r14,r22
 3750 1216 F72E      		mov r15,r23
 3751 1218 082F      		mov r16,r24
 3752 121a 192F      		mov r17,r25
 3753 121c 89E3      		ldi r24,lo8(12345)
 3754 121e 90E3      		ldi r25,hi8(12345)
 3755 1220 A0E0      		ldi r26,hlo8(12345)
 3756 1222 B0E0      		ldi r27,hhi8(12345)
 3757 1224 E80E      		add r14,r24
 3758 1226 F91E      		adc r15,r25
 3759 1228 0A1F      		adc r16,r26
 3760 122a 1B1F      		adc r17,r27
 3761 122c E092 0000 		sts RndNext,r14
GAS LISTING C:\DOCUME~1\KEUNSO~1\LOCALS~1\Temp/ccIyMOV1.s 			page 67


 3762 1230 F092 0000 		sts (RndNext)+1,r15
 3763 1234 0093 0000 		sts (RndNext)+2,r16
 3764 1238 1093 0000 		sts (RndNext)+3,r17
 3765               	.LBE376:
 3766               	.LBE375:
 3767               	.LM555:
 3768 123c 8091 0000 		lds r24,RandomSem
 3769 1240 9091 0000 		lds r25,(RandomSem)+1
 3770 1244 0E94 0000 		call OSSemPost
 3771               	.LM556:
 3772 1248 AC81      		ldd r26,Y+4
 3773 124a BD81      		ldd r27,Y+5
 3774 124c 6C90      		ld r6,X
 3775               	.LBB377:
 3776               	.LBB372:
 3777               	.LM557:
 3778 124e 8091 0000 		lds r24,DispStrSem
 3779 1252 9091 0000 		lds r25,(DispStrSem)+1
 3780 1256 60E0      		ldi r22,lo8(0)
 3781 1258 70E0      		ldi r23,hi8(0)
 3782 125a 4C2F      		mov r20,r28
 3783 125c 5D2F      		mov r21,r29
 3784 125e 4E5F      		subi r20,lo8(-(2))
 3785 1260 5F4F      		sbci r21,hi8(-(2))
 3786 1262 0E94 0000 		call OSSemPend
 3787               	.LBB359:
 3788               	.LBB357:
 3789               	.LBB351:
 3790               	.LBB347:
 3791               	.LM558:
 3792 1266 9091 0000 		lds r25,UartTxCount
 3793 126a 9923      		tst r25
 3794 126c 01F0      		breq .+2
 3795 126e 00C0      		rjmp .L251
 3796               	.L206:
 3797               	.LM559:
 3798               	/* #APP */
 3799               	 ;  207 "test.c" 1
 3800 1270 F894      		cli
 3801               	 ;  0 "" 2
 3802               	.LM560:
 3803               	/* #NOAPP */
 3804 1272 9923      		tst r25
 3805 1274 01F4      		brne .+2
 3806 1276 00C0      		rjmp .L207
 3807               	.LM561:
 3808 1278 8091 0000 		lds r24,UartTxWrPtr
 3809 127c E82F      		mov r30,r24
 3810 127e F0E0      		ldi r31,lo8(0)
 3811 1280 E050      		subi r30,lo8(-(UartTxBuf))
 3812 1282 F040      		sbci r31,hi8(-(UartTxBuf))
 3813 1284 3082      		st Z,r3
 3814               	.LM562:
 3815 1286 8F5F      		subi r24,lo8(-(1))
 3816 1288 8093 0000 		sts UartTxWrPtr,r24
 3817               	.LM563:
 3818 128c 9F5F      		subi r25,lo8(-(1))
GAS LISTING C:\DOCUME~1\KEUNSO~1\LOCALS~1\Temp/ccIyMOV1.s 			page 68


 3819 128e 9093 0000 		sts UartTxCount,r25
 3820               	.LM564:
 3821               	/* #APP */
 3822               	 ;  217 "test.c" 1
 3823 1292 7894      		sei
 3824               	 ;  0 "" 2
 3825               	/* #NOAPP */
 3826               	.LBE347:
 3827               	.LBE351:
 3828               	.LBB352:
 3829               	.LBB345:
 3830               	.LM565:
 3831 1294 9923      		tst r25
 3832 1296 01F4      		brne .+2
 3833 1298 00C0      		rjmp .L209
 3834               	.L235:
 3835               	.LM566:
 3836 129a 8091 0000 		lds r24,UartTxSem
 3837 129e 9091 0000 		lds r25,(UartTxSem)+1
 3838 12a2 60E0      		ldi r22,lo8(0)
 3839 12a4 70E0      		ldi r23,hi8(0)
 3840 12a6 482D      		mov r20,r8
 3841 12a8 592D      		mov r21,r9
 3842 12aa 0E94 0000 		call OSSemPend
 3843 12ae 9091 0000 		lds r25,UartTxCount
 3844               	.LM567:
 3845               	/* #APP */
 3846               	 ;  207 "test.c" 1
 3847 12b2 F894      		cli
 3848               	 ;  0 "" 2
 3849               	.LM568:
 3850               	/* #NOAPP */
 3851 12b4 9923      		tst r25
 3852 12b6 01F4      		brne .+2
 3853 12b8 00C0      		rjmp .L210
 3854               	.L236:
 3855               	.LM569:
 3856 12ba 8091 0000 		lds r24,UartTxWrPtr
 3857 12be E82F      		mov r30,r24
 3858 12c0 F0E0      		ldi r31,lo8(0)
 3859 12c2 E050      		subi r30,lo8(-(UartTxBuf))
 3860 12c4 F040      		sbci r31,hi8(-(UartTxBuf))
 3861 12c6 5082      		st Z,r5
 3862               	.LM570:
 3863 12c8 8F5F      		subi r24,lo8(-(1))
 3864 12ca 8093 0000 		sts UartTxWrPtr,r24
 3865               	.LM571:
 3866 12ce 9F5F      		subi r25,lo8(-(1))
 3867 12d0 9093 0000 		sts UartTxCount,r25
 3868 12d4 00C0      		rjmp .L211
 3869               	.L250:
 3870               	.LBE345:
 3871               	.LBE352:
 3872               	.LBE357:
 3873               	.LBE359:
 3874               	.LBB360:
 3875               	.LBB305:
GAS LISTING C:\DOCUME~1\KEUNSO~1\LOCALS~1\Temp/ccIyMOV1.s 			page 69


 3876               	.LM572:
 3877 12d6 8091 0000 		lds r24,UartTxWrPtr
 3878 12da E82F      		mov r30,r24
 3879 12dc F0E0      		ldi r31,lo8(0)
 3880 12de E050      		subi r30,lo8(-(UartTxBuf))
 3881 12e0 F040      		sbci r31,hi8(-(UartTxBuf))
 3882 12e2 6082      		st Z,r6
 3883               	.LM573:
 3884 12e4 8F5F      		subi r24,lo8(-(1))
 3885 12e6 8093 0000 		sts UartTxWrPtr,r24
 3886               	.LM574:
 3887 12ea 9F5F      		subi r25,lo8(-(1))
 3888 12ec 9093 0000 		sts UartTxCount,r25
 3889 12f0 00C0      		rjmp .L232
 3890               	.L248:
 3891               	.LBE305:
 3892               	.LBE360:
 3893               	.LBB361:
 3894               	.LBB309:
 3895               	.LM575:
 3896 12f2 8091 0000 		lds r24,UartTxWrPtr
 3897 12f6 E82F      		mov r30,r24
 3898 12f8 F0E0      		ldi r31,lo8(0)
 3899 12fa E050      		subi r30,lo8(-(UartTxBuf))
 3900 12fc F040      		sbci r31,hi8(-(UartTxBuf))
 3901 12fe B8E4      		ldi r27,lo8(72)
 3902 1300 B083      		st Z,r27
 3903               	.LM576:
 3904 1302 8F5F      		subi r24,lo8(-(1))
 3905 1304 8093 0000 		sts UartTxWrPtr,r24
 3906               	.LM577:
 3907 1308 9F5F      		subi r25,lo8(-(1))
 3908 130a 9093 0000 		sts UartTxCount,r25
 3909               	.LM578:
 3910               	/* #APP */
 3911               	 ;  217 "test.c" 1
 3912 130e 7894      		sei
 3913               	 ;  0 "" 2
 3914               	/* #NOAPP */
 3915               	.LBE309:
 3916               	.LBE361:
 3917               	.LBB362:
 3918               	.LBB307:
 3919               	.LM579:
 3920 1310 9923      		tst r25
 3921 1312 01F4      		brne .+2
 3922 1314 00C0      		rjmp .L230
 3923               	.L249:
 3924               	.LM580:
 3925 1316 8091 0000 		lds r24,UartTxSem
 3926 131a 9091 0000 		lds r25,(UartTxSem)+1
 3927 131e 60E0      		ldi r22,lo8(0)
 3928 1320 70E0      		ldi r23,hi8(0)
 3929 1322 482D      		mov r20,r8
 3930 1324 592D      		mov r21,r9
 3931 1326 0E94 0000 		call OSSemPend
 3932 132a 9091 0000 		lds r25,UartTxCount
GAS LISTING C:\DOCUME~1\KEUNSO~1\LOCALS~1\Temp/ccIyMOV1.s 			page 70


 3933 132e 00C0      		rjmp .L230
 3934               	.L246:
 3935               	.LBE307:
 3936               	.LBE362:
 3937               	.LBB363:
 3938               	.LBB313:
 3939               	.LM581:
 3940 1330 8091 0000 		lds r24,UartTxWrPtr
 3941 1334 E82F      		mov r30,r24
 3942 1336 F0E0      		ldi r31,lo8(0)
 3943 1338 E050      		subi r30,lo8(-(UartTxBuf))
 3944 133a F040      		sbci r31,hi8(-(UartTxBuf))
 3945 133c 4082      		st Z,r4
 3946               	.LM582:
 3947 133e 8F5F      		subi r24,lo8(-(1))
 3948 1340 8093 0000 		sts UartTxWrPtr,r24
 3949               	.LM583:
 3950 1344 9F5F      		subi r25,lo8(-(1))
 3951 1346 9093 0000 		sts UartTxCount,r25
 3952 134a 00C0      		rjmp .L226
 3953               	.L244:
 3954               	.LBE313:
 3955               	.LBE363:
 3956               	.LBB364:
 3957               	.LBB317:
 3958               	.LM584:
 3959 134c 8091 0000 		lds r24,UartTxWrPtr
 3960 1350 E82F      		mov r30,r24
 3961 1352 F0E0      		ldi r31,lo8(0)
 3962 1354 E050      		subi r30,lo8(-(UartTxBuf))
 3963 1356 F040      		sbci r31,hi8(-(UartTxBuf))
 3964 1358 5082      		st Z,r5
 3965               	.LM585:
 3966 135a 8F5F      		subi r24,lo8(-(1))
 3967 135c 8093 0000 		sts UartTxWrPtr,r24
 3968               	.LM586:
 3969 1360 9F5F      		subi r25,lo8(-(1))
 3970 1362 9093 0000 		sts UartTxCount,r25
 3971 1366 00C0      		rjmp .L223
 3972               	.L242:
 3973               	.LBE317:
 3974               	.LBE364:
 3975               	.LBB365:
 3976               	.LBB321:
 3977               	.LM587:
 3978 1368 8091 0000 		lds r24,UartTxWrPtr
 3979 136c E82F      		mov r30,r24
 3980 136e F0E0      		ldi r31,lo8(0)
 3981 1370 E050      		subi r30,lo8(-(UartTxBuf))
 3982 1372 F040      		sbci r31,hi8(-(UartTxBuf))
 3983 1374 3082      		st Z,r3
 3984               	.LM588:
 3985 1376 8F5F      		subi r24,lo8(-(1))
 3986 1378 8093 0000 		sts UartTxWrPtr,r24
 3987               	.LM589:
 3988 137c 9F5F      		subi r25,lo8(-(1))
 3989 137e 9093 0000 		sts UartTxCount,r25
GAS LISTING C:\DOCUME~1\KEUNSO~1\LOCALS~1\Temp/ccIyMOV1.s 			page 71


 3990               	.LM590:
 3991               	/* #APP */
 3992               	 ;  217 "test.c" 1
 3993 1382 7894      		sei
 3994               	 ;  0 "" 2
 3995               	/* #NOAPP */
 3996               	.LBE321:
 3997               	.LBE365:
 3998               	.LBB366:
 3999               	.LBB319:
 4000               	.LM591:
 4001 1384 9923      		tst r25
 4002 1386 01F4      		brne .+2
 4003 1388 00C0      		rjmp .L221
 4004               	.L243:
 4005               	.LM592:
 4006 138a 8091 0000 		lds r24,UartTxSem
 4007 138e 9091 0000 		lds r25,(UartTxSem)+1
 4008 1392 60E0      		ldi r22,lo8(0)
 4009 1394 70E0      		ldi r23,hi8(0)
 4010 1396 482D      		mov r20,r8
 4011 1398 592D      		mov r21,r9
 4012 139a 0E94 0000 		call OSSemPend
 4013 139e 9091 0000 		lds r25,UartTxCount
 4014 13a2 00C0      		rjmp .L221
 4015               	.L240:
 4016               	.LBE319:
 4017               	.LBE366:
 4018               	.LBB367:
 4019               	.LBB325:
 4020               	.LBB327:
 4021               	.LBB333:
 4022               	.LM593:
 4023 13a4 8091 0000 		lds r24,UartTxWrPtr
 4024 13a8 E82F      		mov r30,r24
 4025 13aa F0E0      		ldi r31,lo8(0)
 4026 13ac E050      		subi r30,lo8(-(UartTxBuf))
 4027 13ae F040      		sbci r31,hi8(-(UartTxBuf))
 4028 13b0 2082      		st Z,r2
 4029               	.LM594:
 4030 13b2 8F5F      		subi r24,lo8(-(1))
 4031 13b4 8093 0000 		sts UartTxWrPtr,r24
 4032               	.LM595:
 4033 13b8 9F5F      		subi r25,lo8(-(1))
 4034 13ba 9093 0000 		sts UartTxCount,r25
 4035               	.LM596:
 4036               	/* #APP */
 4037               	 ;  217 "test.c" 1
 4038 13be 7894      		sei
 4039               	 ;  0 "" 2
 4040               	/* #NOAPP */
 4041               	.LBE333:
 4042               	.LBE327:
 4043               	.LBE325:
 4044               	.LBE367:
 4045               	.LBB368:
 4046               	.LBB323:
GAS LISTING C:\DOCUME~1\KEUNSO~1\LOCALS~1\Temp/ccIyMOV1.s 			page 72


 4047               	.LM597:
 4048 13c0 9923      		tst r25
 4049 13c2 01F4      		brne .+2
 4050 13c4 00C0      		rjmp .L218
 4051               	.L241:
 4052               	.LM598:
 4053 13c6 8091 0000 		lds r24,UartTxSem
 4054 13ca 9091 0000 		lds r25,(UartTxSem)+1
 4055 13ce 60E0      		ldi r22,lo8(0)
 4056 13d0 70E0      		ldi r23,hi8(0)
 4057 13d2 482D      		mov r20,r8
 4058 13d4 592D      		mov r21,r9
 4059 13d6 0E94 0000 		call OSSemPend
 4060 13da 9091 0000 		lds r25,UartTxCount
 4061 13de 00C0      		rjmp .L218
 4062               	.L238:
 4063               	.LBE323:
 4064               	.LBE368:
 4065               	.LBB369:
 4066               	.LBB358:
 4067               	.LBB353:
 4068               	.LBB338:
 4069               	.LM599:
 4070 13e0 8091 0000 		lds r24,UartTxWrPtr
 4071 13e4 E82F      		mov r30,r24
 4072 13e6 F0E0      		ldi r31,lo8(0)
 4073 13e8 E050      		subi r30,lo8(-(UartTxBuf))
 4074 13ea F040      		sbci r31,hi8(-(UartTxBuf))
 4075 13ec 4082      		st Z,r4
 4076               	.LM600:
 4077 13ee 8F5F      		subi r24,lo8(-(1))
 4078 13f0 8093 0000 		sts UartTxWrPtr,r24
 4079               	.LM601:
 4080 13f4 9F5F      		subi r25,lo8(-(1))
 4081 13f6 9093 0000 		sts UartTxCount,r25
 4082 13fa 00C0      		rjmp .L214
 4083               	.L239:
 4084               	.LBE338:
 4085               	.LBE353:
 4086               	.LBB354:
 4087               	.LBB336:
 4088               	.LM602:
 4089 13fc 8091 0000 		lds r24,UartTxSem
 4090 1400 9091 0000 		lds r25,(UartTxSem)+1
 4091 1404 60E0      		ldi r22,lo8(0)
 4092 1406 70E0      		ldi r23,hi8(0)
 4093 1408 482D      		mov r20,r8
 4094 140a 592D      		mov r21,r9
 4095 140c 0E94 0000 		call OSSemPend
 4096 1410 9091 0000 		lds r25,UartTxCount
 4097 1414 00C0      		rjmp .L215
 4098               	.L237:
 4099               	.LBE336:
 4100               	.LBE354:
 4101               	.LBB355:
 4102               	.LBB341:
 4103 1416 8091 0000 		lds r24,UartTxSem
GAS LISTING C:\DOCUME~1\KEUNSO~1\LOCALS~1\Temp/ccIyMOV1.s 			page 73


 4104 141a 9091 0000 		lds r25,(UartTxSem)+1
 4105 141e 60E0      		ldi r22,lo8(0)
 4106 1420 70E0      		ldi r23,hi8(0)
 4107 1422 482D      		mov r20,r8
 4108 1424 592D      		mov r21,r9
 4109 1426 0E94 0000 		call OSSemPend
 4110 142a 9091 0000 		lds r25,UartTxCount
 4111 142e 00C0      		rjmp .L212
 4112               	.L251:
 4113               	.LBE341:
 4114               	.LBE355:
 4115               	.LBB356:
 4116               	.LBB350:
 4117 1430 8091 0000 		lds r24,UartTxSem
 4118 1434 9091 0000 		lds r25,(UartTxSem)+1
 4119 1438 60E0      		ldi r22,lo8(0)
 4120 143a 70E0      		ldi r23,hi8(0)
 4121 143c 482D      		mov r20,r8
 4122 143e 592D      		mov r21,r9
 4123 1440 0E94 0000 		call OSSemPend
 4124 1444 9091 0000 		lds r25,UartTxCount
 4125 1448 00C0      		rjmp .L206
 4126               	.L247:
 4127               	.LBE350:
 4128               	.LBE356:
 4129               	.LBE358:
 4130               	.LBE369:
 4131               	.LBB370:
 4132               	.LBB311:
 4133 144a 8091 0000 		lds r24,UartTxSem
 4134 144e 9091 0000 		lds r25,(UartTxSem)+1
 4135 1452 60E0      		ldi r22,lo8(0)
 4136 1454 70E0      		ldi r23,hi8(0)
 4137 1456 482D      		mov r20,r8
 4138 1458 592D      		mov r21,r9
 4139 145a 0E94 0000 		call OSSemPend
 4140 145e 9091 0000 		lds r25,UartTxCount
 4141 1462 00C0      		rjmp .L227
 4142               	.L245:
 4143               	.LBE311:
 4144               	.LBE370:
 4145               	.LBB371:
 4146               	.LBB315:
 4147 1464 8091 0000 		lds r24,UartTxSem
 4148 1468 9091 0000 		lds r25,(UartTxSem)+1
 4149 146c 60E0      		ldi r22,lo8(0)
 4150 146e 70E0      		ldi r23,hi8(0)
 4151 1470 482D      		mov r20,r8
 4152 1472 592D      		mov r21,r9
 4153 1474 0E94 0000 		call OSSemPend
 4154 1478 9091 0000 		lds r25,UartTxCount
 4155 147c 00C0      		rjmp .L224
 4156               	.LBE315:
 4157               	.LBE371:
 4158               	.LBE372:
 4159               	.LBE377:
 4160               	.LFE4:
GAS LISTING C:\DOCUME~1\KEUNSO~1\LOCALS~1\Temp/ccIyMOV1.s 			page 74


 4161               		.size	Task, .-Task
 4162               		.data
 4163               	.LC1:
 4164 0005 7543 2F4F 		.string	"uC/OS-II, The Real-Time Kernel"
 4164      532D 4949 
 4164      2C20 5468 
 4164      6520 5265 
 4164      616C 2D54 
 4165               	.LC2:
 4166 0024 4A65 616E 		.string	"Jean J. Labrosse"
 4166      204A 2E20 
 4166      4C61 6272 
 4166      6F73 7365 
 4166      00
 4167               	.LC3:
 4168 0035 4156 5220 		.string	"AVR port by Ole Saether"
 4168      706F 7274 
 4168      2062 7920 
 4168      4F6C 6520 
 4168      5361 6574 
 4169               	.LC4:
 4170 004d 6763 6320 		.string	"gcc port by Jesper Hansen"
 4170      706F 7274 
 4170      2062 7920 
 4170      4A65 7370 
 4170      6572 2048 
 4171               	.LC5:
 4172 0067 4465 7465 		.string	"Determining  CPU's capacity ..."
 4172      726D 696E 
 4172      696E 6720 
 4172      2043 5055 
 4172      2773 2063 
 4173               	.LC6:
 4174 0087 2354 6173 		.string	"#Tasks          : xxxxx  CPU Usage: xxx %"
 4174      6B73 2020 
 4174      2020 2020 
 4174      2020 2020 
 4174      3A20 7878 
 4175               	.LC7:
 4176 00b1 2354 6173 		.string	"#Task switch/sec: xxxxx"
 4176      6B20 7377 
 4176      6974 6368 
 4176      2F73 6563 
 4176      3A20 7878 
 4177               		.text
 4178               	.global	TaskStart
 4179               		.type	TaskStart, @function
 4180               	TaskStart:
 4181               	.LFB3:
 4182               	.LM603:
 4183               	.LVL110:
 4184 147e CF92      		push r12
 4185 1480 DF92      		push r13
 4186 1482 EF92      		push r14
 4187 1484 FF92      		push r15
 4188 1486 0F93      		push r16
 4189 1488 1F93      		push r17
GAS LISTING C:\DOCUME~1\KEUNSO~1\LOCALS~1\Temp/ccIyMOV1.s 			page 75


 4190 148a DF93      		push r29
 4191 148c CF93      		push r28
 4192 148e CDB7      		in r28,__SP_L__
 4193 1490 DEB7      		in r29,__SP_H__
 4194 1492 2B97      		sbiw r28,11
 4195 1494 0FB6      		in __tmp_reg__,__SREG__
 4196 1496 F894      		cli
 4197 1498 DEBF      		out __SP_H__,r29
 4198 149a 0FBE      		out __SREG__,__tmp_reg__
 4199 149c CDBF      		out __SP_L__,r28
 4200               	/* prologue: function */
 4201               	/* frame size = 11 */
 4202               	.LBB400:
 4203               	.LBB401:
 4204               	.LBB412:
 4205               	.LBB414:
 4206               	.LBB418:
 4207               	.LBB419:
 4208               	.LM604:
 4209 149e 2091 0000 		lds r18,UartTxCount
 4210 14a2 2223      		tst r18
 4211 14a4 01F0      		breq .+2
 4212 14a6 00C0      		rjmp .L278
 4213 14a8 CC2E      		mov r12,r28
 4214 14aa DD2E      		mov r13,r29
 4215 14ac 0894      		sec
 4216 14ae C11C      		adc r12,__zero_reg__
 4217 14b0 D11C      		adc r13,__zero_reg__
 4218               	.L253:
 4219               	.LM605:
 4220               	/* #APP */
 4221               	 ;  207 "test.c" 1
 4222 14b2 F894      		cli
 4223               	 ;  0 "" 2
 4224               	.LM606:
 4225               	/* #NOAPP */
 4226 14b4 2223      		tst r18
 4227 14b6 01F0      		breq .+2
 4228 14b8 00C0      		rjmp .L279
 4229               	.LM607:
 4230 14ba 8BE1      		ldi r24,lo8(27)
 4231               	.LVL111:
 4232 14bc 8CB9      		out 44-32,r24
 4233               	.LM608:
 4234 14be 81E0      		ldi r24,lo8(1)
 4235 14c0 8093 0000 		sts UartTxCount,r24
 4236               	.LM609:
 4237 14c4 569A      		sbi 42-32,6
 4238               	.L255:
 4239               	.LM610:
 4240               	/* #APP */
 4241               	 ;  217 "test.c" 1
 4242 14c6 7894      		sei
 4243               	 ;  0 "" 2
 4244               	/* #NOAPP */
 4245               	.LBE419:
 4246               	.LBE418:
GAS LISTING C:\DOCUME~1\KEUNSO~1\LOCALS~1\Temp/ccIyMOV1.s 			page 76


 4247               	.LBB421:
 4248               	.LBB422:
 4249               	.LM611:
 4250 14c8 2091 0000 		lds r18,UartTxCount
 4251 14cc 2223      		tst r18
 4252 14ce 01F0      		breq .L256
 4253               	.LM612:
 4254 14d0 8091 0000 		lds r24,UartTxSem
 4255 14d4 9091 0000 		lds r25,(UartTxSem)+1
 4256 14d8 60E0      		ldi r22,lo8(0)
 4257 14da 70E0      		ldi r23,hi8(0)
 4258 14dc 4C2D      		mov r20,r12
 4259 14de 5D2D      		mov r21,r13
 4260 14e0 0E94 0000 		call OSSemPend
 4261 14e4 2091 0000 		lds r18,UartTxCount
 4262               	.L256:
 4263               	.LM613:
 4264               	/* #APP */
 4265               	 ;  207 "test.c" 1
 4266 14e8 F894      		cli
 4267               	 ;  0 "" 2
 4268               	.LM614:
 4269               	/* #NOAPP */
 4270 14ea 2223      		tst r18
 4271 14ec 01F0      		breq .+2
 4272 14ee 00C0      		rjmp .L280
 4273               	.LM615:
 4274 14f0 8BE5      		ldi r24,lo8(91)
 4275 14f2 8CB9      		out 44-32,r24
 4276               	.LM616:
 4277 14f4 81E0      		ldi r24,lo8(1)
 4278 14f6 8093 0000 		sts UartTxCount,r24
 4279               	.LM617:
 4280 14fa 569A      		sbi 42-32,6
 4281               	.L258:
 4282               	.LM618:
 4283               	/* #APP */
 4284               	 ;  217 "test.c" 1
 4285 14fc 7894      		sei
 4286               	 ;  0 "" 2
 4287               	/* #NOAPP */
 4288               	.LBE422:
 4289               	.LBE421:
 4290               	.LM619:
 4291 14fe 85E2      		ldi r24,lo8(37)
 4292 1500 0E94 0000 		call PutDec
 4293               	.LBB424:
 4294               	.LBB425:
 4295               	.LM620:
 4296 1504 2091 0000 		lds r18,UartTxCount
 4297 1508 2223      		tst r18
 4298 150a 01F0      		breq .L259
 4299               	.LM621:
 4300 150c 8091 0000 		lds r24,UartTxSem
 4301 1510 9091 0000 		lds r25,(UartTxSem)+1
 4302 1514 60E0      		ldi r22,lo8(0)
 4303 1516 70E0      		ldi r23,hi8(0)
GAS LISTING C:\DOCUME~1\KEUNSO~1\LOCALS~1\Temp/ccIyMOV1.s 			page 77


 4304 1518 4C2D      		mov r20,r12
 4305 151a 5D2D      		mov r21,r13
 4306 151c 0E94 0000 		call OSSemPend
 4307 1520 2091 0000 		lds r18,UartTxCount
 4308               	.L259:
 4309               	.LM622:
 4310               	/* #APP */
 4311               	 ;  207 "test.c" 1
 4312 1524 F894      		cli
 4313               	 ;  0 "" 2
 4314               	.LM623:
 4315               	/* #NOAPP */
 4316 1526 2223      		tst r18
 4317 1528 01F0      		breq .+2
 4318 152a 00C0      		rjmp .L281
 4319               	.LM624:
 4320 152c 8BE3      		ldi r24,lo8(59)
 4321 152e 8CB9      		out 44-32,r24
 4322               	.LM625:
 4323 1530 81E0      		ldi r24,lo8(1)
 4324 1532 8093 0000 		sts UartTxCount,r24
 4325               	.LM626:
 4326 1536 569A      		sbi 42-32,6
 4327               	.L261:
 4328               	.LM627:
 4329               	/* #APP */
 4330               	 ;  217 "test.c" 1
 4331 1538 7894      		sei
 4332               	 ;  0 "" 2
 4333               	/* #NOAPP */
 4334               	.LBE425:
 4335               	.LBE424:
 4336               	.LM628:
 4337 153a 88E2      		ldi r24,lo8(40)
 4338 153c 0E94 0000 		call PutDec
 4339               	.LBB427:
 4340               	.LBB428:
 4341               	.LM629:
 4342 1540 2091 0000 		lds r18,UartTxCount
 4343 1544 2223      		tst r18
 4344 1546 01F0      		breq .L262
 4345               	.LM630:
 4346 1548 8091 0000 		lds r24,UartTxSem
 4347 154c 9091 0000 		lds r25,(UartTxSem)+1
 4348 1550 60E0      		ldi r22,lo8(0)
 4349 1552 70E0      		ldi r23,hi8(0)
 4350 1554 4C2D      		mov r20,r12
 4351 1556 5D2D      		mov r21,r13
 4352 1558 0E94 0000 		call OSSemPend
 4353 155c 2091 0000 		lds r18,UartTxCount
 4354               	.L262:
 4355               	.LM631:
 4356               	/* #APP */
 4357               	 ;  207 "test.c" 1
 4358 1560 F894      		cli
 4359               	 ;  0 "" 2
 4360               	.LM632:
GAS LISTING C:\DOCUME~1\KEUNSO~1\LOCALS~1\Temp/ccIyMOV1.s 			page 78


 4361               	/* #NOAPP */
 4362 1562 2223      		tst r18
 4363 1564 01F0      		breq .+2
 4364 1566 00C0      		rjmp .L282
 4365               	.LM633:
 4366 1568 8DE6      		ldi r24,lo8(109)
 4367 156a 8CB9      		out 44-32,r24
 4368               	.LM634:
 4369 156c 81E0      		ldi r24,lo8(1)
 4370 156e 8093 0000 		sts UartTxCount,r24
 4371               	.LM635:
 4372 1572 569A      		sbi 42-32,6
 4373               	.L264:
 4374               	.LM636:
 4375               	/* #APP */
 4376               	 ;  217 "test.c" 1
 4377 1574 7894      		sei
 4378               	 ;  0 "" 2
 4379               	/* #NOAPP */
 4380 1576 00E0      		ldi r16,lo8(.LC0)
 4381 1578 10E0      		ldi r17,hi8(.LC0)
 4382               	.LVL112:
 4383 157a 2BE1      		ldi r18,lo8(27)
 4384 157c F22E      		mov r15,r18
 4385               	.LBE428:
 4386               	.LBE427:
 4387               	.LBE414:
 4388               	.LBE412:
 4389               	.LBB403:
 4390               	.LBB404:
 4391               	.LBB406:
 4392               	.LBB408:
 4393               	.LM637:
 4394 157e EE24      		clr r14
 4395 1580 E394      		inc r14
 4396 1582 00C0      		rjmp .L268
 4397               	.L265:
 4398               	.LM638:
 4399               	/* #APP */
 4400               	 ;  207 "test.c" 1
 4401 1584 F894      		cli
 4402               	 ;  0 "" 2
 4403               	.LM639:
 4404               	/* #NOAPP */
 4405 1586 2223      		tst r18
 4406 1588 01F0      		breq .+2
 4407 158a 00C0      		rjmp .L283
 4408               	.LM640:
 4409 158c FCB8      		out 44-32,r15
 4410               	.LM641:
 4411 158e E092 0000 		sts UartTxCount,r14
 4412               	.LM642:
 4413 1592 569A      		sbi 42-32,6
 4414               	.L267:
 4415               	.LM643:
 4416               	/* #APP */
 4417               	 ;  217 "test.c" 1
GAS LISTING C:\DOCUME~1\KEUNSO~1\LOCALS~1\Temp/ccIyMOV1.s 			page 79


 4418 1594 7894      		sei
 4419               	 ;  0 "" 2
 4420               	/* #NOAPP */
 4421               	.LBE408:
 4422               	.LBE406:
 4423               	.LM644:
 4424 1596 E02F      		mov r30,r16
 4425 1598 F12F      		mov r31,r17
 4426 159a F080      		ld r15,Z
 4427 159c FF20      		tst r15
 4428 159e 01F4      		brne .+2
 4429 15a0 00C0      		rjmp .L284
 4430               	.L268:
 4431               	.LM645:
 4432 15a2 0F5F      		subi r16,lo8(-(1))
 4433 15a4 1F4F      		sbci r17,hi8(-(1))
 4434               	.LBB405:
 4435               	.LBB407:
 4436               	.LM646:
 4437 15a6 2091 0000 		lds r18,UartTxCount
 4438 15aa 2223      		tst r18
 4439 15ac 01F0      		breq .L265
 4440               	.LM647:
 4441 15ae 8091 0000 		lds r24,UartTxSem
 4442 15b2 9091 0000 		lds r25,(UartTxSem)+1
 4443 15b6 60E0      		ldi r22,lo8(0)
 4444 15b8 70E0      		ldi r23,hi8(0)
 4445 15ba 4C2D      		mov r20,r12
 4446 15bc 5D2D      		mov r21,r13
 4447 15be 0E94 0000 		call OSSemPend
 4448 15c2 2091 0000 		lds r18,UartTxCount
 4449 15c6 00C0      		rjmp .L265
 4450               	.LVL113:
 4451               	.L281:
 4452               	.LBE407:
 4453               	.LBE405:
 4454               	.LBE404:
 4455               	.LBE403:
 4456               	.LBB402:
 4457               	.LBB413:
 4458               	.LBB417:
 4459               	.LBB426:
 4460               	.LM648:
 4461 15c8 8091 0000 		lds r24,UartTxWrPtr
 4462 15cc E82F      		mov r30,r24
 4463 15ce F0E0      		ldi r31,lo8(0)
 4464 15d0 E050      		subi r30,lo8(-(UartTxBuf))
 4465 15d2 F040      		sbci r31,hi8(-(UartTxBuf))
 4466 15d4 9BE3      		ldi r25,lo8(59)
 4467 15d6 9083      		st Z,r25
 4468               	.LM649:
 4469 15d8 8F5F      		subi r24,lo8(-(1))
 4470 15da 8093 0000 		sts UartTxWrPtr,r24
 4471               	.LM650:
 4472 15de 2F5F      		subi r18,lo8(-(1))
 4473 15e0 2093 0000 		sts UartTxCount,r18
 4474 15e4 00C0      		rjmp .L261
GAS LISTING C:\DOCUME~1\KEUNSO~1\LOCALS~1\Temp/ccIyMOV1.s 			page 80


 4475               	.L280:
 4476               	.LBE426:
 4477               	.LBE417:
 4478               	.LBB416:
 4479               	.LBB423:
 4480               	.LM651:
 4481 15e6 8091 0000 		lds r24,UartTxWrPtr
 4482 15ea E82F      		mov r30,r24
 4483 15ec F0E0      		ldi r31,lo8(0)
 4484 15ee E050      		subi r30,lo8(-(UartTxBuf))
 4485 15f0 F040      		sbci r31,hi8(-(UartTxBuf))
 4486 15f2 9BE5      		ldi r25,lo8(91)
 4487 15f4 9083      		st Z,r25
 4488               	.LM652:
 4489 15f6 8F5F      		subi r24,lo8(-(1))
 4490 15f8 8093 0000 		sts UartTxWrPtr,r24
 4491               	.LM653:
 4492 15fc 2F5F      		subi r18,lo8(-(1))
 4493 15fe 2093 0000 		sts UartTxCount,r18
 4494 1602 00C0      		rjmp .L258
 4495               	.LVL114:
 4496               	.L279:
 4497               	.LBE423:
 4498               	.LBE416:
 4499               	.LBB415:
 4500               	.LBB420:
 4501               	.LM654:
 4502 1604 8091 0000 		lds r24,UartTxWrPtr
 4503               	.LVL115:
 4504 1608 E82F      		mov r30,r24
 4505 160a F0E0      		ldi r31,lo8(0)
 4506 160c E050      		subi r30,lo8(-(UartTxBuf))
 4507 160e F040      		sbci r31,hi8(-(UartTxBuf))
 4508 1610 9BE1      		ldi r25,lo8(27)
 4509 1612 9083      		st Z,r25
 4510               	.LM655:
 4511 1614 8F5F      		subi r24,lo8(-(1))
 4512 1616 8093 0000 		sts UartTxWrPtr,r24
 4513               	.LM656:
 4514 161a 2F5F      		subi r18,lo8(-(1))
 4515 161c 2093 0000 		sts UartTxCount,r18
 4516 1620 00C0      		rjmp .L255
 4517               	.LVL116:
 4518               	.L278:
 4519               	.LM657:
 4520 1622 8091 0000 		lds r24,UartTxSem
 4521 1626 9091 0000 		lds r25,(UartTxSem)+1
 4522               	.LVL117:
 4523 162a 60E0      		ldi r22,lo8(0)
 4524 162c 70E0      		ldi r23,hi8(0)
 4525 162e CC2E      		mov r12,r28
 4526 1630 DD2E      		mov r13,r29
 4527 1632 0894      		sec
 4528 1634 C11C      		adc r12,__zero_reg__
 4529 1636 D11C      		adc r13,__zero_reg__
 4530 1638 4C2D      		mov r20,r12
 4531 163a 5D2D      		mov r21,r13
GAS LISTING C:\DOCUME~1\KEUNSO~1\LOCALS~1\Temp/ccIyMOV1.s 			page 81


 4532 163c 0E94 0000 		call OSSemPend
 4533 1640 2091 0000 		lds r18,UartTxCount
 4534 1644 00C0      		rjmp .L253
 4535               	.LVL118:
 4536               	.L284:
 4537               	.LBE420:
 4538               	.LBE415:
 4539               	.LBE413:
 4540               	.LBE402:
 4541               	.LBE401:
 4542               	.LBE400:
 4543               	.LM658:
 4544 1646 8AE1      		ldi r24,lo8(26)
 4545 1648 61E0      		ldi r22,lo8(1)
 4546 164a 40E0      		ldi r20,lo8(.LC1)
 4547 164c 50E0      		ldi r21,hi8(.LC1)
 4548 164e 27E0      		ldi r18,lo8(7)
 4549 1650 01E0      		ldi r16,lo8(1)
 4550               	.LVL119:
 4551 1652 0E94 0000 		call VT102DispStr
 4552               	.LM659:
 4553 1656 81E2      		ldi r24,lo8(33)
 4554 1658 62E0      		ldi r22,lo8(2)
 4555 165a 40E0      		ldi r20,lo8(.LC2)
 4556 165c 50E0      		ldi r21,hi8(.LC2)
 4557 165e 27E0      		ldi r18,lo8(7)
 4558 1660 00E0      		ldi r16,lo8(0)
 4559 1662 0E94 0000 		call VT102DispStr
 4560               	.LM660:
 4561 1666 8DE1      		ldi r24,lo8(29)
 4562 1668 63E0      		ldi r22,lo8(3)
 4563 166a 40E0      		ldi r20,lo8(.LC3)
 4564 166c 50E0      		ldi r21,hi8(.LC3)
 4565 166e 27E0      		ldi r18,lo8(7)
 4566 1670 0E94 0000 		call VT102DispStr
 4567               	.LM661:
 4568 1674 8DE1      		ldi r24,lo8(29)
 4569 1676 64E0      		ldi r22,lo8(4)
 4570 1678 40E0      		ldi r20,lo8(.LC4)
 4571 167a 50E0      		ldi r21,hi8(.LC4)
 4572 167c 27E0      		ldi r18,lo8(7)
 4573 167e 0E94 0000 		call VT102DispStr
 4574               	.LM662:
 4575 1682 81E0      		ldi r24,lo8(1)
 4576 1684 67E1      		ldi r22,lo8(23)
 4577 1686 40E0      		ldi r20,lo8(.LC5)
 4578 1688 50E0      		ldi r21,hi8(.LC5)
 4579 168a 27E0      		ldi r18,lo8(7)
 4580 168c 0E94 0000 		call VT102DispStr
 4581               	.LM663:
 4582 1690 0E94 0000 		call OSStatInit
 4583 1694 90E0      		ldi r25,lo8(TaskData)
 4584 1696 E92E      		mov r14,r25
 4585 1698 90E0      		ldi r25,hi8(TaskData)
 4586 169a F92E      		mov r15,r25
 4587 169c 80E0      		ldi r24,lo8(TaskStk+511)
 4588 169e C82E      		mov r12,r24
GAS LISTING C:\DOCUME~1\KEUNSO~1\LOCALS~1\Temp/ccIyMOV1.s 			page 82


 4589 16a0 80E0      		ldi r24,hi8(TaskStk+511)
 4590 16a2 D82E      		mov r13,r24
 4591 16a4 10E0      		ldi r17,lo8(0)
 4592               	.LVL120:
 4593               	.L269:
 4594               	.LM664:
 4595 16a6 105D      		subi r17,lo8(-(48))
 4596 16a8 EE2D      		mov r30,r14
 4597 16aa FF2D      		mov r31,r15
 4598 16ac 1083      		st Z,r17
 4599               	.LM665:
 4600 16ae 1F52      		subi r17,lo8(-(-47))
 4601 16b0 80E0      		ldi r24,lo8(gs(Task))
 4602 16b2 90E0      		ldi r25,hi8(gs(Task))
 4603 16b4 6E2D      		mov r22,r14
 4604 16b6 7F2D      		mov r23,r15
 4605 16b8 4C2D      		mov r20,r12
 4606 16ba 5D2D      		mov r21,r13
 4607 16bc 212F      		mov r18,r17
 4608 16be 0E94 0000 		call OSTaskCreate
 4609 16c2 0894      		sec
 4610 16c4 E11C      		adc r14,__zero_reg__
 4611 16c6 F11C      		adc r15,__zero_reg__
 4612 16c8 80E0      		ldi r24,lo8(512)
 4613 16ca 92E0      		ldi r25,hi8(512)
 4614 16cc C80E      		add r12,r24
 4615 16ce D91E      		adc r13,r25
 4616               	.LM666:
 4617 16d0 1A30      		cpi r17,lo8(10)
 4618 16d2 01F4      		brne .L269
 4619               	.LM667:
 4620 16d4 81E0      		ldi r24,lo8(1)
 4621 16d6 67E1      		ldi r22,lo8(23)
 4622 16d8 40E0      		ldi r20,lo8(.LC6)
 4623 16da 50E0      		ldi r21,hi8(.LC6)
 4624 16dc 27E0      		ldi r18,lo8(7)
 4625 16de 00E0      		ldi r16,lo8(0)
 4626 16e0 0E94 0000 		call VT102DispStr
 4627               	.LM668:
 4628 16e4 81E0      		ldi r24,lo8(1)
 4629 16e6 68E1      		ldi r22,lo8(24)
 4630 16e8 40E0      		ldi r20,lo8(.LC7)
 4631 16ea 50E0      		ldi r21,hi8(.LC7)
 4632 16ec 27E0      		ldi r18,lo8(7)
 4633 16ee 0E94 0000 		call VT102DispStr
 4634 16f2 02E0      		ldi r16,lo8(2)
 4635 16f4 E02E      		mov r14,r16
 4636 16f6 F12C      		mov r15,__zero_reg__
 4637 16f8 EC0E      		add r14,r28
 4638 16fa FD1E      		adc r15,r29
 4639               	.LBB435:
 4640               	.LBB436:
 4641               	.LM669:
 4642 16fc 10E2      		ldi r17,lo8(32)
 4643               	.LVL121:
 4644               	.L273:
 4645               	.LBE436:
GAS LISTING C:\DOCUME~1\KEUNSO~1\LOCALS~1\Temp/ccIyMOV1.s 			page 83


 4646               	.LBE435:
 4647               	.LM670:
 4648 16fe 2091 0000 		lds r18,OSTaskCtr
 4649               	.LBB438:
 4650               	.LBB437:
 4651               	.LM671:
 4652 1702 1F82      		std Y+7,__zero_reg__
 4653               	.LM672:
 4654 1704 822F      		mov r24,r18
 4655 1706 90E0      		ldi r25,lo8(0)
 4656 1708 6AE0      		ldi r22,lo8(10)
 4657 170a 70E0      		ldi r23,hi8(10)
 4658 170c 0E94 0000 		call __udivmodhi4
 4659 1710 805D      		subi r24,lo8(-(48))
 4660 1712 8E83      		std Y+6,r24
 4661               	.LM673:
 4662 1714 822F      		mov r24,r18
 4663 1716 90E0      		ldi r25,lo8(0)
 4664 1718 6AE0      		ldi r22,lo8(10)
 4665 171a 70E0      		ldi r23,hi8(10)
 4666 171c 0E94 0000 		call __udivmodhi4
 4667 1720 262F      		mov r18,r22
 4668 1722 372F      		mov r19,r23
 4669               	.LM674:
 4670 1724 862F      		mov r24,r22
 4671 1726 972F      		mov r25,r23
 4672 1728 6AE0      		ldi r22,lo8(10)
 4673 172a 70E0      		ldi r23,hi8(10)
 4674 172c 0E94 0000 		call __udivmodhi4
 4675 1730 482F      		mov r20,r24
 4676 1732 405D      		subi r20,lo8(-(48))
 4677 1734 4D83      		std Y+5,r20
 4678 1736 822F      		mov r24,r18
 4679 1738 932F      		mov r25,r19
 4680 173a 6AE0      		ldi r22,lo8(10)
 4681 173c 70E0      		ldi r23,hi8(10)
 4682 173e 0E94 0000 		call __udivmodhi4
 4683 1742 862F      		mov r24,r22
 4684 1744 972F      		mov r25,r23
 4685 1746 6AE0      		ldi r22,lo8(10)
 4686 1748 70E0      		ldi r23,hi8(10)
 4687 174a 0E94 0000 		call __udivmodhi4
 4688 174e 805D      		subi r24,lo8(-(48))
 4689 1750 8C83      		std Y+4,r24
 4690               	.LM675:
 4691 1752 1A83      		std Y+2,r17
 4692 1754 1B83      		std Y+3,r17
 4693               	.LM676:
 4694 1756 8033      		cpi r24,lo8(48)
 4695 1758 01F4      		brne .L270
 4696               	.LM677:
 4697 175a 1C83      		std Y+4,r17
 4698               	.LM678:
 4699 175c 4033      		cpi r20,lo8(48)
 4700 175e 01F4      		brne .L270
 4701               	.LM679:
 4702 1760 1D83      		std Y+5,r17
GAS LISTING C:\DOCUME~1\KEUNSO~1\LOCALS~1\Temp/ccIyMOV1.s 			page 84


 4703               	.L270:
 4704               	.LBE437:
 4705               	.LBE438:
 4706               	.LM680:
 4707 1762 83E1      		ldi r24,lo8(19)
 4708 1764 67E1      		ldi r22,lo8(23)
 4709 1766 4E2D      		mov r20,r14
 4710 1768 5F2D      		mov r21,r15
 4711 176a 27E0      		ldi r18,lo8(7)
 4712 176c 04E0      		ldi r16,lo8(4)
 4713 176e 0E94 0000 		call VT102DispStr
 4714               	.LM681:
 4715 1772 2091 0000 		lds r18,OSCPUUsage
 4716 1776 3327      		clr r19
 4717 1778 27FD      		sbrc r18,7
 4718 177a 3095      		com r19
 4719               	.LVL122:
 4720               	.LBB439:
 4721               	.LBB440:
 4722               	.LM682:
 4723 177c 1D82      		std Y+5,__zero_reg__
 4724               	.LM683:
 4725 177e 822F      		mov r24,r18
 4726 1780 932F      		mov r25,r19
 4727 1782 6AE0      		ldi r22,lo8(10)
 4728 1784 70E0      		ldi r23,hi8(10)
 4729 1786 0E94 0000 		call __udivmodhi4
 4730 178a 805D      		subi r24,lo8(-(48))
 4731 178c 8C83      		std Y+4,r24
 4732               	.LM684:
 4733 178e 822F      		mov r24,r18
 4734 1790 932F      		mov r25,r19
 4735 1792 6AE0      		ldi r22,lo8(10)
 4736 1794 70E0      		ldi r23,hi8(10)
 4737 1796 0E94 0000 		call __udivmodhi4
 4738 179a 262F      		mov r18,r22
 4739               	.LVL123:
 4740 179c 372F      		mov r19,r23
 4741               	.LM685:
 4742 179e 862F      		mov r24,r22
 4743 17a0 972F      		mov r25,r23
 4744 17a2 6AE0      		ldi r22,lo8(10)
 4745 17a4 70E0      		ldi r23,hi8(10)
 4746 17a6 0E94 0000 		call __udivmodhi4
 4747 17aa 482F      		mov r20,r24
 4748 17ac 405D      		subi r20,lo8(-(48))
 4749 17ae 4B83      		std Y+3,r20
 4750 17b0 822F      		mov r24,r18
 4751 17b2 932F      		mov r25,r19
 4752 17b4 6AE0      		ldi r22,lo8(10)
 4753 17b6 70E0      		ldi r23,hi8(10)
 4754 17b8 0E94 0000 		call __udivmodhi4
 4755 17bc 862F      		mov r24,r22
 4756 17be 972F      		mov r25,r23
 4757 17c0 6AE0      		ldi r22,lo8(10)
 4758 17c2 70E0      		ldi r23,hi8(10)
 4759 17c4 0E94 0000 		call __udivmodhi4
GAS LISTING C:\DOCUME~1\KEUNSO~1\LOCALS~1\Temp/ccIyMOV1.s 			page 85


 4760 17c8 805D      		subi r24,lo8(-(48))
 4761 17ca 8A83      		std Y+2,r24
 4762               	.LM686:
 4763 17cc 8033      		cpi r24,lo8(48)
 4764 17ce 01F4      		brne .L271
 4765               	.LM687:
 4766 17d0 1A83      		std Y+2,r17
 4767               	.LM688:
 4768 17d2 4033      		cpi r20,lo8(48)
 4769 17d4 01F4      		brne .L271
 4770               	.LM689:
 4771 17d6 1B83      		std Y+3,r17
 4772               	.L271:
 4773               	.LBE440:
 4774               	.LBE439:
 4775               	.LM690:
 4776 17d8 85E2      		ldi r24,lo8(37)
 4777 17da 67E1      		ldi r22,lo8(23)
 4778 17dc 4E2D      		mov r20,r14
 4779 17de 5F2D      		mov r21,r15
 4780 17e0 27E0      		ldi r18,lo8(7)
 4781 17e2 04E0      		ldi r16,lo8(4)
 4782 17e4 0E94 0000 		call VT102DispStr
 4783               	.LM691:
 4784 17e8 2091 0000 		lds r18,OSCtxSwCtr
 4785 17ec 3091 0000 		lds r19,(OSCtxSwCtr)+1
 4786               	.LVL124:
 4787               	.LBB441:
 4788               	.LBB442:
 4789               	.LM692:
 4790 17f0 1F82      		std Y+7,__zero_reg__
 4791               	.LM693:
 4792 17f2 822F      		mov r24,r18
 4793 17f4 932F      		mov r25,r19
 4794 17f6 6AE0      		ldi r22,lo8(10)
 4795 17f8 70E0      		ldi r23,hi8(10)
 4796 17fa 0E94 0000 		call __udivmodhi4
 4797 17fe 805D      		subi r24,lo8(-(48))
 4798 1800 8E83      		std Y+6,r24
 4799               	.LM694:
 4800 1802 822F      		mov r24,r18
 4801 1804 932F      		mov r25,r19
 4802 1806 6AE0      		ldi r22,lo8(10)
 4803 1808 70E0      		ldi r23,hi8(10)
 4804 180a 0E94 0000 		call __udivmodhi4
 4805 180e 262F      		mov r18,r22
 4806               	.LVL125:
 4807 1810 372F      		mov r19,r23
 4808               	.LM695:
 4809 1812 862F      		mov r24,r22
 4810 1814 972F      		mov r25,r23
 4811 1816 6AE0      		ldi r22,lo8(10)
 4812 1818 70E0      		ldi r23,hi8(10)
 4813 181a 0E94 0000 		call __udivmodhi4
 4814 181e F82F      		mov r31,r24
 4815 1820 F05D      		subi r31,lo8(-(48))
 4816 1822 FD83      		std Y+5,r31
GAS LISTING C:\DOCUME~1\KEUNSO~1\LOCALS~1\Temp/ccIyMOV1.s 			page 86


 4817               	.LM696:
 4818 1824 822F      		mov r24,r18
 4819 1826 932F      		mov r25,r19
 4820 1828 6AE0      		ldi r22,lo8(10)
 4821 182a 70E0      		ldi r23,hi8(10)
 4822 182c 0E94 0000 		call __udivmodhi4
 4823 1830 262F      		mov r18,r22
 4824 1832 372F      		mov r19,r23
 4825               	.LM697:
 4826 1834 862F      		mov r24,r22
 4827 1836 972F      		mov r25,r23
 4828 1838 6AE0      		ldi r22,lo8(10)
 4829 183a 70E0      		ldi r23,hi8(10)
 4830 183c 0E94 0000 		call __udivmodhi4
 4831 1840 E82F      		mov r30,r24
 4832 1842 E05D      		subi r30,lo8(-(48))
 4833 1844 EC83      		std Y+4,r30
 4834               	.LM698:
 4835 1846 822F      		mov r24,r18
 4836 1848 932F      		mov r25,r19
 4837 184a 6AE0      		ldi r22,lo8(10)
 4838 184c 70E0      		ldi r23,hi8(10)
 4839 184e 0E94 0000 		call __udivmodhi4
 4840 1852 262F      		mov r18,r22
 4841 1854 372F      		mov r19,r23
 4842               	.LM699:
 4843 1856 862F      		mov r24,r22
 4844 1858 972F      		mov r25,r23
 4845 185a 6AE0      		ldi r22,lo8(10)
 4846 185c 70E0      		ldi r23,hi8(10)
 4847 185e 0E94 0000 		call __udivmodhi4
 4848 1862 482F      		mov r20,r24
 4849 1864 405D      		subi r20,lo8(-(48))
 4850 1866 4B83      		std Y+3,r20
 4851 1868 822F      		mov r24,r18
 4852 186a 932F      		mov r25,r19
 4853 186c 6AE0      		ldi r22,lo8(10)
 4854 186e 70E0      		ldi r23,hi8(10)
 4855 1870 0E94 0000 		call __udivmodhi4
 4856 1874 862F      		mov r24,r22
 4857 1876 972F      		mov r25,r23
 4858 1878 6AE0      		ldi r22,lo8(10)
 4859 187a 70E0      		ldi r23,hi8(10)
 4860 187c 0E94 0000 		call __udivmodhi4
 4861 1880 805D      		subi r24,lo8(-(48))
 4862 1882 8A83      		std Y+2,r24
 4863               	.LM700:
 4864 1884 8033      		cpi r24,lo8(48)
 4865 1886 01F4      		brne .L272
 4866               	.LM701:
 4867 1888 1A83      		std Y+2,r17
 4868               	.LM702:
 4869 188a 4033      		cpi r20,lo8(48)
 4870 188c 01F4      		brne .L272
 4871               	.LM703:
 4872 188e 1B83      		std Y+3,r17
 4873               	.LM704:
GAS LISTING C:\DOCUME~1\KEUNSO~1\LOCALS~1\Temp/ccIyMOV1.s 			page 87


 4874 1890 E033      		cpi r30,lo8(48)
 4875 1892 01F4      		brne .L272
 4876               	.LM705:
 4877 1894 1C83      		std Y+4,r17
 4878               	.LM706:
 4879 1896 F033      		cpi r31,lo8(48)
 4880 1898 01F4      		brne .L272
 4881               	.LM707:
 4882 189a 1D83      		std Y+5,r17
 4883               	.L272:
 4884               	.LBE442:
 4885               	.LBE441:
 4886               	.LM708:
 4887 189c 83E1      		ldi r24,lo8(19)
 4888 189e 68E1      		ldi r22,lo8(24)
 4889 18a0 4E2D      		mov r20,r14
 4890 18a2 5F2D      		mov r21,r15
 4891 18a4 27E0      		ldi r18,lo8(7)
 4892 18a6 04E0      		ldi r16,lo8(4)
 4893 18a8 0E94 0000 		call VT102DispStr
 4894               	.LM709:
 4895 18ac 1092 0000 		sts OSCtxSwCtr,__zero_reg__
 4896 18b0 1092 0000 		sts (OSCtxSwCtr)+1,__zero_reg__
 4897 18b4 1092 0000 		sts (OSCtxSwCtr)+2,__zero_reg__
 4898 18b8 1092 0000 		sts (OSCtxSwCtr)+3,__zero_reg__
 4899               	.LM710:
 4900 18bc 80E0      		ldi r24,lo8(0)
 4901 18be 60E0      		ldi r22,lo8(0)
 4902 18c0 41E0      		ldi r20,lo8(1)
 4903 18c2 20E0      		ldi r18,lo8(0)
 4904 18c4 30E0      		ldi r19,hi8(0)
 4905 18c6 0E94 0000 		call OSTimeDlyHMSM
 4906 18ca 00C0      		rjmp .L273
 4907               	.LVL126:
 4908               	.L283:
 4909               	.LBB443:
 4910               	.LBB434:
 4911               	.LBB432:
 4912               	.LBB411:
 4913               	.LBB410:
 4914               	.LBB409:
 4915               	.LM711:
 4916 18cc 8091 0000 		lds r24,UartTxWrPtr
 4917 18d0 E82F      		mov r30,r24
 4918 18d2 F0E0      		ldi r31,lo8(0)
 4919 18d4 E050      		subi r30,lo8(-(UartTxBuf))
 4920 18d6 F040      		sbci r31,hi8(-(UartTxBuf))
 4921 18d8 F082      		st Z,r15
 4922               	.LM712:
 4923 18da 8F5F      		subi r24,lo8(-(1))
 4924 18dc 8093 0000 		sts UartTxWrPtr,r24
 4925               	.LM713:
 4926 18e0 2F5F      		subi r18,lo8(-(1))
 4927 18e2 2093 0000 		sts UartTxCount,r18
 4928 18e6 00C0      		rjmp .L267
 4929               	.LVL127:
 4930               	.L282:
GAS LISTING C:\DOCUME~1\KEUNSO~1\LOCALS~1\Temp/ccIyMOV1.s 			page 88


 4931               	.LBE409:
 4932               	.LBE410:
 4933               	.LBE411:
 4934               	.LBE432:
 4935               	.LBB433:
 4936               	.LBB431:
 4937               	.LBB430:
 4938               	.LBB429:
 4939               	.LM714:
 4940 18e8 8091 0000 		lds r24,UartTxWrPtr
 4941 18ec E82F      		mov r30,r24
 4942 18ee F0E0      		ldi r31,lo8(0)
 4943 18f0 E050      		subi r30,lo8(-(UartTxBuf))
 4944 18f2 F040      		sbci r31,hi8(-(UartTxBuf))
 4945 18f4 9DE6      		ldi r25,lo8(109)
 4946 18f6 9083      		st Z,r25
 4947               	.LM715:
 4948 18f8 8F5F      		subi r24,lo8(-(1))
 4949 18fa 8093 0000 		sts UartTxWrPtr,r24
 4950               	.LM716:
 4951 18fe 2F5F      		subi r18,lo8(-(1))
 4952 1900 2093 0000 		sts UartTxCount,r18
 4953 1904 00C0      		rjmp .L264
 4954               	.LBE429:
 4955               	.LBE430:
 4956               	.LBE431:
 4957               	.LBE433:
 4958               	.LBE434:
 4959               	.LBE443:
 4960               	.LFE3:
 4961               		.size	TaskStart, .-TaskStart
 4962               		.comm TaskStk,5120,1
 4963               		.comm TaskStartStk,512,1
 4964               		.comm TaskData,10,1
 4965               		.comm RandomSem,2,1
 4966               		.comm DispStrSem,2,1
 4967               		.comm RndNext,4,1
 4968               		.comm UartTxBuf,256,1
 4969               		.comm UartTxRdPtr,1,1
 4970               		.comm UartTxWrPtr,1,1
 4971               		.comm UartTxCount,1,1
 4972               		.comm UartTxSem,2,1
 4973               		.comm kurt,1,1
 4974               		.section	.debug_frame,"",@progbits
 4975               	.Lframe0:
 4976 0000 0C00 0000 		.long	.LECIE0-.LSCIE0
 4977               	.LSCIE0:
 4978 0004 FFFF FFFF 		.long	0xffffffff
 4979 0008 01        		.byte	0x1
 4980 0009 00        		.string	""
 4981 000a 01        		.uleb128 0x1
 4982 000b 7F        		.sleb128 -1
 4983 000c 24        		.byte	0x24
 4984 000d 0C        		.byte	0xc
 4985 000e 20        		.uleb128 0x20
 4986 000f 00        		.uleb128 0x0
 4987               		.p2align	2
GAS LISTING C:\DOCUME~1\KEUNSO~1\LOCALS~1\Temp/ccIyMOV1.s 			page 89


 4988               	.LECIE0:
 4989               	.LSFDE0:
 4990 0010 0C00 0000 		.long	.LEFDE0-.LASFDE0
 4991               	.LASFDE0:
 4992 0014 0000 0000 		.long	.Lframe0
 4993 0018 0000 0000 		.long	.LFB6
 4994 001c 2400 0000 		.long	.LFE6-.LFB6
 4995               		.p2align	2
 4996               	.LEFDE0:
 4997               	.LSFDE2:
 4998 0020 0C00 0000 		.long	.LEFDE2-.LASFDE2
 4999               	.LASFDE2:
 5000 0024 0000 0000 		.long	.Lframe0
 5001 0028 0000 0000 		.long	.LFB9
 5002 002c 9A00 0000 		.long	.LFE9-.LFB9
 5003               		.p2align	2
 5004               	.LEFDE2:
 5005               	.LSFDE4:
 5006 0030 0C00 0000 		.long	.LEFDE4-.LASFDE4
 5007               	.LASFDE4:
 5008 0034 0000 0000 		.long	.Lframe0
 5009 0038 0000 0000 		.long	.LFB10
 5010 003c 6000 0000 		.long	.LFE10-.LFB10
 5011               		.p2align	2
 5012               	.LEFDE4:
 5013               	.LSFDE6:
 5014 0040 0C00 0000 		.long	.LEFDE6-.LASFDE6
 5015               	.LASFDE6:
 5016 0044 0000 0000 		.long	.Lframe0
 5017 0048 0000 0000 		.long	.LFB7
 5018 004c 7600 0000 		.long	.LFE7-.LFB7
 5019               		.p2align	2
 5020               	.LEFDE6:
 5021               	.LSFDE8:
 5022 0050 0C00 0000 		.long	.LEFDE8-.LASFDE8
 5023               	.LASFDE8:
 5024 0054 0000 0000 		.long	.Lframe0
 5025 0058 0000 0000 		.long	.LFB5
 5026 005c 7800 0000 		.long	.LFE5-.LFB5
 5027               		.p2align	2
 5028               	.LEFDE8:
 5029               	.LSFDE10:
 5030 0060 0C00 0000 		.long	.LEFDE10-.LASFDE10
 5031               	.LASFDE10:
 5032 0064 0000 0000 		.long	.Lframe0
 5033 0068 0000 0000 		.long	.LFB2
 5034 006c 8A00 0000 		.long	.LFE2-.LFB2
 5035               		.p2align	2
 5036               	.LEFDE10:
 5037               	.LSFDE12:
 5038 0070 0C00 0000 		.long	.LEFDE12-.LASFDE12
 5039               	.LASFDE12:
 5040 0074 0000 0000 		.long	.Lframe0
 5041 0078 0000 0000 		.long	.LFB8
 5042 007c AE00 0000 		.long	.LFE8-.LFB8
 5043               		.p2align	2
 5044               	.LEFDE12:
GAS LISTING C:\DOCUME~1\KEUNSO~1\LOCALS~1\Temp/ccIyMOV1.s 			page 90


 5045               	.LSFDE14:
 5046 0080 0C00 0000 		.long	.LEFDE14-.LASFDE14
 5047               	.LASFDE14:
 5048 0084 0000 0000 		.long	.Lframe0
 5049 0088 0000 0000 		.long	.LFB11
 5050 008c 6601 0000 		.long	.LFE11-.LFB11
 5051               		.p2align	2
 5052               	.LEFDE14:
 5053               	.LSFDE16:
 5054 0090 0C00 0000 		.long	.LEFDE16-.LASFDE16
 5055               	.LASFDE16:
 5056 0094 0000 0000 		.long	.Lframe0
 5057 0098 0000 0000 		.long	.LFB12
 5058 009c B401 0000 		.long	.LFE12-.LFB12
 5059               		.p2align	2
 5060               	.LEFDE16:
 5061               	.LSFDE18:
 5062 00a0 0C00 0000 		.long	.LEFDE18-.LASFDE18
 5063               	.LASFDE18:
 5064 00a4 0000 0000 		.long	.Lframe0
 5065 00a8 0000 0000 		.long	.LFB13
 5066 00ac 2E02 0000 		.long	.LFE13-.LFB13
 5067               		.p2align	2
 5068               	.LEFDE18:
 5069               	.LSFDE20:
 5070 00b0 0C00 0000 		.long	.LEFDE20-.LASFDE20
 5071               	.LASFDE20:
 5072 00b4 0000 0000 		.long	.Lframe0
 5073 00b8 0000 0000 		.long	.LFB15
 5074 00bc EC03 0000 		.long	.LFE15-.LFB15
 5075               		.p2align	2
 5076               	.LEFDE20:
 5077               	.LSFDE22:
 5078 00c0 0C00 0000 		.long	.LEFDE22-.LASFDE22
 5079               	.LASFDE22:
 5080 00c4 0000 0000 		.long	.Lframe0
 5081 00c8 0000 0000 		.long	.LFB14
 5082 00cc BE03 0000 		.long	.LFE14-.LFB14
 5083               		.p2align	2
 5084               	.LEFDE22:
 5085               	.LSFDE24:
 5086 00d0 0C00 0000 		.long	.LEFDE24-.LASFDE24
 5087               	.LASFDE24:
 5088 00d4 0000 0000 		.long	.Lframe0
 5089 00d8 0000 0000 		.long	.LFB4
 5090 00dc 4804 0000 		.long	.LFE4-.LFB4
 5091               		.p2align	2
 5092               	.LEFDE24:
 5093               	.LSFDE26:
 5094 00e0 0C00 0000 		.long	.LEFDE26-.LASFDE26
 5095               	.LASFDE26:
 5096 00e4 0000 0000 		.long	.Lframe0
 5097 00e8 0000 0000 		.long	.LFB3
 5098 00ec 8804 0000 		.long	.LFE3-.LFB3
 5099               		.p2align	2
 5100               	.LEFDE26:
 5101               		.text
GAS LISTING C:\DOCUME~1\KEUNSO~1\LOCALS~1\Temp/ccIyMOV1.s 			page 91


 5102               	.Letext0:
 5103               		.section	.debug_loc,"",@progbits
 5104               	.Ldebug_loc0:
 5105               	.LLST2:
 5106 0000 2400 0000 		.long	.LVL0-.Ltext0
 5107 0004 3800 0000 		.long	.LVL2-.Ltext0
 5108 0008 0600      		.word	0x6
 5109 000a 68        		.byte	0x68
 5110 000b 93        		.byte	0x93
 5111 000c 01        		.uleb128 0x1
 5112 000d 69        		.byte	0x69
 5113 000e 93        		.byte	0x93
 5114 000f 01        		.uleb128 0x1
 5115 0010 3800 0000 		.long	.LVL2-.Ltext0
 5116 0014 9600 0000 		.long	.LVL7-.Ltext0
 5117 0018 0600      		.word	0x6
 5118 001a 5E        		.byte	0x5e
 5119 001b 93        		.byte	0x93
 5120 001c 01        		.uleb128 0x1
 5121 001d 5F        		.byte	0x5f
 5122 001e 93        		.byte	0x93
 5123 001f 01        		.uleb128 0x1
 5124 0020 9600 0000 		.long	.LVL7-.Ltext0
 5125 0024 BE00 0000 		.long	.LFE9-.Ltext0
 5126 0028 0600      		.word	0x6
 5127 002a 6E        		.byte	0x6e
 5128 002b 93        		.byte	0x93
 5129 002c 01        		.uleb128 0x1
 5130 002d 6F        		.byte	0x6f
 5131 002e 93        		.byte	0x93
 5132 002f 01        		.uleb128 0x1
 5133 0030 0000 0000 		.long	0x0
 5134 0034 0000 0000 		.long	0x0
 5135               	.LLST3:
 5136 0038 2400 0000 		.long	.LVL0-.Ltext0
 5137 003c 3600 0000 		.long	.LVL1-.Ltext0
 5138 0040 0600      		.word	0x6
 5139 0042 66        		.byte	0x66
 5140 0043 93        		.byte	0x93
 5141 0044 01        		.uleb128 0x1
 5142 0045 67        		.byte	0x67
 5143 0046 93        		.byte	0x93
 5144 0047 01        		.uleb128 0x1
 5145 0048 3600 0000 		.long	.LVL1-.Ltext0
 5146 004c 4800 0000 		.long	.LVL3-.Ltext0
 5147 0050 0600      		.word	0x6
 5148 0052 61        		.byte	0x61
 5149 0053 93        		.byte	0x93
 5150 0054 01        		.uleb128 0x1
 5151 0055 67        		.byte	0x67
 5152 0056 93        		.byte	0x93
 5153 0057 01        		.uleb128 0x1
 5154 0058 4800 0000 		.long	.LVL3-.Ltext0
 5155 005c 9400 0000 		.long	.LVL6-.Ltext0
 5156 0060 0600      		.word	0x6
 5157 0062 61        		.byte	0x61
 5158 0063 93        		.byte	0x93
GAS LISTING C:\DOCUME~1\KEUNSO~1\LOCALS~1\Temp/ccIyMOV1.s 			page 92


 5159 0064 01        		.uleb128 0x1
 5160 0065 63        		.byte	0x63
 5161 0066 93        		.byte	0x93
 5162 0067 01        		.uleb128 0x1
 5163 0068 B200 0000 		.long	.LVL10-.Ltext0
 5164 006c B800 0000 		.long	.LVL11-.Ltext0
 5165 0070 0600      		.word	0x6
 5166 0072 61        		.byte	0x61
 5167 0073 93        		.byte	0x93
 5168 0074 01        		.uleb128 0x1
 5169 0075 63        		.byte	0x63
 5170 0076 93        		.byte	0x93
 5171 0077 01        		.uleb128 0x1
 5172 0078 B800 0000 		.long	.LVL11-.Ltext0
 5173 007c BE00 0000 		.long	.LFE9-.Ltext0
 5174 0080 0600      		.word	0x6
 5175 0082 66        		.byte	0x66
 5176 0083 93        		.byte	0x93
 5177 0084 01        		.uleb128 0x1
 5178 0085 67        		.byte	0x67
 5179 0086 93        		.byte	0x93
 5180 0087 01        		.uleb128 0x1
 5181 0088 0000 0000 		.long	0x0
 5182 008c 0000 0000 		.long	0x0
 5183               	.LLST4:
 5184 0090 5800 0000 		.long	.LVL4-.Ltext0
 5185 0094 9600 0000 		.long	.LVL7-.Ltext0
 5186 0098 0100      		.word	0x1
 5187 009a 62        		.byte	0x62
 5188 009b 9600 0000 		.long	.LVL7-.Ltext0
 5189 009f A000 0000 		.long	.LVL8-.Ltext0
 5190 00a3 0600      		.word	0x6
 5191 00a5 68        		.byte	0x68
 5192 00a6 93        		.byte	0x93
 5193 00a7 01        		.uleb128 0x1
 5194 00a8 69        		.byte	0x69
 5195 00a9 93        		.byte	0x93
 5196 00aa 01        		.uleb128 0x1
 5197 00ab A000 0000 		.long	.LVL8-.Ltext0
 5198 00af BE00 0000 		.long	.LFE9-.Ltext0
 5199 00b3 0600      		.word	0x6
 5200 00b5 62        		.byte	0x62
 5201 00b6 93        		.byte	0x93
 5202 00b7 01        		.uleb128 0x1
 5203 00b8 69        		.byte	0x69
 5204 00b9 93        		.byte	0x93
 5205 00ba 01        		.uleb128 0x1
 5206 00bb 0000 0000 		.long	0x0
 5207 00bf 0000 0000 		.long	0x0
 5208               	.LLST6:
 5209 00c3 BE00 0000 		.long	.LVL12-.Ltext0
 5210 00c7 E000 0000 		.long	.LVL13-.Ltext0
 5211 00cb 0100      		.word	0x1
 5212 00cd 68        		.byte	0x68
 5213 00ce E000 0000 		.long	.LVL13-.Ltext0
 5214 00d2 0A01 0000 		.long	.LVL14-.Ltext0
 5215 00d6 0100      		.word	0x1
GAS LISTING C:\DOCUME~1\KEUNSO~1\LOCALS~1\Temp/ccIyMOV1.s 			page 93


 5216 00d8 60        		.byte	0x60
 5217 00d9 0A01 0000 		.long	.LVL14-.Ltext0
 5218 00dd 1A01 0000 		.long	.LVL16-.Ltext0
 5219 00e1 0600      		.word	0x6
 5220 00e3 60        		.byte	0x60
 5221 00e4 93        		.byte	0x93
 5222 00e5 01        		.uleb128 0x1
 5223 00e6 61        		.byte	0x61
 5224 00e7 93        		.byte	0x93
 5225 00e8 01        		.uleb128 0x1
 5226 00e9 1A01 0000 		.long	.LVL16-.Ltext0
 5227 00ed 1C01 0000 		.long	.LVL17-.Ltext0
 5228 00f1 0100      		.word	0x1
 5229 00f3 60        		.byte	0x60
 5230 00f4 0000 0000 		.long	0x0
 5231 00f8 0000 0000 		.long	0x0
 5232               	.LLST8:
 5233 00fc 1E01 0000 		.long	.LVL18-.Ltext0
 5234 0100 3401 0000 		.long	.LVL19-.Ltext0
 5235 0104 0100      		.word	0x1
 5236 0106 68        		.byte	0x68
 5237 0107 3401 0000 		.long	.LVL19-.Ltext0
 5238 010b 4E01 0000 		.long	.LVL20-.Ltext0
 5239 010f 0100      		.word	0x1
 5240 0111 61        		.byte	0x61
 5241 0112 5001 0000 		.long	.LVL21-.Ltext0
 5242 0116 7401 0000 		.long	.LVL22-.Ltext0
 5243 011a 0100      		.word	0x1
 5244 011c 61        		.byte	0x61
 5245 011d 7601 0000 		.long	.LVL23-.Ltext0
 5246 0121 9401 0000 		.long	.LFE7-.Ltext0
 5247 0125 0100      		.word	0x1
 5248 0127 61        		.byte	0x61
 5249 0128 0000 0000 		.long	0x0
 5250 012c 0000 0000 		.long	0x0
 5251               	.LLST12:
 5252 0130 9602 0000 		.long	.LVL24-.Ltext0
 5253 0134 CA02 0000 		.long	.LVL25-.Ltext0
 5254 0138 0600      		.word	0x6
 5255 013a 68        		.byte	0x68
 5256 013b 93        		.byte	0x93
 5257 013c 01        		.uleb128 0x1
 5258 013d 69        		.byte	0x69
 5259 013e 93        		.byte	0x93
 5260 013f 01        		.uleb128 0x1
 5261 0140 CA02 0000 		.long	.LVL25-.Ltext0
 5262 0144 2003 0000 		.long	.LVL28-.Ltext0
 5263 0148 0600      		.word	0x6
 5264 014a 60        		.byte	0x60
 5265 014b 93        		.byte	0x93
 5266 014c 01        		.uleb128 0x1
 5267 014d 61        		.byte	0x61
 5268 014e 93        		.byte	0x93
 5269 014f 01        		.uleb128 0x1
 5270 0150 2003 0000 		.long	.LVL28-.Ltext0
 5271 0154 2A03 0000 		.long	.LVL29-.Ltext0
 5272 0158 0600      		.word	0x6
GAS LISTING C:\DOCUME~1\KEUNSO~1\LOCALS~1\Temp/ccIyMOV1.s 			page 94


 5273 015a 68        		.byte	0x68
 5274 015b 93        		.byte	0x93
 5275 015c 01        		.uleb128 0x1
 5276 015d 69        		.byte	0x69
 5277 015e 93        		.byte	0x93
 5278 015f 01        		.uleb128 0x1
 5279 0160 2A03 0000 		.long	.LVL29-.Ltext0
 5280 0164 4403 0000 		.long	.LFE8-.Ltext0
 5281 0168 0600      		.word	0x6
 5282 016a 60        		.byte	0x60
 5283 016b 93        		.byte	0x93
 5284 016c 01        		.uleb128 0x1
 5285 016d 61        		.byte	0x61
 5286 016e 93        		.byte	0x93
 5287 016f 01        		.uleb128 0x1
 5288 0170 0000 0000 		.long	0x0
 5289 0174 0000 0000 		.long	0x0
 5290               	.LLST14:
 5291 0178 4403 0000 		.long	.LVL30-.Ltext0
 5292 017c 5E03 0000 		.long	.LVL31-.Ltext0
 5293 0180 0100      		.word	0x1
 5294 0182 68        		.byte	0x68
 5295 0183 5E03 0000 		.long	.LVL31-.Ltext0
 5296 0187 6E03 0000 		.long	.LVL33-.Ltext0
 5297 018b 0100      		.word	0x1
 5298 018d 5F        		.byte	0x5f
 5299 018e 6E03 0000 		.long	.LVL33-.Ltext0
 5300 0192 7E03 0000 		.long	.LVL34-.Ltext0
 5301 0196 0100      		.word	0x1
 5302 0198 61        		.byte	0x61
 5303 0199 7E03 0000 		.long	.LVL34-.Ltext0
 5304 019d 9203 0000 		.long	.LVL35-.Ltext0
 5305 01a1 0100      		.word	0x1
 5306 01a3 68        		.byte	0x68
 5307 01a4 9A03 0000 		.long	.LVL36-.Ltext0
 5308 01a8 A403 0000 		.long	.LVL37-.Ltext0
 5309 01ac 0100      		.word	0x1
 5310 01ae 61        		.byte	0x61
 5311 01af A403 0000 		.long	.LVL37-.Ltext0
 5312 01b3 CE03 0000 		.long	.LVL39-.Ltext0
 5313 01b7 0100      		.word	0x1
 5314 01b9 5F        		.byte	0x5f
 5315 01ba D203 0000 		.long	.LVL40-.Ltext0
 5316 01be D603 0000 		.long	.LVL41-.Ltext0
 5317 01c2 0100      		.word	0x1
 5318 01c4 68        		.byte	0x68
 5319 01c5 EE03 0000 		.long	.LVL42-.Ltext0
 5320 01c9 F603 0000 		.long	.LVL43-.Ltext0
 5321 01cd 0100      		.word	0x1
 5322 01cf 68        		.byte	0x68
 5323 01d0 1404 0000 		.long	.LVL44-.Ltext0
 5324 01d4 3004 0000 		.long	.LVL45-.Ltext0
 5325 01d8 0100      		.word	0x1
 5326 01da 5F        		.byte	0x5f
 5327 01db 3004 0000 		.long	.LVL45-.Ltext0
 5328 01df 3E04 0000 		.long	.LVL46-.Ltext0
 5329 01e3 0100      		.word	0x1
GAS LISTING C:\DOCUME~1\KEUNSO~1\LOCALS~1\Temp/ccIyMOV1.s 			page 95


 5330 01e5 68        		.byte	0x68
 5331 01e6 3E04 0000 		.long	.LVL46-.Ltext0
 5332 01ea 5204 0000 		.long	.LVL47-.Ltext0
 5333 01ee 0100      		.word	0x1
 5334 01f0 61        		.byte	0x61
 5335 01f1 5204 0000 		.long	.LVL47-.Ltext0
 5336 01f5 7004 0000 		.long	.LVL48-.Ltext0
 5337 01f9 0100      		.word	0x1
 5338 01fb 5F        		.byte	0x5f
 5339 01fc 7004 0000 		.long	.LVL48-.Ltext0
 5340 0200 8C04 0000 		.long	.LVL49-.Ltext0
 5341 0204 0100      		.word	0x1
 5342 0206 61        		.byte	0x61
 5343 0207 8C04 0000 		.long	.LVL49-.Ltext0
 5344 020b 9404 0000 		.long	.LVL50-.Ltext0
 5345 020f 0100      		.word	0x1
 5346 0211 68        		.byte	0x68
 5347 0212 9404 0000 		.long	.LVL50-.Ltext0
 5348 0216 AA04 0000 		.long	.LFE11-.Ltext0
 5349 021a 0100      		.word	0x1
 5350 021c 61        		.byte	0x61
 5351 021d 0000 0000 		.long	0x0
 5352 0221 0000 0000 		.long	0x0
 5353               	.LLST15:
 5354 0225 6603 0000 		.long	.LVL32-.Ltext0
 5355 0229 CC03 0000 		.long	.LVL38-.Ltext0
 5356 022d 0100      		.word	0x1
 5357 022f 60        		.byte	0x60
 5358 0230 D203 0000 		.long	.LVL40-.Ltext0
 5359 0234 AA04 0000 		.long	.LFE11-.Ltext0
 5360 0238 0100      		.word	0x1
 5361 023a 60        		.byte	0x60
 5362 023b 0000 0000 		.long	0x0
 5363 023f 0000 0000 		.long	0x0
 5364               	.LLST17:
 5365 0243 AA04 0000 		.long	.LVL51-.Ltext0
 5366 0247 C604 0000 		.long	.LVL52-.Ltext0
 5367 024b 0100      		.word	0x1
 5368 024d 68        		.byte	0x68
 5369 024e C604 0000 		.long	.LVL52-.Ltext0
 5370 0252 5205 0000 		.long	.LVL53-.Ltext0
 5371 0256 0100      		.word	0x1
 5372 0258 61        		.byte	0x61
 5373 0259 5605 0000 		.long	.LVL55-.Ltext0
 5374 025d E205 0000 		.long	.LVL58-.Ltext0
 5375 0261 0100      		.word	0x1
 5376 0263 61        		.byte	0x61
 5377 0264 E605 0000 		.long	.LVL60-.Ltext0
 5378 0268 5E06 0000 		.long	.LFE12-.Ltext0
 5379 026c 0100      		.word	0x1
 5380 026e 61        		.byte	0x61
 5381 026f 0000 0000 		.long	0x0
 5382 0273 0000 0000 		.long	0x0
 5383               	.LLST18:
 5384 0277 AA04 0000 		.long	.LVL51-.Ltext0
 5385 027b C604 0000 		.long	.LVL52-.Ltext0
 5386 027f 0100      		.word	0x1
GAS LISTING C:\DOCUME~1\KEUNSO~1\LOCALS~1\Temp/ccIyMOV1.s 			page 96


 5387 0281 66        		.byte	0x66
 5388 0282 C604 0000 		.long	.LVL52-.Ltext0
 5389 0286 5405 0000 		.long	.LVL54-.Ltext0
 5390 028a 0100      		.word	0x1
 5391 028c 60        		.byte	0x60
 5392 028d 5605 0000 		.long	.LVL55-.Ltext0
 5393 0291 E405 0000 		.long	.LVL59-.Ltext0
 5394 0295 0100      		.word	0x1
 5395 0297 60        		.byte	0x60
 5396 0298 E605 0000 		.long	.LVL60-.Ltext0
 5397 029c 5E06 0000 		.long	.LFE12-.Ltext0
 5398 02a0 0100      		.word	0x1
 5399 02a2 60        		.byte	0x60
 5400 02a3 0000 0000 		.long	0x0
 5401 02a7 0000 0000 		.long	0x0
 5402               	.LLST20:
 5403 02ab 0207 0000 		.long	.LVL62-.Ltext0
 5404 02af 6C07 0000 		.long	.LVL63-.Ltext0
 5405 02b3 0600      		.word	0x6
 5406 02b5 60        		.byte	0x60
 5407 02b6 93        		.byte	0x93
 5408 02b7 01        		.uleb128 0x1
 5409 02b8 61        		.byte	0x61
 5410 02b9 93        		.byte	0x93
 5411 02ba 01        		.uleb128 0x1
 5412 02bb 7607 0000 		.long	.LVL64-.Ltext0
 5413 02bf 9007 0000 		.long	.LVL65-.Ltext0
 5414 02c3 0600      		.word	0x6
 5415 02c5 60        		.byte	0x60
 5416 02c6 93        		.byte	0x93
 5417 02c7 01        		.uleb128 0x1
 5418 02c8 61        		.byte	0x61
 5419 02c9 93        		.byte	0x93
 5420 02ca 01        		.uleb128 0x1
 5421 02cb 0000 0000 		.long	0x0
 5422 02cf 0000 0000 		.long	0x0
 5423               	.LLST22:
 5424 02d3 8C08 0000 		.long	.LVL66-.Ltext0
 5425 02d7 B408 0000 		.long	.LVL68-.Ltext0
 5426 02db 0100      		.word	0x1
 5427 02dd 68        		.byte	0x68
 5428 02de B408 0000 		.long	.LVL68-.Ltext0
 5429 02e2 F609 0000 		.long	.LVL76-.Ltext0
 5430 02e6 0100      		.word	0x1
 5431 02e8 5E        		.byte	0x5e
 5432 02e9 440A 0000 		.long	.LVL77-.Ltext0
 5433 02ed 600A 0000 		.long	.LVL80-.Ltext0
 5434 02f1 0100      		.word	0x1
 5435 02f3 5E        		.byte	0x5e
 5436 02f4 800A 0000 		.long	.LVL83-.Ltext0
 5437 02f8 780C 0000 		.long	.LFE15-.Ltext0
 5438 02fc 0100      		.word	0x1
 5439 02fe 5E        		.byte	0x5e
 5440 02ff 0000 0000 		.long	0x0
 5441 0303 0000 0000 		.long	0x0
 5442               	.LLST23:
 5443 0307 8C08 0000 		.long	.LVL66-.Ltext0
GAS LISTING C:\DOCUME~1\KEUNSO~1\LOCALS~1\Temp/ccIyMOV1.s 			page 97


 5444 030b B808 0000 		.long	.LVL69-.Ltext0
 5445 030f 0100      		.word	0x1
 5446 0311 66        		.byte	0x66
 5447 0312 B808 0000 		.long	.LVL69-.Ltext0
 5448 0316 E009 0000 		.long	.LVL73-.Ltext0
 5449 031a 0100      		.word	0x1
 5450 031c 5F        		.byte	0x5f
 5451 031d 800A 0000 		.long	.LVL83-.Ltext0
 5452 0321 780C 0000 		.long	.LFE15-.Ltext0
 5453 0325 0100      		.word	0x1
 5454 0327 5F        		.byte	0x5f
 5455 0328 0000 0000 		.long	0x0
 5456 032c 0000 0000 		.long	0x0
 5457               	.LLST24:
 5458 0330 8C08 0000 		.long	.LVL66-.Ltext0
 5459 0334 BC08 0000 		.long	.LVL70-.Ltext0
 5460 0338 0600      		.word	0x6
 5461 033a 64        		.byte	0x64
 5462 033b 93        		.byte	0x93
 5463 033c 01        		.uleb128 0x1
 5464 033d 65        		.byte	0x65
 5465 033e 93        		.byte	0x93
 5466 033f 01        		.uleb128 0x1
 5467 0340 BC08 0000 		.long	.LVL70-.Ltext0
 5468 0344 EE09 0000 		.long	.LVL75-.Ltext0
 5469 0348 0600      		.word	0x6
 5470 034a 5C        		.byte	0x5c
 5471 034b 93        		.byte	0x93
 5472 034c 01        		.uleb128 0x1
 5473 034d 5D        		.byte	0x5d
 5474 034e 93        		.byte	0x93
 5475 034f 01        		.uleb128 0x1
 5476 0350 440A 0000 		.long	.LVL77-.Ltext0
 5477 0354 640A 0000 		.long	.LVL81-.Ltext0
 5478 0358 0600      		.word	0x6
 5479 035a 5C        		.byte	0x5c
 5480 035b 93        		.byte	0x93
 5481 035c 01        		.uleb128 0x1
 5482 035d 5D        		.byte	0x5d
 5483 035e 93        		.byte	0x93
 5484 035f 01        		.uleb128 0x1
 5485 0360 800A 0000 		.long	.LVL83-.Ltext0
 5486 0364 780C 0000 		.long	.LFE15-.Ltext0
 5487 0368 0600      		.word	0x6
 5488 036a 5C        		.byte	0x5c
 5489 036b 93        		.byte	0x93
 5490 036c 01        		.uleb128 0x1
 5491 036d 5D        		.byte	0x5d
 5492 036e 93        		.byte	0x93
 5493 036f 01        		.uleb128 0x1
 5494 0370 0000 0000 		.long	0x0
 5495 0374 0000 0000 		.long	0x0
 5496               	.LLST25:
 5497 0378 8C08 0000 		.long	.LVL66-.Ltext0
 5498 037c C408 0000 		.long	.LVL71-.Ltext0
 5499 0380 0100      		.word	0x1
 5500 0382 62        		.byte	0x62
GAS LISTING C:\DOCUME~1\KEUNSO~1\LOCALS~1\Temp/ccIyMOV1.s 			page 98


 5501 0383 C408 0000 		.long	.LVL71-.Ltext0
 5502 0387 5A0A 0000 		.long	.LVL78-.Ltext0
 5503 038b 0100      		.word	0x1
 5504 038d 61        		.byte	0x61
 5505 038e 660A 0000 		.long	.LVL82-.Ltext0
 5506 0392 780C 0000 		.long	.LFE15-.Ltext0
 5507 0396 0100      		.word	0x1
 5508 0398 61        		.byte	0x61
 5509 0399 0000 0000 		.long	0x0
 5510 039d 0000 0000 		.long	0x0
 5511               	.LLST26:
 5512 03a1 8C08 0000 		.long	.LVL66-.Ltext0
 5513 03a5 9608 0000 		.long	.LVL67-.Ltext0
 5514 03a9 0100      		.word	0x1
 5515 03ab 60        		.byte	0x60
 5516 03ac 2C09 0000 		.long	.LVL72-.Ltext0
 5517 03b0 E809 0000 		.long	.LVL74-.Ltext0
 5518 03b4 0100      		.word	0x1
 5519 03b6 60        		.byte	0x60
 5520 03b7 440A 0000 		.long	.LVL77-.Ltext0
 5521 03bb 5C0A 0000 		.long	.LVL79-.Ltext0
 5522 03bf 0100      		.word	0x1
 5523 03c1 60        		.byte	0x60
 5524 03c2 E60A 0000 		.long	.LVL84-.Ltext0
 5525 03c6 C40B 0000 		.long	.LVL85-.Ltext0
 5526 03ca 0100      		.word	0x1
 5527 03cc 60        		.byte	0x60
 5528 03cd 000C 0000 		.long	.LVL86-.Ltext0
 5529 03d1 3C0C 0000 		.long	.LVL87-.Ltext0
 5530 03d5 0100      		.word	0x1
 5531 03d7 60        		.byte	0x60
 5532 03d8 5A0C 0000 		.long	.LVL88-.Ltext0
 5533 03dc 780C 0000 		.long	.LFE15-.Ltext0
 5534 03e0 0100      		.word	0x1
 5535 03e2 60        		.byte	0x60
 5536 03e3 0000 0000 		.long	0x0
 5537 03e7 0000 0000 		.long	0x0
 5538               	.LLST27:
 5539 03eb E809 0000 		.long	.LVL74-.Ltext0
 5540 03ef 5C0A 0000 		.long	.LVL79-.Ltext0
 5541 03f3 0600      		.word	0x6
 5542 03f5 60        		.byte	0x60
 5543 03f6 93        		.byte	0x93
 5544 03f7 01        		.uleb128 0x1
 5545 03f8 61        		.byte	0x61
 5546 03f9 93        		.byte	0x93
 5547 03fa 01        		.uleb128 0x1
 5548 03fb 660A 0000 		.long	.LVL82-.Ltext0
 5549 03ff 800A 0000 		.long	.LVL83-.Ltext0
 5550 0403 0600      		.word	0x6
 5551 0405 60        		.byte	0x60
 5552 0406 93        		.byte	0x93
 5553 0407 01        		.uleb128 0x1
 5554 0408 61        		.byte	0x61
 5555 0409 93        		.byte	0x93
 5556 040a 01        		.uleb128 0x1
 5557 040b 0000 0000 		.long	0x0
GAS LISTING C:\DOCUME~1\KEUNSO~1\LOCALS~1\Temp/ccIyMOV1.s 			page 99


 5558 040f 0000 0000 		.long	0x0
 5559               	.LLST29:
 5560 0413 780C 0000 		.long	.LVL89-.Ltext0
 5561 0417 9C0C 0000 		.long	.LVL91-.Ltext0
 5562 041b 0100      		.word	0x1
 5563 041d 68        		.byte	0x68
 5564 041e 9C0C 0000 		.long	.LVL91-.Ltext0
 5565 0422 FA0D 0000 		.long	.LVL99-.Ltext0
 5566 0426 0100      		.word	0x1
 5567 0428 5E        		.byte	0x5e
 5568 0429 FE0D 0000 		.long	.LVL101-.Ltext0
 5569 042d 3610 0000 		.long	.LFE14-.Ltext0
 5570 0431 0100      		.word	0x1
 5571 0433 5E        		.byte	0x5e
 5572 0434 0000 0000 		.long	0x0
 5573 0438 0000 0000 		.long	0x0
 5574               	.LLST30:
 5575 043c 780C 0000 		.long	.LVL89-.Ltext0
 5576 0440 A00C 0000 		.long	.LVL92-.Ltext0
 5577 0444 0100      		.word	0x1
 5578 0446 66        		.byte	0x66
 5579 0447 A00C 0000 		.long	.LVL92-.Ltext0
 5580 044b F80D 0000 		.long	.LVL98-.Ltext0
 5581 044f 0100      		.word	0x1
 5582 0451 5F        		.byte	0x5f
 5583 0452 FE0D 0000 		.long	.LVL101-.Ltext0
 5584 0456 3610 0000 		.long	.LFE14-.Ltext0
 5585 045a 0100      		.word	0x1
 5586 045c 5F        		.byte	0x5f
 5587 045d 0000 0000 		.long	0x0
 5588 0461 0000 0000 		.long	0x0
 5589               	.LLST31:
 5590 0465 780C 0000 		.long	.LVL89-.Ltext0
 5591 0469 A40C 0000 		.long	.LVL93-.Ltext0
 5592 046d 0100      		.word	0x1
 5593 046f 64        		.byte	0x64
 5594 0470 A40C 0000 		.long	.LVL93-.Ltext0
 5595 0474 FC0D 0000 		.long	.LVL100-.Ltext0
 5596 0478 0100      		.word	0x1
 5597 047a 5D        		.byte	0x5d
 5598 047b FE0D 0000 		.long	.LVL101-.Ltext0
 5599 047f 3610 0000 		.long	.LFE14-.Ltext0
 5600 0483 0100      		.word	0x1
 5601 0485 5D        		.byte	0x5d
 5602 0486 0000 0000 		.long	0x0
 5603 048a 0000 0000 		.long	0x0
 5604               	.LLST32:
 5605 048e 780C 0000 		.long	.LVL89-.Ltext0
 5606 0492 AC0C 0000 		.long	.LVL94-.Ltext0
 5607 0496 0100      		.word	0x1
 5608 0498 62        		.byte	0x62
 5609 0499 AC0C 0000 		.long	.LVL94-.Ltext0
 5610 049d F40D 0000 		.long	.LVL96-.Ltext0
 5611 04a1 0100      		.word	0x1
 5612 04a3 61        		.byte	0x61
 5613 04a4 FE0D 0000 		.long	.LVL101-.Ltext0
 5614 04a8 3610 0000 		.long	.LFE14-.Ltext0
GAS LISTING C:\DOCUME~1\KEUNSO~1\LOCALS~1\Temp/ccIyMOV1.s 			page 100


 5615 04ac 0100      		.word	0x1
 5616 04ae 61        		.byte	0x61
 5617 04af 0000 0000 		.long	0x0
 5618 04b3 0000 0000 		.long	0x0
 5619               	.LLST33:
 5620 04b7 780C 0000 		.long	.LVL89-.Ltext0
 5621 04bb 800C 0000 		.long	.LVL90-.Ltext0
 5622 04bf 0100      		.word	0x1
 5623 04c1 60        		.byte	0x60
 5624 04c2 140D 0000 		.long	.LVL95-.Ltext0
 5625 04c6 F60D 0000 		.long	.LVL97-.Ltext0
 5626 04ca 0100      		.word	0x1
 5627 04cc 60        		.byte	0x60
 5628 04cd 640E 0000 		.long	.LVL102-.Ltext0
 5629 04d1 820F 0000 		.long	.LVL103-.Ltext0
 5630 04d5 0100      		.word	0x1
 5631 04d7 60        		.byte	0x60
 5632 04d8 A00F 0000 		.long	.LVL104-.Ltext0
 5633 04dc BE0F 0000 		.long	.LVL105-.Ltext0
 5634 04e0 0100      		.word	0x1
 5635 04e2 60        		.byte	0x60
 5636 04e3 FA0F 0000 		.long	.LVL106-.Ltext0
 5637 04e7 3610 0000 		.long	.LFE14-.Ltext0
 5638 04eb 0100      		.word	0x1
 5639 04ed 60        		.byte	0x60
 5640 04ee 0000 0000 		.long	0x0
 5641 04f2 0000 0000 		.long	0x0
 5642               	.LLST35:
 5643 04f6 3610 0000 		.long	.LVL107-.Ltext0
 5644 04fa 8810 0000 		.long	.LVL108-.Ltext0
 5645 04fe 0600      		.word	0x6
 5646 0500 68        		.byte	0x68
 5647 0501 93        		.byte	0x93
 5648 0502 01        		.uleb128 0x1
 5649 0503 69        		.byte	0x69
 5650 0504 93        		.byte	0x93
 5651 0505 01        		.uleb128 0x1
 5652 0506 8810 0000 		.long	.LVL108-.Ltext0
 5653 050a 7E14 0000 		.long	.LFE4-.Ltext0
 5654 050e 0200      		.word	0x2
 5655 0510 8C        		.byte	0x8c
 5656 0511 04        		.sleb128 4
 5657 0512 0000 0000 		.long	0x0
 5658 0516 0000 0000 		.long	0x0
 5659               	.LLST37:
 5660 051a 7E14 0000 		.long	.LVL110-.Ltext0
 5661 051e BC14 0000 		.long	.LVL111-.Ltext0
 5662 0522 0600      		.word	0x6
 5663 0524 68        		.byte	0x68
 5664 0525 93        		.byte	0x93
 5665 0526 01        		.uleb128 0x1
 5666 0527 69        		.byte	0x69
 5667 0528 93        		.byte	0x93
 5668 0529 01        		.uleb128 0x1
 5669 052a 0416 0000 		.long	.LVL114-.Ltext0
 5670 052e 0816 0000 		.long	.LVL115-.Ltext0
 5671 0532 0600      		.word	0x6
GAS LISTING C:\DOCUME~1\KEUNSO~1\LOCALS~1\Temp/ccIyMOV1.s 			page 101


 5672 0534 68        		.byte	0x68
 5673 0535 93        		.byte	0x93
 5674 0536 01        		.uleb128 0x1
 5675 0537 69        		.byte	0x69
 5676 0538 93        		.byte	0x93
 5677 0539 01        		.uleb128 0x1
 5678 053a 2216 0000 		.long	.LVL116-.Ltext0
 5679 053e 2A16 0000 		.long	.LVL117-.Ltext0
 5680 0542 0600      		.word	0x6
 5681 0544 68        		.byte	0x68
 5682 0545 93        		.byte	0x93
 5683 0546 01        		.uleb128 0x1
 5684 0547 69        		.byte	0x69
 5685 0548 93        		.byte	0x93
 5686 0549 01        		.uleb128 0x1
 5687 054a 0000 0000 		.long	0x0
 5688 054e 0000 0000 		.long	0x0
 5689               	.LLST38:
 5690 0552 A616 0000 		.long	.LVL120-.Ltext0
 5691 0556 FE16 0000 		.long	.LVL121-.Ltext0
 5692 055a 0100      		.word	0x1
 5693 055c 61        		.byte	0x61
 5694 055d 0000 0000 		.long	0x0
 5695 0561 0000 0000 		.long	0x0
 5696               	.LLST39:
 5697 0565 7A15 0000 		.long	.LVL112-.Ltext0
 5698 0569 C815 0000 		.long	.LVL113-.Ltext0
 5699 056d 0600      		.word	0x6
 5700 056f 60        		.byte	0x60
 5701 0570 93        		.byte	0x93
 5702 0571 01        		.uleb128 0x1
 5703 0572 61        		.byte	0x61
 5704 0573 93        		.byte	0x93
 5705 0574 01        		.uleb128 0x1
 5706 0575 4616 0000 		.long	.LVL118-.Ltext0
 5707 0579 5216 0000 		.long	.LVL119-.Ltext0
 5708 057d 0600      		.word	0x6
 5709 057f 60        		.byte	0x60
 5710 0580 93        		.byte	0x93
 5711 0581 01        		.uleb128 0x1
 5712 0582 61        		.byte	0x61
 5713 0583 93        		.byte	0x93
 5714 0584 01        		.uleb128 0x1
 5715 0585 CC18 0000 		.long	.LVL126-.Ltext0
 5716 0589 E818 0000 		.long	.LVL127-.Ltext0
 5717 058d 0600      		.word	0x6
 5718 058f 60        		.byte	0x60
 5719 0590 93        		.byte	0x93
 5720 0591 01        		.uleb128 0x1
 5721 0592 61        		.byte	0x61
 5722 0593 93        		.byte	0x93
 5723 0594 01        		.uleb128 0x1
 5724 0595 0000 0000 		.long	0x0
 5725 0599 0000 0000 		.long	0x0
 5726               	.LLST40:
 5727 059d 7C17 0000 		.long	.LVL122-.Ltext0
 5728 05a1 9C17 0000 		.long	.LVL123-.Ltext0
GAS LISTING C:\DOCUME~1\KEUNSO~1\LOCALS~1\Temp/ccIyMOV1.s 			page 102


 5729 05a5 0600      		.word	0x6
 5730 05a7 62        		.byte	0x62
 5731 05a8 93        		.byte	0x93
 5732 05a9 01        		.uleb128 0x1
 5733 05aa 63        		.byte	0x63
 5734 05ab 93        		.byte	0x93
 5735 05ac 01        		.uleb128 0x1
 5736 05ad 0000 0000 		.long	0x0
 5737 05b1 0000 0000 		.long	0x0
 5738               	.LLST41:
 5739 05b5 F017 0000 		.long	.LVL124-.Ltext0
 5740 05b9 1018 0000 		.long	.LVL125-.Ltext0
 5741 05bd 0600      		.word	0x6
 5742 05bf 62        		.byte	0x62
 5743 05c0 93        		.byte	0x93
 5744 05c1 01        		.uleb128 0x1
 5745 05c2 63        		.byte	0x63
 5746 05c3 93        		.byte	0x93
 5747 05c4 01        		.uleb128 0x1
 5748 05c5 0000 0000 		.long	0x0
 5749 05c9 0000 0000 		.long	0x0
 5750               		.section	.debug_info
 5751 0000 B50F 0000 		.long	0xfb5
 5752 0004 0200      		.word	0x2
 5753 0006 0000 0000 		.long	.Ldebug_abbrev0
 5754 000a 04        		.byte	0x4
 5755 000b 01        		.uleb128 0x1
 5756 000c 0000 0000 		.long	.LASF49
 5757 0010 01        		.byte	0x1
 5758 0011 0000 0000 		.long	.LASF50
 5759 0015 0000 0000 		.long	.LASF51
 5760 0019 0000 0000 		.long	.Ltext0
 5761 001d 0000 0000 		.long	.Letext0
 5762 0021 0000 0000 		.long	.Ldebug_line0
 5763 0025 02        		.uleb128 0x2
 5764 0026 01        		.byte	0x1
 5765 0027 06        		.byte	0x6
 5766 0028 0000 0000 		.long	.LASF0
 5767 002c 02        		.uleb128 0x2
 5768 002d 01        		.byte	0x1
 5769 002e 08        		.byte	0x8
 5770 002f 0000 0000 		.long	.LASF1
 5771 0033 03        		.uleb128 0x3
 5772 0034 02        		.byte	0x2
 5773 0035 05        		.byte	0x5
 5774 0036 696E 7400 		.string	"int"
 5775 003a 02        		.uleb128 0x2
 5776 003b 02        		.byte	0x2
 5777 003c 07        		.byte	0x7
 5778 003d 0000 0000 		.long	.LASF2
 5779 0041 02        		.uleb128 0x2
 5780 0042 04        		.byte	0x4
 5781 0043 05        		.byte	0x5
 5782 0044 0000 0000 		.long	.LASF3
 5783 0048 02        		.uleb128 0x2
 5784 0049 04        		.byte	0x4
 5785 004a 07        		.byte	0x7
GAS LISTING C:\DOCUME~1\KEUNSO~1\LOCALS~1\Temp/ccIyMOV1.s 			page 103


 5786 004b 0000 0000 		.long	.LASF4
 5787 004f 02        		.uleb128 0x2
 5788 0050 08        		.byte	0x8
 5789 0051 05        		.byte	0x5
 5790 0052 0000 0000 		.long	.LASF5
 5791 0056 02        		.uleb128 0x2
 5792 0057 08        		.byte	0x8
 5793 0058 07        		.byte	0x7
 5794 0059 0000 0000 		.long	.LASF6
 5795 005d 04        		.uleb128 0x4
 5796 005e 0000 0000 		.long	.LASF7
 5797 0062 02        		.byte	0x2
 5798 0063 28        		.byte	0x28
 5799 0064 2C00 0000 		.long	0x2c
 5800 0068 04        		.uleb128 0x4
 5801 0069 0000 0000 		.long	.LASF8
 5802 006d 02        		.byte	0x2
 5803 006e 29        		.byte	0x29
 5804 006f 2500 0000 		.long	0x25
 5805 0073 04        		.uleb128 0x4
 5806 0074 0000 0000 		.long	.LASF9
 5807 0078 02        		.byte	0x2
 5808 0079 2A        		.byte	0x2a
 5809 007a 3A00 0000 		.long	0x3a
 5810 007e 04        		.uleb128 0x4
 5811 007f 0000 0000 		.long	.LASF10
 5812 0083 02        		.byte	0x2
 5813 0084 2C        		.byte	0x2c
 5814 0085 4800 0000 		.long	0x48
 5815 0089 02        		.uleb128 0x2
 5816 008a 04        		.byte	0x4
 5817 008b 04        		.byte	0x4
 5818 008c 0000 0000 		.long	.LASF11
 5819 0090 04        		.uleb128 0x4
 5820 0091 0000 0000 		.long	.LASF12
 5821 0095 02        		.byte	0x2
 5822 0096 30        		.byte	0x30
 5823 0097 2C00 0000 		.long	0x2c
 5824 009b 05        		.uleb128 0x5
 5825 009c 28        		.byte	0x28
 5826 009d 03        		.byte	0x3
 5827 009e EC        		.byte	0xec
 5828 009f F800 0000 		.long	0xf8
 5829 00a3 06        		.uleb128 0x6
 5830 00a4 0000 0000 		.long	.LASF13
 5831 00a8 03        		.byte	0x3
 5832 00a9 ED        		.byte	0xed
 5833 00aa 5D00 0000 		.long	0x5d
 5834 00ae 02        		.byte	0x2
 5835 00af 23        		.byte	0x23
 5836 00b0 00        		.uleb128 0x0
 5837 00b1 06        		.uleb128 0x6
 5838 00b2 0000 0000 		.long	.LASF14
 5839 00b6 03        		.byte	0x3
 5840 00b7 EE        		.byte	0xee
 5841 00b8 5D00 0000 		.long	0x5d
 5842 00bc 02        		.byte	0x2
GAS LISTING C:\DOCUME~1\KEUNSO~1\LOCALS~1\Temp/ccIyMOV1.s 			page 104


 5843 00bd 23        		.byte	0x23
 5844 00be 01        		.uleb128 0x1
 5845 00bf 06        		.uleb128 0x6
 5846 00c0 0000 0000 		.long	.LASF15
 5847 00c4 03        		.byte	0x3
 5848 00c5 EF        		.byte	0xef
 5849 00c6 7300 0000 		.long	0x73
 5850 00ca 02        		.byte	0x2
 5851 00cb 23        		.byte	0x23
 5852 00cc 02        		.uleb128 0x2
 5853 00cd 06        		.uleb128 0x6
 5854 00ce 0000 0000 		.long	.LASF16
 5855 00d2 03        		.byte	0x3
 5856 00d3 F0        		.byte	0xf0
 5857 00d4 F800 0000 		.long	0xf8
 5858 00d8 02        		.byte	0x2
 5859 00d9 23        		.byte	0x23
 5860 00da 04        		.uleb128 0x4
 5861 00db 06        		.uleb128 0x6
 5862 00dc 0000 0000 		.long	.LASF17
 5863 00e0 03        		.byte	0x3
 5864 00e1 F1        		.byte	0xf1
 5865 00e2 FA00 0000 		.long	0xfa
 5866 00e6 02        		.byte	0x2
 5867 00e7 23        		.byte	0x23
 5868 00e8 06        		.uleb128 0x6
 5869 00e9 06        		.uleb128 0x6
 5870 00ea 0000 0000 		.long	.LASF18
 5871 00ee 03        		.byte	0x3
 5872 00ef F3        		.byte	0xf3
 5873 00f0 0D01 0000 		.long	0x10d
 5874 00f4 02        		.byte	0x2
 5875 00f5 23        		.byte	0x23
 5876 00f6 08        		.uleb128 0x8
 5877 00f7 00        		.byte	0x0
 5878 00f8 07        		.uleb128 0x7
 5879 00f9 02        		.byte	0x2
 5880 00fa 08        		.uleb128 0x8
 5881 00fb 5D00 0000 		.long	0x5d
 5882 00ff 0A01 0000 		.long	0x10a
 5883 0103 09        		.uleb128 0x9
 5884 0104 0A01 0000 		.long	0x10a
 5885 0108 01        		.byte	0x1
 5886 0109 00        		.byte	0x0
 5887 010a 0A        		.uleb128 0xa
 5888 010b 02        		.byte	0x2
 5889 010c 07        		.byte	0x7
 5890 010d 08        		.uleb128 0x8
 5891 010e 1D01 0000 		.long	0x11d
 5892 0112 1D01 0000 		.long	0x11d
 5893 0116 09        		.uleb128 0x9
 5894 0117 0A01 0000 		.long	0x10a
 5895 011b 1F        		.byte	0x1f
 5896 011c 00        		.byte	0x0
 5897 011d 02        		.uleb128 0x2
 5898 011e 01        		.byte	0x1
 5899 011f 06        		.byte	0x6
GAS LISTING C:\DOCUME~1\KEUNSO~1\LOCALS~1\Temp/ccIyMOV1.s 			page 105


 5900 0120 0000 0000 		.long	.LASF19
 5901 0124 04        		.uleb128 0x4
 5902 0125 0000 0000 		.long	.LASF20
 5903 0129 03        		.byte	0x3
 5904 012a F5        		.byte	0xf5
 5905 012b 9B00 0000 		.long	0x9b
 5906 012f 0B        		.uleb128 0xb
 5907 0130 02        		.byte	0x2
 5908 0131 2401 0000 		.long	0x124
 5909 0135 0C        		.uleb128 0xc
 5910 0136 01        		.byte	0x1
 5911 0137 0000 0000 		.long	.LASF52
 5912 013b 01        		.byte	0x1
 5913 013c B8        		.byte	0xb8
 5914 013d 01        		.byte	0x1
 5915 013e 01        		.byte	0x1
 5916 013f 0D        		.uleb128 0xd
 5917 0140 3501 0000 		.long	0x135
 5918 0144 0000 0000 		.long	.LFB6
 5919 0148 0000 0000 		.long	.LFE6
 5920 014c 02        		.byte	0x2
 5921 014d 90        		.byte	0x90
 5922 014e 20        		.uleb128 0x20
 5923 014f 0E        		.uleb128 0xe
 5924 0150 01        		.byte	0x1
 5925 0151 0000 0000 		.long	.LASF21
 5926 0155 01        		.byte	0x1
 5927 0156 E6        		.byte	0xe6
 5928 0157 01        		.byte	0x1
 5929 0158 01        		.byte	0x1
 5930 0159 8201 0000 		.long	0x182
 5931 015d 0F        		.uleb128 0xf
 5932 015e 7300      		.string	"s"
 5933 0160 01        		.byte	0x1
 5934 0161 E5        		.byte	0xe5
 5935 0162 8201 0000 		.long	0x182
 5936 0166 0F        		.uleb128 0xf
 5937 0167 7800      		.string	"x"
 5938 0169 01        		.byte	0x1
 5939 016a E5        		.byte	0xe5
 5940 016b 7300 0000 		.long	0x73
 5941 016f 0F        		.uleb128 0xf
 5942 0170 6E00      		.string	"n"
 5943 0172 01        		.byte	0x1
 5944 0173 E5        		.byte	0xe5
 5945 0174 5D00 0000 		.long	0x5d
 5946 0178 10        		.uleb128 0x10
 5947 0179 6900      		.string	"i"
 5948 017b 01        		.byte	0x1
 5949 017c E7        		.byte	0xe7
 5950 017d 5D00 0000 		.long	0x5d
 5951 0181 00        		.byte	0x0
 5952 0182 0B        		.uleb128 0xb
 5953 0183 02        		.byte	0x2
 5954 0184 1D01 0000 		.long	0x11d
 5955 0188 11        		.uleb128 0x11
 5956 0189 4F01 0000 		.long	0x14f
GAS LISTING C:\DOCUME~1\KEUNSO~1\LOCALS~1\Temp/ccIyMOV1.s 			page 106


 5957 018d 0000 0000 		.long	.LFB9
 5958 0191 0000 0000 		.long	.LFE9
 5959 0195 02        		.byte	0x2
 5960 0196 90        		.byte	0x90
 5961 0197 20        		.uleb128 0x20
 5962 0198 BF01 0000 		.long	0x1bf
 5963 019c 12        		.uleb128 0x12
 5964 019d 5D01 0000 		.long	0x15d
 5965 01a1 0000 0000 		.long	.LLST2
 5966 01a5 12        		.uleb128 0x12
 5967 01a6 6601 0000 		.long	0x166
 5968 01aa 0000 0000 		.long	.LLST3
 5969 01ae 13        		.uleb128 0x13
 5970 01af 6F01 0000 		.long	0x16f
 5971 01b3 01        		.byte	0x1
 5972 01b4 64        		.byte	0x64
 5973 01b5 14        		.uleb128 0x14
 5974 01b6 7801 0000 		.long	0x178
 5975 01ba 0000 0000 		.long	.LLST4
 5976 01be 00        		.byte	0x0
 5977 01bf 15        		.uleb128 0x15
 5978 01c0 01        		.byte	0x1
 5979 01c1 0000 0000 		.long	.LASF53
 5980 01c5 01        		.byte	0x1
 5981 01c6 FA        		.byte	0xfa
 5982 01c7 01        		.byte	0x1
 5983 01c8 5D00 0000 		.long	0x5d
 5984 01cc 01        		.byte	0x1
 5985 01cd DB01 0000 		.long	0x1db
 5986 01d1 0F        		.uleb128 0xf
 5987 01d2 6E00      		.string	"n"
 5988 01d4 01        		.byte	0x1
 5989 01d5 F9        		.byte	0xf9
 5990 01d6 5D00 0000 		.long	0x5d
 5991 01da 00        		.byte	0x0
 5992 01db 11        		.uleb128 0x11
 5993 01dc BF01 0000 		.long	0x1bf
 5994 01e0 0000 0000 		.long	.LFB10
 5995 01e4 0000 0000 		.long	.LFE10
 5996 01e8 02        		.byte	0x2
 5997 01e9 90        		.byte	0x90
 5998 01ea 20        		.uleb128 0x20
 5999 01eb F901 0000 		.long	0x1f9
 6000 01ef 12        		.uleb128 0x12
 6001 01f0 D101 0000 		.long	0x1d1
 6002 01f4 0000 0000 		.long	.LLST6
 6003 01f8 00        		.byte	0x0
 6004 01f9 0E        		.uleb128 0xe
 6005 01fa 01        		.byte	0x1
 6006 01fb 0000 0000 		.long	.LASF22
 6007 01ff 01        		.byte	0x1
 6008 0200 C9        		.byte	0xc9
 6009 0201 01        		.byte	0x1
 6010 0202 01        		.byte	0x1
 6011 0203 1C02 0000 		.long	0x21c
 6012 0207 0F        		.uleb128 0xf
 6013 0208 6300      		.string	"c"
GAS LISTING C:\DOCUME~1\KEUNSO~1\LOCALS~1\Temp/ccIyMOV1.s 			page 107


 6014 020a 01        		.byte	0x1
 6015 020b C8        		.byte	0xc8
 6016 020c 1D01 0000 		.long	0x11d
 6017 0210 10        		.uleb128 0x10
 6018 0211 6572 7200 		.string	"err"
 6019 0215 01        		.byte	0x1
 6020 0216 CA        		.byte	0xca
 6021 0217 5D00 0000 		.long	0x5d
 6022 021b 00        		.byte	0x0
 6023 021c 11        		.uleb128 0x11
 6024 021d F901 0000 		.long	0x1f9
 6025 0221 0000 0000 		.long	.LFB7
 6026 0225 0000 0000 		.long	.LFE7
 6027 0229 02        		.byte	0x2
 6028 022a 90        		.byte	0x90
 6029 022b 20        		.uleb128 0x20
 6030 022c 4202 0000 		.long	0x242
 6031 0230 12        		.uleb128 0x12
 6032 0231 0702 0000 		.long	0x207
 6033 0235 0000 0000 		.long	.LLST8
 6034 0239 16        		.uleb128 0x16
 6035 023a 1002 0000 		.long	0x210
 6036 023e 02        		.byte	0x2
 6037 023f 8C        		.byte	0x8c
 6038 0240 01        		.sleb128 1
 6039 0241 00        		.byte	0x0
 6040 0242 17        		.uleb128 0x17
 6041 0243 01        		.byte	0x1
 6042 0244 0000 0000 		.long	.LASF54
 6043 0248 01        		.byte	0x1
 6044 0249 AC        		.byte	0xac
 6045 024a 01        		.byte	0x1
 6046 024b 0000 0000 		.long	.LFB5
 6047 024f 0000 0000 		.long	.LFE5
 6048 0253 02        		.byte	0x2
 6049 0254 90        		.byte	0x90
 6050 0255 20        		.uleb128 0x20
 6051 0256 18        		.uleb128 0x18
 6052 0257 01        		.byte	0x1
 6053 0258 0000 0000 		.long	.LASF55
 6054 025c 01        		.byte	0x1
 6055 025d 59        		.byte	0x59
 6056 025e 01        		.byte	0x1
 6057 025f 3300 0000 		.long	0x33
 6058 0263 0000 0000 		.long	.LFB2
 6059 0267 0000 0000 		.long	.LFE2
 6060 026b 02        		.byte	0x2
 6061 026c 90        		.byte	0x90
 6062 026d 20        		.uleb128 0x20
 6063 026e 8202 0000 		.long	0x282
 6064 0272 19        		.uleb128 0x19
 6065 0273 3501 0000 		.long	0x135
 6066 0277 0000 0000 		.long	.LBB4
 6067 027b 0000 0000 		.long	.LBE4
 6068 027f 01        		.byte	0x1
 6069 0280 5A        		.byte	0x5a
 6070 0281 00        		.byte	0x0
GAS LISTING C:\DOCUME~1\KEUNSO~1\LOCALS~1\Temp/ccIyMOV1.s 			page 108


 6071 0282 0E        		.uleb128 0xe
 6072 0283 01        		.byte	0x1
 6073 0284 0000 0000 		.long	.LASF23
 6074 0288 01        		.byte	0x1
 6075 0289 DE        		.byte	0xde
 6076 028a 01        		.byte	0x1
 6077 028b 01        		.byte	0x1
 6078 028c A802 0000 		.long	0x2a8
 6079 0290 0F        		.uleb128 0xf
 6080 0291 7300      		.string	"s"
 6081 0293 01        		.byte	0x1
 6082 0294 DD        		.byte	0xdd
 6083 0295 A802 0000 		.long	0x2a8
 6084 0299 1A        		.uleb128 0x1a
 6085 029a 1B        		.uleb128 0x1b
 6086 029b 3002 0000 		.long	0x230
 6087 029f 1A        		.uleb128 0x1a
 6088 02a0 1C        		.uleb128 0x1c
 6089 02a1 1002 0000 		.long	0x210
 6090 02a5 00        		.byte	0x0
 6091 02a6 00        		.byte	0x0
 6092 02a7 00        		.byte	0x0
 6093 02a8 0B        		.uleb128 0xb
 6094 02a9 02        		.byte	0x2
 6095 02aa AE02 0000 		.long	0x2ae
 6096 02ae 1D        		.uleb128 0x1d
 6097 02af 1D01 0000 		.long	0x11d
 6098 02b3 11        		.uleb128 0x11
 6099 02b4 8202 0000 		.long	0x282
 6100 02b8 0000 0000 		.long	.LFB8
 6101 02bc 0000 0000 		.long	.LFE8
 6102 02c0 02        		.byte	0x2
 6103 02c1 90        		.byte	0x90
 6104 02c2 20        		.uleb128 0x20
 6105 02c3 F002 0000 		.long	0x2f0
 6106 02c7 12        		.uleb128 0x12
 6107 02c8 9002 0000 		.long	0x290
 6108 02cc 0000 0000 		.long	.LLST12
 6109 02d0 1E        		.uleb128 0x1e
 6110 02d1 F901 0000 		.long	0x1f9
 6111 02d5 0000 0000 		.long	.Ldebug_ranges0+0x0
 6112 02d9 01        		.byte	0x1
 6113 02da E0        		.byte	0xe0
 6114 02db 1B        		.uleb128 0x1b
 6115 02dc 3002 0000 		.long	0x230
 6116 02e0 1F        		.uleb128 0x1f
 6117 02e1 0000 0000 		.long	.Ldebug_ranges0+0x20
 6118 02e5 16        		.uleb128 0x16
 6119 02e6 1002 0000 		.long	0x210
 6120 02ea 02        		.byte	0x2
 6121 02eb 8C        		.byte	0x8c
 6122 02ec 01        		.sleb128 1
 6123 02ed 00        		.byte	0x0
 6124 02ee 00        		.byte	0x0
 6125 02ef 00        		.byte	0x0
 6126 02f0 20        		.uleb128 0x20
 6127 02f1 01        		.byte	0x1
GAS LISTING C:\DOCUME~1\KEUNSO~1\LOCALS~1\Temp/ccIyMOV1.s 			page 109


 6128 02f2 0000 0000 		.long	.LASF28
 6129 02f6 01        		.byte	0x1
 6130 02f7 0101      		.word	0x101
 6131 02f9 01        		.byte	0x1
 6132 02fa 0000 0000 		.long	.LFB11
 6133 02fe 0000 0000 		.long	.LFE11
 6134 0302 02        		.byte	0x2
 6135 0303 90        		.byte	0x90
 6136 0304 20        		.uleb128 0x20
 6137 0305 9B03 0000 		.long	0x39b
 6138 0309 21        		.uleb128 0x21
 6139 030a 7832 00   		.string	"x2"
 6140 030d 01        		.byte	0x1
 6141 030e 0001      		.word	0x100
 6142 0310 5D00 0000 		.long	0x5d
 6143 0314 0000 0000 		.long	.LLST14
 6144 0318 22        		.uleb128 0x22
 6145 0319 7830 00   		.string	"x0"
 6146 031c 01        		.byte	0x1
 6147 031d 0201      		.word	0x102
 6148 031f 5D00 0000 		.long	0x5d
 6149 0323 23        		.uleb128 0x23
 6150 0324 7831 00   		.string	"x1"
 6151 0327 01        		.byte	0x1
 6152 0328 0301      		.word	0x103
 6153 032a 5D00 0000 		.long	0x5d
 6154 032e 0000 0000 		.long	.LLST15
 6155 0332 24        		.uleb128 0x24
 6156 0333 F901 0000 		.long	0x1f9
 6157 0337 0000 0000 		.long	.Ldebug_ranges0+0x40
 6158 033b 01        		.byte	0x1
 6159 033c 0E01      		.word	0x10e
 6160 033e 5603 0000 		.long	0x356
 6161 0342 1B        		.uleb128 0x1b
 6162 0343 3002 0000 		.long	0x230
 6163 0347 1F        		.uleb128 0x1f
 6164 0348 0000 0000 		.long	.Ldebug_ranges0+0x58
 6165 034c 16        		.uleb128 0x16
 6166 034d 1002 0000 		.long	0x210
 6167 0351 02        		.byte	0x2
 6168 0352 8C        		.byte	0x8c
 6169 0353 01        		.sleb128 1
 6170 0354 00        		.byte	0x0
 6171 0355 00        		.byte	0x0
 6172 0356 24        		.uleb128 0x24
 6173 0357 F901 0000 		.long	0x1f9
 6174 035b 0000 0000 		.long	.Ldebug_ranges0+0x70
 6175 035f 01        		.byte	0x1
 6176 0360 1001      		.word	0x110
 6177 0362 7A03 0000 		.long	0x37a
 6178 0366 1B        		.uleb128 0x1b
 6179 0367 3002 0000 		.long	0x230
 6180 036b 1F        		.uleb128 0x1f
 6181 036c 0000 0000 		.long	.Ldebug_ranges0+0x90
 6182 0370 16        		.uleb128 0x16
 6183 0371 1002 0000 		.long	0x210
 6184 0375 02        		.byte	0x2
GAS LISTING C:\DOCUME~1\KEUNSO~1\LOCALS~1\Temp/ccIyMOV1.s 			page 110


 6185 0376 8C        		.byte	0x8c
 6186 0377 01        		.sleb128 1
 6187 0378 00        		.byte	0x0
 6188 0379 00        		.byte	0x0
 6189 037a 25        		.uleb128 0x25
 6190 037b F901 0000 		.long	0x1f9
 6191 037f 0000 0000 		.long	.Ldebug_ranges0+0xb0
 6192 0383 01        		.byte	0x1
 6193 0384 0B01      		.word	0x10b
 6194 0386 1B        		.uleb128 0x1b
 6195 0387 3002 0000 		.long	0x230
 6196 038b 1F        		.uleb128 0x1f
 6197 038c 0000 0000 		.long	.Ldebug_ranges0+0xc8
 6198 0390 16        		.uleb128 0x16
 6199 0391 1002 0000 		.long	0x210
 6200 0395 02        		.byte	0x2
 6201 0396 8C        		.byte	0x8c
 6202 0397 01        		.sleb128 1
 6203 0398 00        		.byte	0x0
 6204 0399 00        		.byte	0x0
 6205 039a 00        		.byte	0x0
 6206 039b 26        		.uleb128 0x26
 6207 039c 01        		.byte	0x1
 6208 039d 0000 0000 		.long	.LASF24
 6209 03a1 01        		.byte	0x1
 6210 03a2 1501      		.word	0x115
 6211 03a4 01        		.byte	0x1
 6212 03a5 01        		.byte	0x1
 6213 03a6 0704 0000 		.long	0x407
 6214 03aa 27        		.uleb128 0x27
 6215 03ab 0000 0000 		.long	.LASF25
 6216 03af 01        		.byte	0x1
 6217 03b0 1401      		.word	0x114
 6218 03b2 5D00 0000 		.long	0x5d
 6219 03b6 27        		.uleb128 0x27
 6220 03b7 0000 0000 		.long	.LASF26
 6221 03bb 01        		.byte	0x1
 6222 03bc 1401      		.word	0x114
 6223 03be 5D00 0000 		.long	0x5d
 6224 03c2 28        		.uleb128 0x28
 6225 03c3 D403 0000 		.long	0x3d4
 6226 03c7 1B        		.uleb128 0x1b
 6227 03c8 3002 0000 		.long	0x230
 6228 03cc 1A        		.uleb128 0x1a
 6229 03cd 1C        		.uleb128 0x1c
 6230 03ce 1002 0000 		.long	0x210
 6231 03d2 00        		.byte	0x0
 6232 03d3 00        		.byte	0x0
 6233 03d4 28        		.uleb128 0x28
 6234 03d5 E603 0000 		.long	0x3e6
 6235 03d9 1B        		.uleb128 0x1b
 6236 03da 3002 0000 		.long	0x230
 6237 03de 1A        		.uleb128 0x1a
 6238 03df 1C        		.uleb128 0x1c
 6239 03e0 1002 0000 		.long	0x210
 6240 03e4 00        		.byte	0x0
 6241 03e5 00        		.byte	0x0
GAS LISTING C:\DOCUME~1\KEUNSO~1\LOCALS~1\Temp/ccIyMOV1.s 			page 111


 6242 03e6 28        		.uleb128 0x28
 6243 03e7 F803 0000 		.long	0x3f8
 6244 03eb 1B        		.uleb128 0x1b
 6245 03ec 3002 0000 		.long	0x230
 6246 03f0 1A        		.uleb128 0x1a
 6247 03f1 1C        		.uleb128 0x1c
 6248 03f2 1002 0000 		.long	0x210
 6249 03f6 00        		.byte	0x0
 6250 03f7 00        		.byte	0x0
 6251 03f8 1A        		.uleb128 0x1a
 6252 03f9 1B        		.uleb128 0x1b
 6253 03fa 3002 0000 		.long	0x230
 6254 03fe 1A        		.uleb128 0x1a
 6255 03ff 1C        		.uleb128 0x1c
 6256 0400 1002 0000 		.long	0x210
 6257 0404 00        		.byte	0x0
 6258 0405 00        		.byte	0x0
 6259 0406 00        		.byte	0x0
 6260 0407 11        		.uleb128 0x11
 6261 0408 9B03 0000 		.long	0x39b
 6262 040c 0000 0000 		.long	.LFB12
 6263 0410 0000 0000 		.long	.LFE12
 6264 0414 02        		.byte	0x2
 6265 0415 90        		.byte	0x90
 6266 0416 20        		.uleb128 0x20
 6267 0417 BA04 0000 		.long	0x4ba
 6268 041b 12        		.uleb128 0x12
 6269 041c AA03 0000 		.long	0x3aa
 6270 0420 0000 0000 		.long	.LLST17
 6271 0424 12        		.uleb128 0x12
 6272 0425 B603 0000 		.long	0x3b6
 6273 0429 0000 0000 		.long	.LLST18
 6274 042d 24        		.uleb128 0x24
 6275 042e F901 0000 		.long	0x1f9
 6276 0432 0000 0000 		.long	.Ldebug_ranges0+0xe0
 6277 0436 01        		.byte	0x1
 6278 0437 1601      		.word	0x116
 6279 0439 5104 0000 		.long	0x451
 6280 043d 1B        		.uleb128 0x1b
 6281 043e 3002 0000 		.long	0x230
 6282 0442 1F        		.uleb128 0x1f
 6283 0443 0000 0000 		.long	.Ldebug_ranges0+0x100
 6284 0447 16        		.uleb128 0x16
 6285 0448 1002 0000 		.long	0x210
 6286 044c 02        		.byte	0x2
 6287 044d 8C        		.byte	0x8c
 6288 044e 01        		.sleb128 1
 6289 044f 00        		.byte	0x0
 6290 0450 00        		.byte	0x0
 6291 0451 24        		.uleb128 0x24
 6292 0452 F901 0000 		.long	0x1f9
 6293 0456 0000 0000 		.long	.Ldebug_ranges0+0x120
 6294 045a 01        		.byte	0x1
 6295 045b 1701      		.word	0x117
 6296 045d 7504 0000 		.long	0x475
 6297 0461 1B        		.uleb128 0x1b
 6298 0462 3002 0000 		.long	0x230
GAS LISTING C:\DOCUME~1\KEUNSO~1\LOCALS~1\Temp/ccIyMOV1.s 			page 112


 6299 0466 1F        		.uleb128 0x1f
 6300 0467 0000 0000 		.long	.Ldebug_ranges0+0x138
 6301 046b 16        		.uleb128 0x16
 6302 046c 1002 0000 		.long	0x210
 6303 0470 02        		.byte	0x2
 6304 0471 8C        		.byte	0x8c
 6305 0472 01        		.sleb128 1
 6306 0473 00        		.byte	0x0
 6307 0474 00        		.byte	0x0
 6308 0475 24        		.uleb128 0x24
 6309 0476 F901 0000 		.long	0x1f9
 6310 047a 0000 0000 		.long	.Ldebug_ranges0+0x150
 6311 047e 01        		.byte	0x1
 6312 047f 1901      		.word	0x119
 6313 0481 9904 0000 		.long	0x499
 6314 0485 1B        		.uleb128 0x1b
 6315 0486 3002 0000 		.long	0x230
 6316 048a 1F        		.uleb128 0x1f
 6317 048b 0000 0000 		.long	.Ldebug_ranges0+0x168
 6318 048f 16        		.uleb128 0x16
 6319 0490 1002 0000 		.long	0x210
 6320 0494 02        		.byte	0x2
 6321 0495 8C        		.byte	0x8c
 6322 0496 01        		.sleb128 1
 6323 0497 00        		.byte	0x0
 6324 0498 00        		.byte	0x0
 6325 0499 25        		.uleb128 0x25
 6326 049a F901 0000 		.long	0x1f9
 6327 049e 0000 0000 		.long	.Ldebug_ranges0+0x180
 6328 04a2 01        		.byte	0x1
 6329 04a3 1B01      		.word	0x11b
 6330 04a5 1B        		.uleb128 0x1b
 6331 04a6 3002 0000 		.long	0x230
 6332 04aa 1F        		.uleb128 0x1f
 6333 04ab 0000 0000 		.long	.Ldebug_ranges0+0x1a0
 6334 04af 16        		.uleb128 0x16
 6335 04b0 1002 0000 		.long	0x210
 6336 04b4 02        		.byte	0x2
 6337 04b5 8C        		.byte	0x8c
 6338 04b6 01        		.sleb128 1
 6339 04b7 00        		.byte	0x0
 6340 04b8 00        		.byte	0x0
 6341 04b9 00        		.byte	0x0
 6342 04ba 26        		.uleb128 0x26
 6343 04bb 01        		.byte	0x1
 6344 04bc 0000 0000 		.long	.LASF27
 6345 04c0 01        		.byte	0x1
 6346 04c1 2001      		.word	0x120
 6347 04c3 01        		.byte	0x1
 6348 04c4 01        		.byte	0x1
 6349 04c5 3305 0000 		.long	0x533
 6350 04c9 28        		.uleb128 0x28
 6351 04ca 1D05 0000 		.long	0x51d
 6352 04ce 1B        		.uleb128 0x1b
 6353 04cf 2404 0000 		.long	0x424
 6354 04d3 1B        		.uleb128 0x1b
 6355 04d4 1B04 0000 		.long	0x41b
GAS LISTING C:\DOCUME~1\KEUNSO~1\LOCALS~1\Temp/ccIyMOV1.s 			page 113


 6356 04d8 28        		.uleb128 0x28
 6357 04d9 EA04 0000 		.long	0x4ea
 6358 04dd 1B        		.uleb128 0x1b
 6359 04de 3002 0000 		.long	0x230
 6360 04e2 1A        		.uleb128 0x1a
 6361 04e3 1C        		.uleb128 0x1c
 6362 04e4 1002 0000 		.long	0x210
 6363 04e8 00        		.byte	0x0
 6364 04e9 00        		.byte	0x0
 6365 04ea 28        		.uleb128 0x28
 6366 04eb FC04 0000 		.long	0x4fc
 6367 04ef 1B        		.uleb128 0x1b
 6368 04f0 3002 0000 		.long	0x230
 6369 04f4 1A        		.uleb128 0x1a
 6370 04f5 1C        		.uleb128 0x1c
 6371 04f6 1002 0000 		.long	0x210
 6372 04fa 00        		.byte	0x0
 6373 04fb 00        		.byte	0x0
 6374 04fc 28        		.uleb128 0x28
 6375 04fd 0E05 0000 		.long	0x50e
 6376 0501 1B        		.uleb128 0x1b
 6377 0502 3002 0000 		.long	0x230
 6378 0506 1A        		.uleb128 0x1a
 6379 0507 1C        		.uleb128 0x1c
 6380 0508 1002 0000 		.long	0x210
 6381 050c 00        		.byte	0x0
 6382 050d 00        		.byte	0x0
 6383 050e 1A        		.uleb128 0x1a
 6384 050f 1B        		.uleb128 0x1b
 6385 0510 3002 0000 		.long	0x230
 6386 0514 1A        		.uleb128 0x1a
 6387 0515 1C        		.uleb128 0x1c
 6388 0516 1002 0000 		.long	0x210
 6389 051a 00        		.byte	0x0
 6390 051b 00        		.byte	0x0
 6391 051c 00        		.byte	0x0
 6392 051d 1A        		.uleb128 0x1a
 6393 051e 1B        		.uleb128 0x1b
 6394 051f C702 0000 		.long	0x2c7
 6395 0523 1A        		.uleb128 0x1a
 6396 0524 1B        		.uleb128 0x1b
 6397 0525 3002 0000 		.long	0x230
 6398 0529 1A        		.uleb128 0x1a
 6399 052a 1C        		.uleb128 0x1c
 6400 052b 1002 0000 		.long	0x210
 6401 052f 00        		.byte	0x0
 6402 0530 00        		.byte	0x0
 6403 0531 00        		.byte	0x0
 6404 0532 00        		.byte	0x0
 6405 0533 11        		.uleb128 0x11
 6406 0534 BA04 0000 		.long	0x4ba
 6407 0538 0000 0000 		.long	.LFB13
 6408 053c 0000 0000 		.long	.LFE13
 6409 0540 02        		.byte	0x2
 6410 0541 90        		.byte	0x90
 6411 0542 20        		.uleb128 0x20
 6412 0543 2406 0000 		.long	0x624
GAS LISTING C:\DOCUME~1\KEUNSO~1\LOCALS~1\Temp/ccIyMOV1.s 			page 114


 6413 0547 24        		.uleb128 0x24
 6414 0548 9B03 0000 		.long	0x39b
 6415 054c 0000 0000 		.long	.Ldebug_ranges0+0x1c0
 6416 0550 01        		.byte	0x1
 6417 0551 2101      		.word	0x121
 6418 0553 EE05 0000 		.long	0x5ee
 6419 0557 1B        		.uleb128 0x1b
 6420 0558 2404 0000 		.long	0x424
 6421 055c 1B        		.uleb128 0x1b
 6422 055d 1B04 0000 		.long	0x41b
 6423 0561 24        		.uleb128 0x24
 6424 0562 F901 0000 		.long	0x1f9
 6425 0566 0000 0000 		.long	.Ldebug_ranges0+0x1d8
 6426 056a 01        		.byte	0x1
 6427 056b 1B01      		.word	0x11b
 6428 056d 8505 0000 		.long	0x585
 6429 0571 1B        		.uleb128 0x1b
 6430 0572 3002 0000 		.long	0x230
 6431 0576 1F        		.uleb128 0x1f
 6432 0577 0000 0000 		.long	.Ldebug_ranges0+0x1f8
 6433 057b 16        		.uleb128 0x16
 6434 057c 1002 0000 		.long	0x210
 6435 0580 02        		.byte	0x2
 6436 0581 8C        		.byte	0x8c
 6437 0582 01        		.sleb128 1
 6438 0583 00        		.byte	0x0
 6439 0584 00        		.byte	0x0
 6440 0585 24        		.uleb128 0x24
 6441 0586 F901 0000 		.long	0x1f9
 6442 058a 0000 0000 		.long	.Ldebug_ranges0+0x218
 6443 058e 01        		.byte	0x1
 6444 058f 1901      		.word	0x119
 6445 0591 A905 0000 		.long	0x5a9
 6446 0595 1B        		.uleb128 0x1b
 6447 0596 3002 0000 		.long	0x230
 6448 059a 1F        		.uleb128 0x1f
 6449 059b 0000 0000 		.long	.Ldebug_ranges0+0x230
 6450 059f 16        		.uleb128 0x16
 6451 05a0 1002 0000 		.long	0x210
 6452 05a4 02        		.byte	0x2
 6453 05a5 8C        		.byte	0x8c
 6454 05a6 01        		.sleb128 1
 6455 05a7 00        		.byte	0x0
 6456 05a8 00        		.byte	0x0
 6457 05a9 24        		.uleb128 0x24
 6458 05aa F901 0000 		.long	0x1f9
 6459 05ae 0000 0000 		.long	.Ldebug_ranges0+0x248
 6460 05b2 01        		.byte	0x1
 6461 05b3 1701      		.word	0x117
 6462 05b5 CD05 0000 		.long	0x5cd
 6463 05b9 1B        		.uleb128 0x1b
 6464 05ba 3002 0000 		.long	0x230
 6465 05be 1F        		.uleb128 0x1f
 6466 05bf 0000 0000 		.long	.Ldebug_ranges0+0x260
 6467 05c3 16        		.uleb128 0x16
 6468 05c4 1002 0000 		.long	0x210
 6469 05c8 02        		.byte	0x2
GAS LISTING C:\DOCUME~1\KEUNSO~1\LOCALS~1\Temp/ccIyMOV1.s 			page 115


 6470 05c9 8C        		.byte	0x8c
 6471 05ca 01        		.sleb128 1
 6472 05cb 00        		.byte	0x0
 6473 05cc 00        		.byte	0x0
 6474 05cd 25        		.uleb128 0x25
 6475 05ce F901 0000 		.long	0x1f9
 6476 05d2 0000 0000 		.long	.Ldebug_ranges0+0x278
 6477 05d6 01        		.byte	0x1
 6478 05d7 1601      		.word	0x116
 6479 05d9 1B        		.uleb128 0x1b
 6480 05da 3002 0000 		.long	0x230
 6481 05de 1F        		.uleb128 0x1f
 6482 05df 0000 0000 		.long	.Ldebug_ranges0+0x298
 6483 05e3 16        		.uleb128 0x16
 6484 05e4 1002 0000 		.long	0x210
 6485 05e8 02        		.byte	0x2
 6486 05e9 8C        		.byte	0x8c
 6487 05ea 01        		.sleb128 1
 6488 05eb 00        		.byte	0x0
 6489 05ec 00        		.byte	0x0
 6490 05ed 00        		.byte	0x0
 6491 05ee 25        		.uleb128 0x25
 6492 05ef 8202 0000 		.long	0x282
 6493 05f3 0000 0000 		.long	.Ldebug_ranges0+0x2b8
 6494 05f7 01        		.byte	0x1
 6495 05f8 2201      		.word	0x122
 6496 05fa 12        		.uleb128 0x12
 6497 05fb C702 0000 		.long	0x2c7
 6498 05ff 0000 0000 		.long	.LLST20
 6499 0603 1E        		.uleb128 0x1e
 6500 0604 F901 0000 		.long	0x1f9
 6501 0608 0000 0000 		.long	.Ldebug_ranges0+0x2d0
 6502 060c 01        		.byte	0x1
 6503 060d E0        		.byte	0xe0
 6504 060e 1B        		.uleb128 0x1b
 6505 060f 3002 0000 		.long	0x230
 6506 0613 1F        		.uleb128 0x1f
 6507 0614 0000 0000 		.long	.Ldebug_ranges0+0x2f0
 6508 0618 16        		.uleb128 0x16
 6509 0619 1002 0000 		.long	0x210
 6510 061d 02        		.byte	0x2
 6511 061e 8C        		.byte	0x8c
 6512 061f 01        		.sleb128 1
 6513 0620 00        		.byte	0x0
 6514 0621 00        		.byte	0x0
 6515 0622 00        		.byte	0x0
 6516 0623 00        		.byte	0x0
 6517 0624 20        		.uleb128 0x20
 6518 0625 01        		.byte	0x1
 6519 0626 0000 0000 		.long	.LASF29
 6520 062a 01        		.byte	0x1
 6521 062b 3801      		.word	0x138
 6522 062d 01        		.byte	0x1
 6523 062e 0000 0000 		.long	.LFB15
 6524 0632 0000 0000 		.long	.LFE15
 6525 0636 02        		.byte	0x2
 6526 0637 90        		.byte	0x90
GAS LISTING C:\DOCUME~1\KEUNSO~1\LOCALS~1\Temp/ccIyMOV1.s 			page 116


 6527 0638 20        		.uleb128 0x20
 6528 0639 0308 0000 		.long	0x803
 6529 063d 21        		.uleb128 0x21
 6530 063e 7800      		.string	"x"
 6531 0640 01        		.byte	0x1
 6532 0641 3701      		.word	0x137
 6533 0643 5D00 0000 		.long	0x5d
 6534 0647 0000 0000 		.long	.LLST22
 6535 064b 21        		.uleb128 0x21
 6536 064c 7900      		.string	"y"
 6537 064e 01        		.byte	0x1
 6538 064f 3701      		.word	0x137
 6539 0651 5D00 0000 		.long	0x5d
 6540 0655 0000 0000 		.long	.LLST23
 6541 0659 21        		.uleb128 0x21
 6542 065a 7300      		.string	"s"
 6543 065c 01        		.byte	0x1
 6544 065d 3701      		.word	0x137
 6545 065f 8201 0000 		.long	0x182
 6546 0663 0000 0000 		.long	.LLST24
 6547 0667 29        		.uleb128 0x29
 6548 0668 0000 0000 		.long	.LASF25
 6549 066c 01        		.byte	0x1
 6550 066d 3701      		.word	0x137
 6551 066f 5D00 0000 		.long	0x5d
 6552 0673 0000 0000 		.long	.LLST25
 6553 0677 29        		.uleb128 0x29
 6554 0678 0000 0000 		.long	.LASF26
 6555 067c 01        		.byte	0x1
 6556 067d 3701      		.word	0x137
 6557 067f 5D00 0000 		.long	0x5d
 6558 0683 0000 0000 		.long	.LLST26
 6559 0687 2A        		.uleb128 0x2a
 6560 0688 6572 7200 		.string	"err"
 6561 068c 01        		.byte	0x1
 6562 068d 3901      		.word	0x139
 6563 068f 5D00 0000 		.long	0x5d
 6564 0693 02        		.byte	0x2
 6565 0694 8C        		.byte	0x8c
 6566 0695 01        		.sleb128 1
 6567 0696 24        		.uleb128 0x24
 6568 0697 9B03 0000 		.long	0x39b
 6569 069b 0000 0000 		.long	.Ldebug_ranges0+0x310
 6570 069f 01        		.byte	0x1
 6571 06a0 3C01      		.word	0x13c
 6572 06a2 3D07 0000 		.long	0x73d
 6573 06a6 1B        		.uleb128 0x1b
 6574 06a7 2404 0000 		.long	0x424
 6575 06ab 1B        		.uleb128 0x1b
 6576 06ac 1B04 0000 		.long	0x41b
 6577 06b0 24        		.uleb128 0x24
 6578 06b1 F901 0000 		.long	0x1f9
 6579 06b5 0000 0000 		.long	.Ldebug_ranges0+0x340
 6580 06b9 01        		.byte	0x1
 6581 06ba 1601      		.word	0x116
 6582 06bc D406 0000 		.long	0x6d4
 6583 06c0 1B        		.uleb128 0x1b
GAS LISTING C:\DOCUME~1\KEUNSO~1\LOCALS~1\Temp/ccIyMOV1.s 			page 117


 6584 06c1 3002 0000 		.long	0x230
 6585 06c5 1F        		.uleb128 0x1f
 6586 06c6 0000 0000 		.long	.Ldebug_ranges0+0x360
 6587 06ca 16        		.uleb128 0x16
 6588 06cb 1002 0000 		.long	0x210
 6589 06cf 02        		.byte	0x2
 6590 06d0 8C        		.byte	0x8c
 6591 06d1 02        		.sleb128 2
 6592 06d2 00        		.byte	0x0
 6593 06d3 00        		.byte	0x0
 6594 06d4 24        		.uleb128 0x24
 6595 06d5 F901 0000 		.long	0x1f9
 6596 06d9 0000 0000 		.long	.Ldebug_ranges0+0x380
 6597 06dd 01        		.byte	0x1
 6598 06de 1701      		.word	0x117
 6599 06e0 F806 0000 		.long	0x6f8
 6600 06e4 1B        		.uleb128 0x1b
 6601 06e5 3002 0000 		.long	0x230
 6602 06e9 1F        		.uleb128 0x1f
 6603 06ea 0000 0000 		.long	.Ldebug_ranges0+0x398
 6604 06ee 16        		.uleb128 0x16
 6605 06ef 1002 0000 		.long	0x210
 6606 06f3 02        		.byte	0x2
 6607 06f4 8C        		.byte	0x8c
 6608 06f5 02        		.sleb128 2
 6609 06f6 00        		.byte	0x0
 6610 06f7 00        		.byte	0x0
 6611 06f8 24        		.uleb128 0x24
 6612 06f9 F901 0000 		.long	0x1f9
 6613 06fd 0000 0000 		.long	.Ldebug_ranges0+0x3b0
 6614 0701 01        		.byte	0x1
 6615 0702 1901      		.word	0x119
 6616 0704 1C07 0000 		.long	0x71c
 6617 0708 1B        		.uleb128 0x1b
 6618 0709 3002 0000 		.long	0x230
 6619 070d 1F        		.uleb128 0x1f
 6620 070e 0000 0000 		.long	.Ldebug_ranges0+0x3c8
 6621 0712 16        		.uleb128 0x16
 6622 0713 1002 0000 		.long	0x210
 6623 0717 02        		.byte	0x2
 6624 0718 8C        		.byte	0x8c
 6625 0719 02        		.sleb128 2
 6626 071a 00        		.byte	0x0
 6627 071b 00        		.byte	0x0
 6628 071c 25        		.uleb128 0x25
 6629 071d F901 0000 		.long	0x1f9
 6630 0721 0000 0000 		.long	.Ldebug_ranges0+0x3e0
 6631 0725 01        		.byte	0x1
 6632 0726 1B01      		.word	0x11b
 6633 0728 1B        		.uleb128 0x1b
 6634 0729 3002 0000 		.long	0x230
 6635 072d 1F        		.uleb128 0x1f
 6636 072e 0000 0000 		.long	.Ldebug_ranges0+0x400
 6637 0732 16        		.uleb128 0x16
 6638 0733 1002 0000 		.long	0x210
 6639 0737 02        		.byte	0x2
 6640 0738 8C        		.byte	0x8c
GAS LISTING C:\DOCUME~1\KEUNSO~1\LOCALS~1\Temp/ccIyMOV1.s 			page 118


 6641 0739 02        		.sleb128 2
 6642 073a 00        		.byte	0x0
 6643 073b 00        		.byte	0x0
 6644 073c 00        		.byte	0x0
 6645 073d 24        		.uleb128 0x24
 6646 073e F901 0000 		.long	0x1f9
 6647 0742 0000 0000 		.long	.Ldebug_ranges0+0x420
 6648 0746 01        		.byte	0x1
 6649 0747 3D01      		.word	0x13d
 6650 0749 6107 0000 		.long	0x761
 6651 074d 1B        		.uleb128 0x1b
 6652 074e 3002 0000 		.long	0x230
 6653 0752 1F        		.uleb128 0x1f
 6654 0753 0000 0000 		.long	.Ldebug_ranges0+0x440
 6655 0757 16        		.uleb128 0x16
 6656 0758 1002 0000 		.long	0x210
 6657 075c 02        		.byte	0x2
 6658 075d 8C        		.byte	0x8c
 6659 075e 02        		.sleb128 2
 6660 075f 00        		.byte	0x0
 6661 0760 00        		.byte	0x0
 6662 0761 24        		.uleb128 0x24
 6663 0762 F901 0000 		.long	0x1f9
 6664 0766 0000 0000 		.long	.Ldebug_ranges0+0x460
 6665 076a 01        		.byte	0x1
 6666 076b 3E01      		.word	0x13e
 6667 076d 8507 0000 		.long	0x785
 6668 0771 1B        		.uleb128 0x1b
 6669 0772 3002 0000 		.long	0x230
 6670 0776 1F        		.uleb128 0x1f
 6671 0777 0000 0000 		.long	.Ldebug_ranges0+0x480
 6672 077b 16        		.uleb128 0x16
 6673 077c 1002 0000 		.long	0x210
 6674 0780 02        		.byte	0x2
 6675 0781 8C        		.byte	0x8c
 6676 0782 02        		.sleb128 2
 6677 0783 00        		.byte	0x0
 6678 0784 00        		.byte	0x0
 6679 0785 24        		.uleb128 0x24
 6680 0786 F901 0000 		.long	0x1f9
 6681 078a 0000 0000 		.long	.Ldebug_ranges0+0x4a0
 6682 078e 01        		.byte	0x1
 6683 078f 4001      		.word	0x140
 6684 0791 A907 0000 		.long	0x7a9
 6685 0795 1B        		.uleb128 0x1b
 6686 0796 3002 0000 		.long	0x230
 6687 079a 1F        		.uleb128 0x1f
 6688 079b 0000 0000 		.long	.Ldebug_ranges0+0x4c0
 6689 079f 16        		.uleb128 0x16
 6690 07a0 1002 0000 		.long	0x210
 6691 07a4 02        		.byte	0x2
 6692 07a5 8C        		.byte	0x8c
 6693 07a6 02        		.sleb128 2
 6694 07a7 00        		.byte	0x0
 6695 07a8 00        		.byte	0x0
 6696 07a9 24        		.uleb128 0x24
 6697 07aa F901 0000 		.long	0x1f9
GAS LISTING C:\DOCUME~1\KEUNSO~1\LOCALS~1\Temp/ccIyMOV1.s 			page 119


 6698 07ae 0000 0000 		.long	.Ldebug_ranges0+0x4e0
 6699 07b2 01        		.byte	0x1
 6700 07b3 4201      		.word	0x142
 6701 07b5 CD07 0000 		.long	0x7cd
 6702 07b9 1B        		.uleb128 0x1b
 6703 07ba 3002 0000 		.long	0x230
 6704 07be 1F        		.uleb128 0x1f
 6705 07bf 0000 0000 		.long	.Ldebug_ranges0+0x500
 6706 07c3 16        		.uleb128 0x16
 6707 07c4 1002 0000 		.long	0x210
 6708 07c8 02        		.byte	0x2
 6709 07c9 8C        		.byte	0x8c
 6710 07ca 02        		.sleb128 2
 6711 07cb 00        		.byte	0x0
 6712 07cc 00        		.byte	0x0
 6713 07cd 25        		.uleb128 0x25
 6714 07ce 8202 0000 		.long	0x282
 6715 07d2 0000 0000 		.long	.Ldebug_ranges0+0x520
 6716 07d6 01        		.byte	0x1
 6717 07d7 4301      		.word	0x143
 6718 07d9 12        		.uleb128 0x12
 6719 07da C702 0000 		.long	0x2c7
 6720 07de 0000 0000 		.long	.LLST27
 6721 07e2 1E        		.uleb128 0x1e
 6722 07e3 F901 0000 		.long	0x1f9
 6723 07e7 0000 0000 		.long	.Ldebug_ranges0+0x538
 6724 07eb 01        		.byte	0x1
 6725 07ec E0        		.byte	0xe0
 6726 07ed 1B        		.uleb128 0x1b
 6727 07ee 3002 0000 		.long	0x230
 6728 07f2 1F        		.uleb128 0x1f
 6729 07f3 0000 0000 		.long	.Ldebug_ranges0+0x558
 6730 07f7 16        		.uleb128 0x16
 6731 07f8 1002 0000 		.long	0x210
 6732 07fc 02        		.byte	0x2
 6733 07fd 8C        		.byte	0x8c
 6734 07fe 02        		.sleb128 2
 6735 07ff 00        		.byte	0x0
 6736 0800 00        		.byte	0x0
 6737 0801 00        		.byte	0x0
 6738 0802 00        		.byte	0x0
 6739 0803 26        		.uleb128 0x26
 6740 0804 01        		.byte	0x1
 6741 0805 0000 0000 		.long	.LASF30
 6742 0809 01        		.byte	0x1
 6743 080a 2701      		.word	0x127
 6744 080c 01        		.byte	0x1
 6745 080d 01        		.byte	0x1
 6746 080e FF08 0000 		.long	0x8ff
 6747 0812 2B        		.uleb128 0x2b
 6748 0813 7800      		.string	"x"
 6749 0815 01        		.byte	0x1
 6750 0816 2601      		.word	0x126
 6751 0818 5D00 0000 		.long	0x5d
 6752 081c 2B        		.uleb128 0x2b
 6753 081d 7900      		.string	"y"
 6754 081f 01        		.byte	0x1
GAS LISTING C:\DOCUME~1\KEUNSO~1\LOCALS~1\Temp/ccIyMOV1.s 			page 120


 6755 0820 2601      		.word	0x126
 6756 0822 5D00 0000 		.long	0x5d
 6757 0826 2B        		.uleb128 0x2b
 6758 0827 6300      		.string	"c"
 6759 0829 01        		.byte	0x1
 6760 082a 2601      		.word	0x126
 6761 082c 1D01 0000 		.long	0x11d
 6762 0830 27        		.uleb128 0x27
 6763 0831 0000 0000 		.long	.LASF25
 6764 0835 01        		.byte	0x1
 6765 0836 2601      		.word	0x126
 6766 0838 5D00 0000 		.long	0x5d
 6767 083c 27        		.uleb128 0x27
 6768 083d 0000 0000 		.long	.LASF26
 6769 0841 01        		.byte	0x1
 6770 0842 2601      		.word	0x126
 6771 0844 5D00 0000 		.long	0x5d
 6772 0848 22        		.uleb128 0x22
 6773 0849 6572 7200 		.string	"err"
 6774 084d 01        		.byte	0x1
 6775 084e 2801      		.word	0x128
 6776 0850 5D00 0000 		.long	0x5d
 6777 0854 28        		.uleb128 0x28
 6778 0855 A808 0000 		.long	0x8a8
 6779 0859 1B        		.uleb128 0x1b
 6780 085a 2404 0000 		.long	0x424
 6781 085e 1B        		.uleb128 0x1b
 6782 085f 1B04 0000 		.long	0x41b
 6783 0863 28        		.uleb128 0x28
 6784 0864 7508 0000 		.long	0x875
 6785 0868 1B        		.uleb128 0x1b
 6786 0869 3002 0000 		.long	0x230
 6787 086d 1A        		.uleb128 0x1a
 6788 086e 1C        		.uleb128 0x1c
 6789 086f 1002 0000 		.long	0x210
 6790 0873 00        		.byte	0x0
 6791 0874 00        		.byte	0x0
 6792 0875 28        		.uleb128 0x28
 6793 0876 8708 0000 		.long	0x887
 6794 087a 1B        		.uleb128 0x1b
 6795 087b 3002 0000 		.long	0x230
 6796 087f 1A        		.uleb128 0x1a
 6797 0880 1C        		.uleb128 0x1c
 6798 0881 1002 0000 		.long	0x210
 6799 0885 00        		.byte	0x0
 6800 0886 00        		.byte	0x0
 6801 0887 28        		.uleb128 0x28
 6802 0888 9908 0000 		.long	0x899
 6803 088c 1B        		.uleb128 0x1b
 6804 088d 3002 0000 		.long	0x230
 6805 0891 1A        		.uleb128 0x1a
 6806 0892 1C        		.uleb128 0x1c
 6807 0893 1002 0000 		.long	0x210
 6808 0897 00        		.byte	0x0
 6809 0898 00        		.byte	0x0
 6810 0899 1A        		.uleb128 0x1a
 6811 089a 1B        		.uleb128 0x1b
GAS LISTING C:\DOCUME~1\KEUNSO~1\LOCALS~1\Temp/ccIyMOV1.s 			page 121


 6812 089b 3002 0000 		.long	0x230
 6813 089f 1A        		.uleb128 0x1a
 6814 08a0 1C        		.uleb128 0x1c
 6815 08a1 1002 0000 		.long	0x210
 6816 08a5 00        		.byte	0x0
 6817 08a6 00        		.byte	0x0
 6818 08a7 00        		.byte	0x0
 6819 08a8 28        		.uleb128 0x28
 6820 08a9 BA08 0000 		.long	0x8ba
 6821 08ad 1B        		.uleb128 0x1b
 6822 08ae 3002 0000 		.long	0x230
 6823 08b2 1A        		.uleb128 0x1a
 6824 08b3 1C        		.uleb128 0x1c
 6825 08b4 1002 0000 		.long	0x210
 6826 08b8 00        		.byte	0x0
 6827 08b9 00        		.byte	0x0
 6828 08ba 28        		.uleb128 0x28
 6829 08bb CC08 0000 		.long	0x8cc
 6830 08bf 1B        		.uleb128 0x1b
 6831 08c0 3002 0000 		.long	0x230
 6832 08c4 1A        		.uleb128 0x1a
 6833 08c5 1C        		.uleb128 0x1c
 6834 08c6 1002 0000 		.long	0x210
 6835 08ca 00        		.byte	0x0
 6836 08cb 00        		.byte	0x0
 6837 08cc 28        		.uleb128 0x28
 6838 08cd DE08 0000 		.long	0x8de
 6839 08d1 1B        		.uleb128 0x1b
 6840 08d2 3002 0000 		.long	0x230
 6841 08d6 1A        		.uleb128 0x1a
 6842 08d7 1C        		.uleb128 0x1c
 6843 08d8 1002 0000 		.long	0x210
 6844 08dc 00        		.byte	0x0
 6845 08dd 00        		.byte	0x0
 6846 08de 28        		.uleb128 0x28
 6847 08df F008 0000 		.long	0x8f0
 6848 08e3 1B        		.uleb128 0x1b
 6849 08e4 3002 0000 		.long	0x230
 6850 08e8 1A        		.uleb128 0x1a
 6851 08e9 1C        		.uleb128 0x1c
 6852 08ea 1002 0000 		.long	0x210
 6853 08ee 00        		.byte	0x0
 6854 08ef 00        		.byte	0x0
 6855 08f0 1A        		.uleb128 0x1a
 6856 08f1 1B        		.uleb128 0x1b
 6857 08f2 3002 0000 		.long	0x230
 6858 08f6 1A        		.uleb128 0x1a
 6859 08f7 1C        		.uleb128 0x1c
 6860 08f8 1002 0000 		.long	0x210
 6861 08fc 00        		.byte	0x0
 6862 08fd 00        		.byte	0x0
 6863 08fe 00        		.byte	0x0
 6864 08ff 11        		.uleb128 0x11
 6865 0900 0308 0000 		.long	0x803
 6866 0904 0000 0000 		.long	.LFB14
 6867 0908 0000 0000 		.long	.LFE14
 6868 090c 02        		.byte	0x2
GAS LISTING C:\DOCUME~1\KEUNSO~1\LOCALS~1\Temp/ccIyMOV1.s 			page 122


 6869 090d 90        		.byte	0x90
 6870 090e 20        		.uleb128 0x20
 6871 090f A00A 0000 		.long	0xaa0
 6872 0913 12        		.uleb128 0x12
 6873 0914 1208 0000 		.long	0x812
 6874 0918 0000 0000 		.long	.LLST29
 6875 091c 12        		.uleb128 0x12
 6876 091d 1C08 0000 		.long	0x81c
 6877 0921 0000 0000 		.long	.LLST30
 6878 0925 12        		.uleb128 0x12
 6879 0926 2608 0000 		.long	0x826
 6880 092a 0000 0000 		.long	.LLST31
 6881 092e 12        		.uleb128 0x12
 6882 092f 3008 0000 		.long	0x830
 6883 0933 0000 0000 		.long	.LLST32
 6884 0937 12        		.uleb128 0x12
 6885 0938 3C08 0000 		.long	0x83c
 6886 093c 0000 0000 		.long	.LLST33
 6887 0940 16        		.uleb128 0x16
 6888 0941 4808 0000 		.long	0x848
 6889 0945 02        		.byte	0x2
 6890 0946 8C        		.byte	0x8c
 6891 0947 01        		.sleb128 1
 6892 0948 24        		.uleb128 0x24
 6893 0949 9B03 0000 		.long	0x39b
 6894 094d 0000 0000 		.long	.Ldebug_ranges0+0x578
 6895 0951 01        		.byte	0x1
 6896 0952 2B01      		.word	0x12b
 6897 0954 EF09 0000 		.long	0x9ef
 6898 0958 1B        		.uleb128 0x1b
 6899 0959 2404 0000 		.long	0x424
 6900 095d 1B        		.uleb128 0x1b
 6901 095e 1B04 0000 		.long	0x41b
 6902 0962 24        		.uleb128 0x24
 6903 0963 F901 0000 		.long	0x1f9
 6904 0967 0000 0000 		.long	.Ldebug_ranges0+0x5a0
 6905 096b 01        		.byte	0x1
 6906 096c 1B01      		.word	0x11b
 6907 096e 8609 0000 		.long	0x986
 6908 0972 1B        		.uleb128 0x1b
 6909 0973 3002 0000 		.long	0x230
 6910 0977 1F        		.uleb128 0x1f
 6911 0978 0000 0000 		.long	.Ldebug_ranges0+0x5c0
 6912 097c 16        		.uleb128 0x16
 6913 097d 1002 0000 		.long	0x210
 6914 0981 02        		.byte	0x2
 6915 0982 8C        		.byte	0x8c
 6916 0983 02        		.sleb128 2
 6917 0984 00        		.byte	0x0
 6918 0985 00        		.byte	0x0
 6919 0986 24        		.uleb128 0x24
 6920 0987 F901 0000 		.long	0x1f9
 6921 098b 0000 0000 		.long	.Ldebug_ranges0+0x5e0
 6922 098f 01        		.byte	0x1
 6923 0990 1901      		.word	0x119
 6924 0992 AA09 0000 		.long	0x9aa
 6925 0996 1B        		.uleb128 0x1b
GAS LISTING C:\DOCUME~1\KEUNSO~1\LOCALS~1\Temp/ccIyMOV1.s 			page 123


 6926 0997 3002 0000 		.long	0x230
 6927 099b 1F        		.uleb128 0x1f
 6928 099c 0000 0000 		.long	.Ldebug_ranges0+0x600
 6929 09a0 16        		.uleb128 0x16
 6930 09a1 1002 0000 		.long	0x210
 6931 09a5 02        		.byte	0x2
 6932 09a6 8C        		.byte	0x8c
 6933 09a7 02        		.sleb128 2
 6934 09a8 00        		.byte	0x0
 6935 09a9 00        		.byte	0x0
 6936 09aa 24        		.uleb128 0x24
 6937 09ab F901 0000 		.long	0x1f9
 6938 09af 0000 0000 		.long	.Ldebug_ranges0+0x620
 6939 09b3 01        		.byte	0x1
 6940 09b4 1701      		.word	0x117
 6941 09b6 CE09 0000 		.long	0x9ce
 6942 09ba 1B        		.uleb128 0x1b
 6943 09bb 3002 0000 		.long	0x230
 6944 09bf 1F        		.uleb128 0x1f
 6945 09c0 0000 0000 		.long	.Ldebug_ranges0+0x638
 6946 09c4 16        		.uleb128 0x16
 6947 09c5 1002 0000 		.long	0x210
 6948 09c9 02        		.byte	0x2
 6949 09ca 8C        		.byte	0x8c
 6950 09cb 02        		.sleb128 2
 6951 09cc 00        		.byte	0x0
 6952 09cd 00        		.byte	0x0
 6953 09ce 25        		.uleb128 0x25
 6954 09cf F901 0000 		.long	0x1f9
 6955 09d3 0000 0000 		.long	.Ldebug_ranges0+0x650
 6956 09d7 01        		.byte	0x1
 6957 09d8 1601      		.word	0x116
 6958 09da 1B        		.uleb128 0x1b
 6959 09db 3002 0000 		.long	0x230
 6960 09df 1F        		.uleb128 0x1f
 6961 09e0 0000 0000 		.long	.Ldebug_ranges0+0x670
 6962 09e4 16        		.uleb128 0x16
 6963 09e5 1002 0000 		.long	0x210
 6964 09e9 02        		.byte	0x2
 6965 09ea 8C        		.byte	0x8c
 6966 09eb 02        		.sleb128 2
 6967 09ec 00        		.byte	0x0
 6968 09ed 00        		.byte	0x0
 6969 09ee 00        		.byte	0x0
 6970 09ef 24        		.uleb128 0x24
 6971 09f0 F901 0000 		.long	0x1f9
 6972 09f4 0000 0000 		.long	.Ldebug_ranges0+0x690
 6973 09f8 01        		.byte	0x1
 6974 09f9 2C01      		.word	0x12c
 6975 09fb 130A 0000 		.long	0xa13
 6976 09ff 1B        		.uleb128 0x1b
 6977 0a00 3002 0000 		.long	0x230
 6978 0a04 1F        		.uleb128 0x1f
 6979 0a05 0000 0000 		.long	.Ldebug_ranges0+0x6b0
 6980 0a09 16        		.uleb128 0x16
 6981 0a0a 1002 0000 		.long	0x210
 6982 0a0e 02        		.byte	0x2
GAS LISTING C:\DOCUME~1\KEUNSO~1\LOCALS~1\Temp/ccIyMOV1.s 			page 124


 6983 0a0f 8C        		.byte	0x8c
 6984 0a10 02        		.sleb128 2
 6985 0a11 00        		.byte	0x0
 6986 0a12 00        		.byte	0x0
 6987 0a13 24        		.uleb128 0x24
 6988 0a14 F901 0000 		.long	0x1f9
 6989 0a18 0000 0000 		.long	.Ldebug_ranges0+0x6d0
 6990 0a1c 01        		.byte	0x1
 6991 0a1d 2D01      		.word	0x12d
 6992 0a1f 370A 0000 		.long	0xa37
 6993 0a23 1B        		.uleb128 0x1b
 6994 0a24 3002 0000 		.long	0x230
 6995 0a28 1F        		.uleb128 0x1f
 6996 0a29 0000 0000 		.long	.Ldebug_ranges0+0x6f0
 6997 0a2d 16        		.uleb128 0x16
 6998 0a2e 1002 0000 		.long	0x210
 6999 0a32 02        		.byte	0x2
 7000 0a33 8C        		.byte	0x8c
 7001 0a34 02        		.sleb128 2
 7002 0a35 00        		.byte	0x0
 7003 0a36 00        		.byte	0x0
 7004 0a37 24        		.uleb128 0x24
 7005 0a38 F901 0000 		.long	0x1f9
 7006 0a3c 0000 0000 		.long	.Ldebug_ranges0+0x710
 7007 0a40 01        		.byte	0x1
 7008 0a41 2F01      		.word	0x12f
 7009 0a43 5B0A 0000 		.long	0xa5b
 7010 0a47 1B        		.uleb128 0x1b
 7011 0a48 3002 0000 		.long	0x230
 7012 0a4c 1F        		.uleb128 0x1f
 7013 0a4d 0000 0000 		.long	.Ldebug_ranges0+0x730
 7014 0a51 16        		.uleb128 0x16
 7015 0a52 1002 0000 		.long	0x210
 7016 0a56 02        		.byte	0x2
 7017 0a57 8C        		.byte	0x8c
 7018 0a58 02        		.sleb128 2
 7019 0a59 00        		.byte	0x0
 7020 0a5a 00        		.byte	0x0
 7021 0a5b 24        		.uleb128 0x24
 7022 0a5c F901 0000 		.long	0x1f9
 7023 0a60 0000 0000 		.long	.Ldebug_ranges0+0x750
 7024 0a64 01        		.byte	0x1
 7025 0a65 3101      		.word	0x131
 7026 0a67 7F0A 0000 		.long	0xa7f
 7027 0a6b 1B        		.uleb128 0x1b
 7028 0a6c 3002 0000 		.long	0x230
 7029 0a70 1F        		.uleb128 0x1f
 7030 0a71 0000 0000 		.long	.Ldebug_ranges0+0x770
 7031 0a75 16        		.uleb128 0x16
 7032 0a76 1002 0000 		.long	0x210
 7033 0a7a 02        		.byte	0x2
 7034 0a7b 8C        		.byte	0x8c
 7035 0a7c 02        		.sleb128 2
 7036 0a7d 00        		.byte	0x0
 7037 0a7e 00        		.byte	0x0
 7038 0a7f 25        		.uleb128 0x25
 7039 0a80 F901 0000 		.long	0x1f9
GAS LISTING C:\DOCUME~1\KEUNSO~1\LOCALS~1\Temp/ccIyMOV1.s 			page 125


 7040 0a84 0000 0000 		.long	.Ldebug_ranges0+0x790
 7041 0a88 01        		.byte	0x1
 7042 0a89 3201      		.word	0x132
 7043 0a8b 1B        		.uleb128 0x1b
 7044 0a8c 3002 0000 		.long	0x230
 7045 0a90 1F        		.uleb128 0x1f
 7046 0a91 0000 0000 		.long	.Ldebug_ranges0+0x7b0
 7047 0a95 16        		.uleb128 0x16
 7048 0a96 1002 0000 		.long	0x210
 7049 0a9a 02        		.byte	0x2
 7050 0a9b 8C        		.byte	0x8c
 7051 0a9c 02        		.sleb128 2
 7052 0a9d 00        		.byte	0x0
 7053 0a9e 00        		.byte	0x0
 7054 0a9f 00        		.byte	0x0
 7055 0aa0 2C        		.uleb128 0x2c
 7056 0aa1 01        		.byte	0x1
 7057 0aa2 0000 0000 		.long	.LASF31
 7058 0aa6 01        		.byte	0x1
 7059 0aa7 95        		.byte	0x95
 7060 0aa8 01        		.byte	0x1
 7061 0aa9 0000 0000 		.long	.LFB4
 7062 0aad 0000 0000 		.long	.LFE4
 7063 0ab1 02        		.byte	0x2
 7064 0ab2 90        		.byte	0x90
 7065 0ab3 20        		.uleb128 0x20
 7066 0ab4 A40C 0000 		.long	0xca4
 7067 0ab8 2D        		.uleb128 0x2d
 7068 0ab9 0000 0000 		.long	.LASF32
 7069 0abd 01        		.byte	0x1
 7070 0abe 94        		.byte	0x94
 7071 0abf F800 0000 		.long	0xf8
 7072 0ac3 0000 0000 		.long	.LLST35
 7073 0ac7 10        		.uleb128 0x10
 7074 0ac8 7800      		.string	"x"
 7075 0aca 01        		.byte	0x1
 7076 0acb 96        		.byte	0x96
 7077 0acc 5D00 0000 		.long	0x5d
 7078 0ad0 10        		.uleb128 0x10
 7079 0ad1 7900      		.string	"y"
 7080 0ad3 01        		.byte	0x1
 7081 0ad4 97        		.byte	0x97
 7082 0ad5 5D00 0000 		.long	0x5d
 7083 0ad9 2E        		.uleb128 0x2e
 7084 0ada 6572 7200 		.string	"err"
 7085 0ade 01        		.byte	0x1
 7086 0adf 98        		.byte	0x98
 7087 0ae0 5D00 0000 		.long	0x5d
 7088 0ae4 02        		.byte	0x2
 7089 0ae5 8C        		.byte	0x8c
 7090 0ae6 01        		.sleb128 1
 7091 0ae7 2F        		.uleb128 0x2f
 7092 0ae8 0308 0000 		.long	0x803
 7093 0aec 0000 0000 		.long	.Ldebug_ranges0+0x7d0
 7094 0af0 01        		.byte	0x1
 7095 0af1 A0        		.byte	0xa0
 7096 0af2 750C 0000 		.long	0xc75
GAS LISTING C:\DOCUME~1\KEUNSO~1\LOCALS~1\Temp/ccIyMOV1.s 			page 126


 7097 0af6 1B        		.uleb128 0x1b
 7098 0af7 3709 0000 		.long	0x937
 7099 0afb 1B        		.uleb128 0x1b
 7100 0afc 2E09 0000 		.long	0x92e
 7101 0b00 1B        		.uleb128 0x1b
 7102 0b01 2509 0000 		.long	0x925
 7103 0b05 1B        		.uleb128 0x1b
 7104 0b06 1C09 0000 		.long	0x91c
 7105 0b0a 1B        		.uleb128 0x1b
 7106 0b0b 1309 0000 		.long	0x913
 7107 0b0f 1F        		.uleb128 0x1f
 7108 0b10 0000 0000 		.long	.Ldebug_ranges0+0x7e8
 7109 0b14 16        		.uleb128 0x16
 7110 0b15 4808 0000 		.long	0x848
 7111 0b19 02        		.byte	0x2
 7112 0b1a 8C        		.byte	0x8c
 7113 0b1b 02        		.sleb128 2
 7114 0b1c 24        		.uleb128 0x24
 7115 0b1d F901 0000 		.long	0x1f9
 7116 0b21 0000 0000 		.long	.Ldebug_ranges0+0x800
 7117 0b25 01        		.byte	0x1
 7118 0b26 3201      		.word	0x132
 7119 0b28 400B 0000 		.long	0xb40
 7120 0b2c 1B        		.uleb128 0x1b
 7121 0b2d 3002 0000 		.long	0x230
 7122 0b31 1F        		.uleb128 0x1f
 7123 0b32 0000 0000 		.long	.Ldebug_ranges0+0x820
 7124 0b36 16        		.uleb128 0x16
 7125 0b37 1002 0000 		.long	0x210
 7126 0b3b 02        		.byte	0x2
 7127 0b3c 8C        		.byte	0x8c
 7128 0b3d 03        		.sleb128 3
 7129 0b3e 00        		.byte	0x0
 7130 0b3f 00        		.byte	0x0
 7131 0b40 24        		.uleb128 0x24
 7132 0b41 F901 0000 		.long	0x1f9
 7133 0b45 0000 0000 		.long	.Ldebug_ranges0+0x840
 7134 0b49 01        		.byte	0x1
 7135 0b4a 3101      		.word	0x131
 7136 0b4c 640B 0000 		.long	0xb64
 7137 0b50 1B        		.uleb128 0x1b
 7138 0b51 3002 0000 		.long	0x230
 7139 0b55 1F        		.uleb128 0x1f
 7140 0b56 0000 0000 		.long	.Ldebug_ranges0+0x860
 7141 0b5a 16        		.uleb128 0x16
 7142 0b5b 1002 0000 		.long	0x210
 7143 0b5f 02        		.byte	0x2
 7144 0b60 8C        		.byte	0x8c
 7145 0b61 03        		.sleb128 3
 7146 0b62 00        		.byte	0x0
 7147 0b63 00        		.byte	0x0
 7148 0b64 24        		.uleb128 0x24
 7149 0b65 F901 0000 		.long	0x1f9
 7150 0b69 0000 0000 		.long	.Ldebug_ranges0+0x880
 7151 0b6d 01        		.byte	0x1
 7152 0b6e 2F01      		.word	0x12f
 7153 0b70 880B 0000 		.long	0xb88
GAS LISTING C:\DOCUME~1\KEUNSO~1\LOCALS~1\Temp/ccIyMOV1.s 			page 127


 7154 0b74 1B        		.uleb128 0x1b
 7155 0b75 3002 0000 		.long	0x230
 7156 0b79 1F        		.uleb128 0x1f
 7157 0b7a 0000 0000 		.long	.Ldebug_ranges0+0x8a0
 7158 0b7e 16        		.uleb128 0x16
 7159 0b7f 1002 0000 		.long	0x210
 7160 0b83 02        		.byte	0x2
 7161 0b84 8C        		.byte	0x8c
 7162 0b85 03        		.sleb128 3
 7163 0b86 00        		.byte	0x0
 7164 0b87 00        		.byte	0x0
 7165 0b88 24        		.uleb128 0x24
 7166 0b89 F901 0000 		.long	0x1f9
 7167 0b8d 0000 0000 		.long	.Ldebug_ranges0+0x8c0
 7168 0b91 01        		.byte	0x1
 7169 0b92 2D01      		.word	0x12d
 7170 0b94 AC0B 0000 		.long	0xbac
 7171 0b98 1B        		.uleb128 0x1b
 7172 0b99 3002 0000 		.long	0x230
 7173 0b9d 1F        		.uleb128 0x1f
 7174 0b9e 0000 0000 		.long	.Ldebug_ranges0+0x8e0
 7175 0ba2 16        		.uleb128 0x16
 7176 0ba3 1002 0000 		.long	0x210
 7177 0ba7 02        		.byte	0x2
 7178 0ba8 8C        		.byte	0x8c
 7179 0ba9 03        		.sleb128 3
 7180 0baa 00        		.byte	0x0
 7181 0bab 00        		.byte	0x0
 7182 0bac 24        		.uleb128 0x24
 7183 0bad F901 0000 		.long	0x1f9
 7184 0bb1 0000 0000 		.long	.Ldebug_ranges0+0x900
 7185 0bb5 01        		.byte	0x1
 7186 0bb6 2C01      		.word	0x12c
 7187 0bb8 D00B 0000 		.long	0xbd0
 7188 0bbc 1B        		.uleb128 0x1b
 7189 0bbd 3002 0000 		.long	0x230
 7190 0bc1 1F        		.uleb128 0x1f
 7191 0bc2 0000 0000 		.long	.Ldebug_ranges0+0x920
 7192 0bc6 16        		.uleb128 0x16
 7193 0bc7 1002 0000 		.long	0x210
 7194 0bcb 02        		.byte	0x2
 7195 0bcc 8C        		.byte	0x8c
 7196 0bcd 03        		.sleb128 3
 7197 0bce 00        		.byte	0x0
 7198 0bcf 00        		.byte	0x0
 7199 0bd0 25        		.uleb128 0x25
 7200 0bd1 9B03 0000 		.long	0x39b
 7201 0bd5 0000 0000 		.long	.Ldebug_ranges0+0x940
 7202 0bd9 01        		.byte	0x1
 7203 0bda 2B01      		.word	0x12b
 7204 0bdc 1B        		.uleb128 0x1b
 7205 0bdd 2404 0000 		.long	0x424
 7206 0be1 1B        		.uleb128 0x1b
 7207 0be2 1B04 0000 		.long	0x41b
 7208 0be6 24        		.uleb128 0x24
 7209 0be7 F901 0000 		.long	0x1f9
 7210 0beb 0000 0000 		.long	.Ldebug_ranges0+0x968
GAS LISTING C:\DOCUME~1\KEUNSO~1\LOCALS~1\Temp/ccIyMOV1.s 			page 128


 7211 0bef 01        		.byte	0x1
 7212 0bf0 1B01      		.word	0x11b
 7213 0bf2 0A0C 0000 		.long	0xc0a
 7214 0bf6 1B        		.uleb128 0x1b
 7215 0bf7 3002 0000 		.long	0x230
 7216 0bfb 1F        		.uleb128 0x1f
 7217 0bfc 0000 0000 		.long	.Ldebug_ranges0+0x990
 7218 0c00 16        		.uleb128 0x16
 7219 0c01 1002 0000 		.long	0x210
 7220 0c05 02        		.byte	0x2
 7221 0c06 8C        		.byte	0x8c
 7222 0c07 03        		.sleb128 3
 7223 0c08 00        		.byte	0x0
 7224 0c09 00        		.byte	0x0
 7225 0c0a 24        		.uleb128 0x24
 7226 0c0b F901 0000 		.long	0x1f9
 7227 0c0f 0000 0000 		.long	.Ldebug_ranges0+0x9b8
 7228 0c13 01        		.byte	0x1
 7229 0c14 1901      		.word	0x119
 7230 0c16 2E0C 0000 		.long	0xc2e
 7231 0c1a 1B        		.uleb128 0x1b
 7232 0c1b 3002 0000 		.long	0x230
 7233 0c1f 1F        		.uleb128 0x1f
 7234 0c20 0000 0000 		.long	.Ldebug_ranges0+0x9e0
 7235 0c24 16        		.uleb128 0x16
 7236 0c25 1002 0000 		.long	0x210
 7237 0c29 02        		.byte	0x2
 7238 0c2a 8C        		.byte	0x8c
 7239 0c2b 03        		.sleb128 3
 7240 0c2c 00        		.byte	0x0
 7241 0c2d 00        		.byte	0x0
 7242 0c2e 24        		.uleb128 0x24
 7243 0c2f F901 0000 		.long	0x1f9
 7244 0c33 0000 0000 		.long	.Ldebug_ranges0+0xa08
 7245 0c37 01        		.byte	0x1
 7246 0c38 1701      		.word	0x117
 7247 0c3a 520C 0000 		.long	0xc52
 7248 0c3e 1B        		.uleb128 0x1b
 7249 0c3f 3002 0000 		.long	0x230
 7250 0c43 1F        		.uleb128 0x1f
 7251 0c44 0000 0000 		.long	.Ldebug_ranges0+0xa28
 7252 0c48 16        		.uleb128 0x16
 7253 0c49 1002 0000 		.long	0x210
 7254 0c4d 02        		.byte	0x2
 7255 0c4e 8C        		.byte	0x8c
 7256 0c4f 03        		.sleb128 3
 7257 0c50 00        		.byte	0x0
 7258 0c51 00        		.byte	0x0
 7259 0c52 25        		.uleb128 0x25
 7260 0c53 F901 0000 		.long	0x1f9
 7261 0c57 0000 0000 		.long	.Ldebug_ranges0+0xa48
 7262 0c5b 01        		.byte	0x1
 7263 0c5c 1601      		.word	0x116
 7264 0c5e 1B        		.uleb128 0x1b
 7265 0c5f 3002 0000 		.long	0x230
 7266 0c63 1F        		.uleb128 0x1f
 7267 0c64 0000 0000 		.long	.Ldebug_ranges0+0xa70
GAS LISTING C:\DOCUME~1\KEUNSO~1\LOCALS~1\Temp/ccIyMOV1.s 			page 129


 7268 0c68 16        		.uleb128 0x16
 7269 0c69 1002 0000 		.long	0x210
 7270 0c6d 02        		.byte	0x2
 7271 0c6e 8C        		.byte	0x8c
 7272 0c6f 03        		.sleb128 3
 7273 0c70 00        		.byte	0x0
 7274 0c71 00        		.byte	0x0
 7275 0c72 00        		.byte	0x0
 7276 0c73 00        		.byte	0x0
 7277 0c74 00        		.byte	0x0
 7278 0c75 30        		.uleb128 0x30
 7279 0c76 BF01 0000 		.long	0x1bf
 7280 0c7a 0000 0000 		.long	.LBB373
 7281 0c7e 0000 0000 		.long	.LBE373
 7282 0c82 01        		.byte	0x1
 7283 0c83 9C        		.byte	0x9c
 7284 0c84 8E0C 0000 		.long	0xc8e
 7285 0c88 1B        		.uleb128 0x1b
 7286 0c89 EF01 0000 		.long	0x1ef
 7287 0c8d 00        		.byte	0x0
 7288 0c8e 31        		.uleb128 0x31
 7289 0c8f BF01 0000 		.long	0x1bf
 7290 0c93 0000 0000 		.long	.LBB375
 7291 0c97 0000 0000 		.long	.LBE375
 7292 0c9b 01        		.byte	0x1
 7293 0c9c 9D        		.byte	0x9d
 7294 0c9d 1B        		.uleb128 0x1b
 7295 0c9e EF01 0000 		.long	0x1ef
 7296 0ca2 00        		.byte	0x0
 7297 0ca3 00        		.byte	0x0
 7298 0ca4 2C        		.uleb128 0x2c
 7299 0ca5 01        		.byte	0x1
 7300 0ca6 0000 0000 		.long	.LASF33
 7301 0caa 01        		.byte	0x1
 7302 0cab 6D        		.byte	0x6d
 7303 0cac 01        		.byte	0x1
 7304 0cad 0000 0000 		.long	.LFB3
 7305 0cb1 0000 0000 		.long	.LFE3
 7306 0cb5 02        		.byte	0x2
 7307 0cb6 90        		.byte	0x90
 7308 0cb7 20        		.uleb128 0x20
 7309 0cb8 6E0E 0000 		.long	0xe6e
 7310 0cbc 2D        		.uleb128 0x2d
 7311 0cbd 0000 0000 		.long	.LASF32
 7312 0cc1 01        		.byte	0x1
 7313 0cc2 6C        		.byte	0x6c
 7314 0cc3 F800 0000 		.long	0xf8
 7315 0cc7 0000 0000 		.long	.LLST37
 7316 0ccb 32        		.uleb128 0x32
 7317 0ccc 6900      		.string	"i"
 7318 0cce 01        		.byte	0x1
 7319 0ccf 6E        		.byte	0x6e
 7320 0cd0 5D00 0000 		.long	0x5d
 7321 0cd4 0000 0000 		.long	.LLST38
 7322 0cd8 10        		.uleb128 0x10
 7323 0cd9 6572 7200 		.string	"err"
 7324 0cdd 01        		.byte	0x1
GAS LISTING C:\DOCUME~1\KEUNSO~1\LOCALS~1\Temp/ccIyMOV1.s 			page 130


 7325 0cde 6F        		.byte	0x6f
 7326 0cdf 5D00 0000 		.long	0x5d
 7327 0ce3 2E        		.uleb128 0x2e
 7328 0ce4 7300      		.string	"s"
 7329 0ce6 01        		.byte	0x1
 7330 0ce7 70        		.byte	0x70
 7331 0ce8 6E0E 0000 		.long	0xe6e
 7332 0cec 02        		.byte	0x2
 7333 0ced 8C        		.byte	0x8c
 7334 0cee 02        		.sleb128 2
 7335 0cef 2F        		.uleb128 0x2f
 7336 0cf0 BA04 0000 		.long	0x4ba
 7337 0cf4 0000 0000 		.long	.Ldebug_ranges0+0xa98
 7338 0cf8 01        		.byte	0x1
 7339 0cf9 74        		.byte	0x74
 7340 0cfa DB0D 0000 		.long	0xddb
 7341 0cfe 24        		.uleb128 0x24
 7342 0cff 8202 0000 		.long	0x282
 7343 0d03 0000 0000 		.long	.Ldebug_ranges0+0xab0
 7344 0d07 01        		.byte	0x1
 7345 0d08 2201      		.word	0x122
 7346 0d0a 370D 0000 		.long	0xd37
 7347 0d0e 12        		.uleb128 0x12
 7348 0d0f C702 0000 		.long	0x2c7
 7349 0d13 0000 0000 		.long	.LLST39
 7350 0d17 1E        		.uleb128 0x1e
 7351 0d18 F901 0000 		.long	0x1f9
 7352 0d1c 0000 0000 		.long	.Ldebug_ranges0+0xac8
 7353 0d20 01        		.byte	0x1
 7354 0d21 E0        		.byte	0xe0
 7355 0d22 1B        		.uleb128 0x1b
 7356 0d23 3002 0000 		.long	0x230
 7357 0d27 1F        		.uleb128 0x1f
 7358 0d28 0000 0000 		.long	.Ldebug_ranges0+0xae8
 7359 0d2c 16        		.uleb128 0x16
 7360 0d2d 1002 0000 		.long	0x210
 7361 0d31 02        		.byte	0x2
 7362 0d32 8C        		.byte	0x8c
 7363 0d33 01        		.sleb128 1
 7364 0d34 00        		.byte	0x0
 7365 0d35 00        		.byte	0x0
 7366 0d36 00        		.byte	0x0
 7367 0d37 25        		.uleb128 0x25
 7368 0d38 9B03 0000 		.long	0x39b
 7369 0d3c 0000 0000 		.long	.Ldebug_ranges0+0xb08
 7370 0d40 01        		.byte	0x1
 7371 0d41 2101      		.word	0x121
 7372 0d43 1B        		.uleb128 0x1b
 7373 0d44 2404 0000 		.long	0x424
 7374 0d48 1B        		.uleb128 0x1b
 7375 0d49 1B04 0000 		.long	0x41b
 7376 0d4d 24        		.uleb128 0x24
 7377 0d4e F901 0000 		.long	0x1f9
 7378 0d52 0000 0000 		.long	.Ldebug_ranges0+0xb28
 7379 0d56 01        		.byte	0x1
 7380 0d57 1601      		.word	0x116
 7381 0d59 710D 0000 		.long	0xd71
GAS LISTING C:\DOCUME~1\KEUNSO~1\LOCALS~1\Temp/ccIyMOV1.s 			page 131


 7382 0d5d 1B        		.uleb128 0x1b
 7383 0d5e 3002 0000 		.long	0x230
 7384 0d62 1F        		.uleb128 0x1f
 7385 0d63 0000 0000 		.long	.Ldebug_ranges0+0xb40
 7386 0d67 16        		.uleb128 0x16
 7387 0d68 1002 0000 		.long	0x210
 7388 0d6c 02        		.byte	0x2
 7389 0d6d 8C        		.byte	0x8c
 7390 0d6e 01        		.sleb128 1
 7391 0d6f 00        		.byte	0x0
 7392 0d70 00        		.byte	0x0
 7393 0d71 24        		.uleb128 0x24
 7394 0d72 F901 0000 		.long	0x1f9
 7395 0d76 0000 0000 		.long	.Ldebug_ranges0+0xb58
 7396 0d7a 01        		.byte	0x1
 7397 0d7b 1701      		.word	0x117
 7398 0d7d 950D 0000 		.long	0xd95
 7399 0d81 1B        		.uleb128 0x1b
 7400 0d82 3002 0000 		.long	0x230
 7401 0d86 1F        		.uleb128 0x1f
 7402 0d87 0000 0000 		.long	.Ldebug_ranges0+0xb70
 7403 0d8b 16        		.uleb128 0x16
 7404 0d8c 1002 0000 		.long	0x210
 7405 0d90 02        		.byte	0x2
 7406 0d91 8C        		.byte	0x8c
 7407 0d92 01        		.sleb128 1
 7408 0d93 00        		.byte	0x0
 7409 0d94 00        		.byte	0x0
 7410 0d95 24        		.uleb128 0x24
 7411 0d96 F901 0000 		.long	0x1f9
 7412 0d9a 0000 0000 		.long	.Ldebug_ranges0+0xb88
 7413 0d9e 01        		.byte	0x1
 7414 0d9f 1901      		.word	0x119
 7415 0da1 B90D 0000 		.long	0xdb9
 7416 0da5 1B        		.uleb128 0x1b
 7417 0da6 3002 0000 		.long	0x230
 7418 0daa 1F        		.uleb128 0x1f
 7419 0dab 0000 0000 		.long	.Ldebug_ranges0+0xba0
 7420 0daf 16        		.uleb128 0x16
 7421 0db0 1002 0000 		.long	0x210
 7422 0db4 02        		.byte	0x2
 7423 0db5 8C        		.byte	0x8c
 7424 0db6 01        		.sleb128 1
 7425 0db7 00        		.byte	0x0
 7426 0db8 00        		.byte	0x0
 7427 0db9 25        		.uleb128 0x25
 7428 0dba F901 0000 		.long	0x1f9
 7429 0dbe 0000 0000 		.long	.Ldebug_ranges0+0xbb8
 7430 0dc2 01        		.byte	0x1
 7431 0dc3 1B01      		.word	0x11b
 7432 0dc5 1B        		.uleb128 0x1b
 7433 0dc6 3002 0000 		.long	0x230
 7434 0dca 1F        		.uleb128 0x1f
 7435 0dcb 0000 0000 		.long	.Ldebug_ranges0+0xbd0
 7436 0dcf 16        		.uleb128 0x16
 7437 0dd0 1002 0000 		.long	0x210
 7438 0dd4 02        		.byte	0x2
GAS LISTING C:\DOCUME~1\KEUNSO~1\LOCALS~1\Temp/ccIyMOV1.s 			page 132


 7439 0dd5 8C        		.byte	0x8c
 7440 0dd6 01        		.sleb128 1
 7441 0dd7 00        		.byte	0x0
 7442 0dd8 00        		.byte	0x0
 7443 0dd9 00        		.byte	0x0
 7444 0dda 00        		.byte	0x0
 7445 0ddb 2F        		.uleb128 0x2f
 7446 0ddc 4F01 0000 		.long	0x14f
 7447 0de0 0000 0000 		.long	.Ldebug_ranges0+0xbe8
 7448 0de4 01        		.byte	0x1
 7449 0de5 84        		.byte	0x84
 7450 0de6 050E 0000 		.long	0xe05
 7451 0dea 1B        		.uleb128 0x1b
 7452 0deb AE01 0000 		.long	0x1ae
 7453 0def 1B        		.uleb128 0x1b
 7454 0df0 A501 0000 		.long	0x1a5
 7455 0df4 1B        		.uleb128 0x1b
 7456 0df5 9C01 0000 		.long	0x19c
 7457 0df9 1F        		.uleb128 0x1f
 7458 0dfa 0000 0000 		.long	.Ldebug_ranges0+0xc00
 7459 0dfe 1C        		.uleb128 0x1c
 7460 0dff 7801 0000 		.long	0x178
 7461 0e03 00        		.byte	0x0
 7462 0e04 00        		.byte	0x0
 7463 0e05 30        		.uleb128 0x30
 7464 0e06 4F01 0000 		.long	0x14f
 7465 0e0a 0000 0000 		.long	.LBB439
 7466 0e0e 0000 0000 		.long	.LBE439
 7467 0e12 01        		.byte	0x1
 7468 0e13 86        		.byte	0x86
 7469 0e14 3B0E 0000 		.long	0xe3b
 7470 0e18 1B        		.uleb128 0x1b
 7471 0e19 AE01 0000 		.long	0x1ae
 7472 0e1d 12        		.uleb128 0x12
 7473 0e1e A501 0000 		.long	0x1a5
 7474 0e22 0000 0000 		.long	.LLST40
 7475 0e26 1B        		.uleb128 0x1b
 7476 0e27 9C01 0000 		.long	0x19c
 7477 0e2b 33        		.uleb128 0x33
 7478 0e2c 0000 0000 		.long	.LBB440
 7479 0e30 0000 0000 		.long	.LBE440
 7480 0e34 1C        		.uleb128 0x1c
 7481 0e35 7801 0000 		.long	0x178
 7482 0e39 00        		.byte	0x0
 7483 0e3a 00        		.byte	0x0
 7484 0e3b 31        		.uleb128 0x31
 7485 0e3c 4F01 0000 		.long	0x14f
 7486 0e40 0000 0000 		.long	.LBB441
 7487 0e44 0000 0000 		.long	.LBE441
 7488 0e48 01        		.byte	0x1
 7489 0e49 88        		.byte	0x88
 7490 0e4a 1B        		.uleb128 0x1b
 7491 0e4b AE01 0000 		.long	0x1ae
 7492 0e4f 12        		.uleb128 0x12
 7493 0e50 A501 0000 		.long	0x1a5
 7494 0e54 0000 0000 		.long	.LLST41
 7495 0e58 1B        		.uleb128 0x1b
GAS LISTING C:\DOCUME~1\KEUNSO~1\LOCALS~1\Temp/ccIyMOV1.s 			page 133


 7496 0e59 9C01 0000 		.long	0x19c
 7497 0e5d 33        		.uleb128 0x33
 7498 0e5e 0000 0000 		.long	.LBB442
 7499 0e62 0000 0000 		.long	.LBE442
 7500 0e66 1C        		.uleb128 0x1c
 7501 0e67 7801 0000 		.long	0x178
 7502 0e6b 00        		.byte	0x0
 7503 0e6c 00        		.byte	0x0
 7504 0e6d 00        		.byte	0x0
 7505 0e6e 08        		.uleb128 0x8
 7506 0e6f 1D01 0000 		.long	0x11d
 7507 0e73 7E0E 0000 		.long	0xe7e
 7508 0e77 09        		.uleb128 0x9
 7509 0e78 0A01 0000 		.long	0x10a
 7510 0e7c 09        		.byte	0x9
 7511 0e7d 00        		.byte	0x0
 7512 0e7e 34        		.uleb128 0x34
 7513 0e7f 0000 0000 		.long	.LASF34
 7514 0e83 03        		.byte	0x3
 7515 0e84 D101      		.word	0x1d1
 7516 0e86 7E00 0000 		.long	0x7e
 7517 0e8a 01        		.byte	0x1
 7518 0e8b 01        		.byte	0x1
 7519 0e8c 34        		.uleb128 0x34
 7520 0e8d 0000 0000 		.long	.LASF35
 7521 0e91 03        		.byte	0x3
 7522 0e92 DE01      		.word	0x1de
 7523 0e94 6800 0000 		.long	0x68
 7524 0e98 01        		.byte	0x1
 7525 0e99 01        		.byte	0x1
 7526 0e9a 34        		.uleb128 0x34
 7527 0e9b 0000 0000 		.long	.LASF36
 7528 0e9f 03        		.byte	0x3
 7529 0ea0 F201      		.word	0x1f2
 7530 0ea2 5D00 0000 		.long	0x5d
 7531 0ea6 01        		.byte	0x1
 7532 0ea7 01        		.byte	0x1
 7533 0ea8 08        		.uleb128 0x8
 7534 0ea9 9000 0000 		.long	0x90
 7535 0ead BF0E 0000 		.long	0xebf
 7536 0eb1 09        		.uleb128 0x9
 7537 0eb2 0A01 0000 		.long	0x10a
 7538 0eb6 09        		.byte	0x9
 7539 0eb7 35        		.uleb128 0x35
 7540 0eb8 0A01 0000 		.long	0x10a
 7541 0ebc FF01      		.word	0x1ff
 7542 0ebe 00        		.byte	0x0
 7543 0ebf 36        		.uleb128 0x36
 7544 0ec0 0000 0000 		.long	.LASF37
 7545 0ec4 01        		.byte	0x1
 7546 0ec5 30        		.byte	0x30
 7547 0ec6 A80E 0000 		.long	0xea8
 7548 0eca 01        		.byte	0x1
 7549 0ecb 05        		.byte	0x5
 7550 0ecc 03        		.byte	0x3
 7551 0ecd 0000 0000 		.long	TaskStk
 7552 0ed1 08        		.uleb128 0x8
GAS LISTING C:\DOCUME~1\KEUNSO~1\LOCALS~1\Temp/ccIyMOV1.s 			page 134


 7553 0ed2 9000 0000 		.long	0x90
 7554 0ed6 E20E 0000 		.long	0xee2
 7555 0eda 35        		.uleb128 0x35
 7556 0edb 0A01 0000 		.long	0x10a
 7557 0edf FF01      		.word	0x1ff
 7558 0ee1 00        		.byte	0x0
 7559 0ee2 36        		.uleb128 0x36
 7560 0ee3 0000 0000 		.long	.LASF38
 7561 0ee7 01        		.byte	0x1
 7562 0ee8 31        		.byte	0x31
 7563 0ee9 D10E 0000 		.long	0xed1
 7564 0eed 01        		.byte	0x1
 7565 0eee 05        		.byte	0x5
 7566 0eef 03        		.byte	0x3
 7567 0ef0 0000 0000 		.long	TaskStartStk
 7568 0ef4 36        		.uleb128 0x36
 7569 0ef5 0000 0000 		.long	.LASF39
 7570 0ef9 01        		.byte	0x1
 7571 0efa 32        		.byte	0x32
 7572 0efb 6E0E 0000 		.long	0xe6e
 7573 0eff 01        		.byte	0x1
 7574 0f00 05        		.byte	0x5
 7575 0f01 03        		.byte	0x3
 7576 0f02 0000 0000 		.long	TaskData
 7577 0f06 36        		.uleb128 0x36
 7578 0f07 0000 0000 		.long	.LASF40
 7579 0f0b 01        		.byte	0x1
 7580 0f0c 33        		.byte	0x33
 7581 0f0d 2F01 0000 		.long	0x12f
 7582 0f11 01        		.byte	0x1
 7583 0f12 05        		.byte	0x5
 7584 0f13 03        		.byte	0x3
 7585 0f14 0000 0000 		.long	RandomSem
 7586 0f18 36        		.uleb128 0x36
 7587 0f19 0000 0000 		.long	.LASF41
 7588 0f1d 01        		.byte	0x1
 7589 0f1e 34        		.byte	0x34
 7590 0f1f 2F01 0000 		.long	0x12f
 7591 0f23 01        		.byte	0x1
 7592 0f24 05        		.byte	0x5
 7593 0f25 03        		.byte	0x3
 7594 0f26 0000 0000 		.long	DispStrSem
 7595 0f2a 36        		.uleb128 0x36
 7596 0f2b 0000 0000 		.long	.LASF42
 7597 0f2f 01        		.byte	0x1
 7598 0f30 35        		.byte	0x35
 7599 0f31 7E00 0000 		.long	0x7e
 7600 0f35 01        		.byte	0x1
 7601 0f36 05        		.byte	0x5
 7602 0f37 03        		.byte	0x3
 7603 0f38 0000 0000 		.long	RndNext
 7604 0f3c 08        		.uleb128 0x8
 7605 0f3d 5D00 0000 		.long	0x5d
 7606 0f41 4C0F 0000 		.long	0xf4c
 7607 0f45 09        		.uleb128 0x9
 7608 0f46 0A01 0000 		.long	0x10a
 7609 0f4a FF        		.byte	0xff
GAS LISTING C:\DOCUME~1\KEUNSO~1\LOCALS~1\Temp/ccIyMOV1.s 			page 135


 7610 0f4b 00        		.byte	0x0
 7611 0f4c 36        		.uleb128 0x36
 7612 0f4d 0000 0000 		.long	.LASF43
 7613 0f51 01        		.byte	0x1
 7614 0f52 36        		.byte	0x36
 7615 0f53 3C0F 0000 		.long	0xf3c
 7616 0f57 01        		.byte	0x1
 7617 0f58 05        		.byte	0x5
 7618 0f59 03        		.byte	0x3
 7619 0f5a 0000 0000 		.long	UartTxBuf
 7620 0f5e 36        		.uleb128 0x36
 7621 0f5f 0000 0000 		.long	.LASF44
 7622 0f63 01        		.byte	0x1
 7623 0f64 37        		.byte	0x37
 7624 0f65 5D00 0000 		.long	0x5d
 7625 0f69 01        		.byte	0x1
 7626 0f6a 05        		.byte	0x5
 7627 0f6b 03        		.byte	0x3
 7628 0f6c 0000 0000 		.long	UartTxRdPtr
 7629 0f70 36        		.uleb128 0x36
 7630 0f71 0000 0000 		.long	.LASF45
 7631 0f75 01        		.byte	0x1
 7632 0f76 38        		.byte	0x38
 7633 0f77 5D00 0000 		.long	0x5d
 7634 0f7b 01        		.byte	0x1
 7635 0f7c 05        		.byte	0x5
 7636 0f7d 03        		.byte	0x3
 7637 0f7e 0000 0000 		.long	UartTxWrPtr
 7638 0f82 36        		.uleb128 0x36
 7639 0f83 0000 0000 		.long	.LASF46
 7640 0f87 01        		.byte	0x1
 7641 0f88 39        		.byte	0x39
 7642 0f89 5D00 0000 		.long	0x5d
 7643 0f8d 01        		.byte	0x1
 7644 0f8e 05        		.byte	0x5
 7645 0f8f 03        		.byte	0x3
 7646 0f90 0000 0000 		.long	UartTxCount
 7647 0f94 36        		.uleb128 0x36
 7648 0f95 0000 0000 		.long	.LASF47
 7649 0f99 01        		.byte	0x1
 7650 0f9a 3A        		.byte	0x3a
 7651 0f9b 2F01 0000 		.long	0x12f
 7652 0f9f 01        		.byte	0x1
 7653 0fa0 05        		.byte	0x5
 7654 0fa1 03        		.byte	0x3
 7655 0fa2 0000 0000 		.long	UartTxSem
 7656 0fa6 36        		.uleb128 0x36
 7657 0fa7 0000 0000 		.long	.LASF48
 7658 0fab 01        		.byte	0x1
 7659 0fac 3D        		.byte	0x3d
 7660 0fad 2C00 0000 		.long	0x2c
 7661 0fb1 01        		.byte	0x1
 7662 0fb2 05        		.byte	0x5
 7663 0fb3 03        		.byte	0x3
 7664 0fb4 0000 0000 		.long	kurt
 7665 0fb8 00        		.byte	0x0
 7666               		.section	.debug_abbrev
GAS LISTING C:\DOCUME~1\KEUNSO~1\LOCALS~1\Temp/ccIyMOV1.s 			page 136


 7667 0000 01        		.uleb128 0x1
 7668 0001 11        		.uleb128 0x11
 7669 0002 01        		.byte	0x1
 7670 0003 25        		.uleb128 0x25
 7671 0004 0E        		.uleb128 0xe
 7672 0005 13        		.uleb128 0x13
 7673 0006 0B        		.uleb128 0xb
 7674 0007 03        		.uleb128 0x3
 7675 0008 0E        		.uleb128 0xe
 7676 0009 1B        		.uleb128 0x1b
 7677 000a 0E        		.uleb128 0xe
 7678 000b 11        		.uleb128 0x11
 7679 000c 01        		.uleb128 0x1
 7680 000d 12        		.uleb128 0x12
 7681 000e 01        		.uleb128 0x1
 7682 000f 10        		.uleb128 0x10
 7683 0010 06        		.uleb128 0x6
 7684 0011 00        		.byte	0x0
 7685 0012 00        		.byte	0x0
 7686 0013 02        		.uleb128 0x2
 7687 0014 24        		.uleb128 0x24
 7688 0015 00        		.byte	0x0
 7689 0016 0B        		.uleb128 0xb
 7690 0017 0B        		.uleb128 0xb
 7691 0018 3E        		.uleb128 0x3e
 7692 0019 0B        		.uleb128 0xb
 7693 001a 03        		.uleb128 0x3
 7694 001b 0E        		.uleb128 0xe
 7695 001c 00        		.byte	0x0
 7696 001d 00        		.byte	0x0
 7697 001e 03        		.uleb128 0x3
 7698 001f 24        		.uleb128 0x24
 7699 0020 00        		.byte	0x0
 7700 0021 0B        		.uleb128 0xb
 7701 0022 0B        		.uleb128 0xb
 7702 0023 3E        		.uleb128 0x3e
 7703 0024 0B        		.uleb128 0xb
 7704 0025 03        		.uleb128 0x3
 7705 0026 08        		.uleb128 0x8
 7706 0027 00        		.byte	0x0
 7707 0028 00        		.byte	0x0
 7708 0029 04        		.uleb128 0x4
 7709 002a 16        		.uleb128 0x16
 7710 002b 00        		.byte	0x0
 7711 002c 03        		.uleb128 0x3
 7712 002d 0E        		.uleb128 0xe
 7713 002e 3A        		.uleb128 0x3a
 7714 002f 0B        		.uleb128 0xb
 7715 0030 3B        		.uleb128 0x3b
 7716 0031 0B        		.uleb128 0xb
 7717 0032 49        		.uleb128 0x49
 7718 0033 13        		.uleb128 0x13
 7719 0034 00        		.byte	0x0
 7720 0035 00        		.byte	0x0
 7721 0036 05        		.uleb128 0x5
 7722 0037 13        		.uleb128 0x13
 7723 0038 01        		.byte	0x1
GAS LISTING C:\DOCUME~1\KEUNSO~1\LOCALS~1\Temp/ccIyMOV1.s 			page 137


 7724 0039 0B        		.uleb128 0xb
 7725 003a 0B        		.uleb128 0xb
 7726 003b 3A        		.uleb128 0x3a
 7727 003c 0B        		.uleb128 0xb
 7728 003d 3B        		.uleb128 0x3b
 7729 003e 0B        		.uleb128 0xb
 7730 003f 01        		.uleb128 0x1
 7731 0040 13        		.uleb128 0x13
 7732 0041 00        		.byte	0x0
 7733 0042 00        		.byte	0x0
 7734 0043 06        		.uleb128 0x6
 7735 0044 0D        		.uleb128 0xd
 7736 0045 00        		.byte	0x0
 7737 0046 03        		.uleb128 0x3
 7738 0047 0E        		.uleb128 0xe
 7739 0048 3A        		.uleb128 0x3a
 7740 0049 0B        		.uleb128 0xb
 7741 004a 3B        		.uleb128 0x3b
 7742 004b 0B        		.uleb128 0xb
 7743 004c 49        		.uleb128 0x49
 7744 004d 13        		.uleb128 0x13
 7745 004e 38        		.uleb128 0x38
 7746 004f 0A        		.uleb128 0xa
 7747 0050 00        		.byte	0x0
 7748 0051 00        		.byte	0x0
 7749 0052 07        		.uleb128 0x7
 7750 0053 0F        		.uleb128 0xf
 7751 0054 00        		.byte	0x0
 7752 0055 0B        		.uleb128 0xb
 7753 0056 0B        		.uleb128 0xb
 7754 0057 00        		.byte	0x0
 7755 0058 00        		.byte	0x0
 7756 0059 08        		.uleb128 0x8
 7757 005a 01        		.uleb128 0x1
 7758 005b 01        		.byte	0x1
 7759 005c 49        		.uleb128 0x49
 7760 005d 13        		.uleb128 0x13
 7761 005e 01        		.uleb128 0x1
 7762 005f 13        		.uleb128 0x13
 7763 0060 00        		.byte	0x0
 7764 0061 00        		.byte	0x0
 7765 0062 09        		.uleb128 0x9
 7766 0063 21        		.uleb128 0x21
 7767 0064 00        		.byte	0x0
 7768 0065 49        		.uleb128 0x49
 7769 0066 13        		.uleb128 0x13
 7770 0067 2F        		.uleb128 0x2f
 7771 0068 0B        		.uleb128 0xb
 7772 0069 00        		.byte	0x0
 7773 006a 00        		.byte	0x0
 7774 006b 0A        		.uleb128 0xa
 7775 006c 24        		.uleb128 0x24
 7776 006d 00        		.byte	0x0
 7777 006e 0B        		.uleb128 0xb
 7778 006f 0B        		.uleb128 0xb
 7779 0070 3E        		.uleb128 0x3e
 7780 0071 0B        		.uleb128 0xb
GAS LISTING C:\DOCUME~1\KEUNSO~1\LOCALS~1\Temp/ccIyMOV1.s 			page 138


 7781 0072 00        		.byte	0x0
 7782 0073 00        		.byte	0x0
 7783 0074 0B        		.uleb128 0xb
 7784 0075 0F        		.uleb128 0xf
 7785 0076 00        		.byte	0x0
 7786 0077 0B        		.uleb128 0xb
 7787 0078 0B        		.uleb128 0xb
 7788 0079 49        		.uleb128 0x49
 7789 007a 13        		.uleb128 0x13
 7790 007b 00        		.byte	0x0
 7791 007c 00        		.byte	0x0
 7792 007d 0C        		.uleb128 0xc
 7793 007e 2E        		.uleb128 0x2e
 7794 007f 00        		.byte	0x0
 7795 0080 3F        		.uleb128 0x3f
 7796 0081 0C        		.uleb128 0xc
 7797 0082 03        		.uleb128 0x3
 7798 0083 0E        		.uleb128 0xe
 7799 0084 3A        		.uleb128 0x3a
 7800 0085 0B        		.uleb128 0xb
 7801 0086 3B        		.uleb128 0x3b
 7802 0087 0B        		.uleb128 0xb
 7803 0088 27        		.uleb128 0x27
 7804 0089 0C        		.uleb128 0xc
 7805 008a 20        		.uleb128 0x20
 7806 008b 0B        		.uleb128 0xb
 7807 008c 00        		.byte	0x0
 7808 008d 00        		.byte	0x0
 7809 008e 0D        		.uleb128 0xd
 7810 008f 2E        		.uleb128 0x2e
 7811 0090 00        		.byte	0x0
 7812 0091 31        		.uleb128 0x31
 7813 0092 13        		.uleb128 0x13
 7814 0093 11        		.uleb128 0x11
 7815 0094 01        		.uleb128 0x1
 7816 0095 12        		.uleb128 0x12
 7817 0096 01        		.uleb128 0x1
 7818 0097 40        		.uleb128 0x40
 7819 0098 0A        		.uleb128 0xa
 7820 0099 00        		.byte	0x0
 7821 009a 00        		.byte	0x0
 7822 009b 0E        		.uleb128 0xe
 7823 009c 2E        		.uleb128 0x2e
 7824 009d 01        		.byte	0x1
 7825 009e 3F        		.uleb128 0x3f
 7826 009f 0C        		.uleb128 0xc
 7827 00a0 03        		.uleb128 0x3
 7828 00a1 0E        		.uleb128 0xe
 7829 00a2 3A        		.uleb128 0x3a
 7830 00a3 0B        		.uleb128 0xb
 7831 00a4 3B        		.uleb128 0x3b
 7832 00a5 0B        		.uleb128 0xb
 7833 00a6 27        		.uleb128 0x27
 7834 00a7 0C        		.uleb128 0xc
 7835 00a8 20        		.uleb128 0x20
 7836 00a9 0B        		.uleb128 0xb
 7837 00aa 01        		.uleb128 0x1
GAS LISTING C:\DOCUME~1\KEUNSO~1\LOCALS~1\Temp/ccIyMOV1.s 			page 139


 7838 00ab 13        		.uleb128 0x13
 7839 00ac 00        		.byte	0x0
 7840 00ad 00        		.byte	0x0
 7841 00ae 0F        		.uleb128 0xf
 7842 00af 05        		.uleb128 0x5
 7843 00b0 00        		.byte	0x0
 7844 00b1 03        		.uleb128 0x3
 7845 00b2 08        		.uleb128 0x8
 7846 00b3 3A        		.uleb128 0x3a
 7847 00b4 0B        		.uleb128 0xb
 7848 00b5 3B        		.uleb128 0x3b
 7849 00b6 0B        		.uleb128 0xb
 7850 00b7 49        		.uleb128 0x49
 7851 00b8 13        		.uleb128 0x13
 7852 00b9 00        		.byte	0x0
 7853 00ba 00        		.byte	0x0
 7854 00bb 10        		.uleb128 0x10
 7855 00bc 34        		.uleb128 0x34
 7856 00bd 00        		.byte	0x0
 7857 00be 03        		.uleb128 0x3
 7858 00bf 08        		.uleb128 0x8
 7859 00c0 3A        		.uleb128 0x3a
 7860 00c1 0B        		.uleb128 0xb
 7861 00c2 3B        		.uleb128 0x3b
 7862 00c3 0B        		.uleb128 0xb
 7863 00c4 49        		.uleb128 0x49
 7864 00c5 13        		.uleb128 0x13
 7865 00c6 00        		.byte	0x0
 7866 00c7 00        		.byte	0x0
 7867 00c8 11        		.uleb128 0x11
 7868 00c9 2E        		.uleb128 0x2e
 7869 00ca 01        		.byte	0x1
 7870 00cb 31        		.uleb128 0x31
 7871 00cc 13        		.uleb128 0x13
 7872 00cd 11        		.uleb128 0x11
 7873 00ce 01        		.uleb128 0x1
 7874 00cf 12        		.uleb128 0x12
 7875 00d0 01        		.uleb128 0x1
 7876 00d1 40        		.uleb128 0x40
 7877 00d2 0A        		.uleb128 0xa
 7878 00d3 01        		.uleb128 0x1
 7879 00d4 13        		.uleb128 0x13
 7880 00d5 00        		.byte	0x0
 7881 00d6 00        		.byte	0x0
 7882 00d7 12        		.uleb128 0x12
 7883 00d8 05        		.uleb128 0x5
 7884 00d9 00        		.byte	0x0
 7885 00da 31        		.uleb128 0x31
 7886 00db 13        		.uleb128 0x13
 7887 00dc 02        		.uleb128 0x2
 7888 00dd 06        		.uleb128 0x6
 7889 00de 00        		.byte	0x0
 7890 00df 00        		.byte	0x0
 7891 00e0 13        		.uleb128 0x13
 7892 00e1 05        		.uleb128 0x5
 7893 00e2 00        		.byte	0x0
 7894 00e3 31        		.uleb128 0x31
GAS LISTING C:\DOCUME~1\KEUNSO~1\LOCALS~1\Temp/ccIyMOV1.s 			page 140


 7895 00e4 13        		.uleb128 0x13
 7896 00e5 02        		.uleb128 0x2
 7897 00e6 0A        		.uleb128 0xa
 7898 00e7 00        		.byte	0x0
 7899 00e8 00        		.byte	0x0
 7900 00e9 14        		.uleb128 0x14
 7901 00ea 34        		.uleb128 0x34
 7902 00eb 00        		.byte	0x0
 7903 00ec 31        		.uleb128 0x31
 7904 00ed 13        		.uleb128 0x13
 7905 00ee 02        		.uleb128 0x2
 7906 00ef 06        		.uleb128 0x6
 7907 00f0 00        		.byte	0x0
 7908 00f1 00        		.byte	0x0
 7909 00f2 15        		.uleb128 0x15
 7910 00f3 2E        		.uleb128 0x2e
 7911 00f4 01        		.byte	0x1
 7912 00f5 3F        		.uleb128 0x3f
 7913 00f6 0C        		.uleb128 0xc
 7914 00f7 03        		.uleb128 0x3
 7915 00f8 0E        		.uleb128 0xe
 7916 00f9 3A        		.uleb128 0x3a
 7917 00fa 0B        		.uleb128 0xb
 7918 00fb 3B        		.uleb128 0x3b
 7919 00fc 0B        		.uleb128 0xb
 7920 00fd 27        		.uleb128 0x27
 7921 00fe 0C        		.uleb128 0xc
 7922 00ff 49        		.uleb128 0x49
 7923 0100 13        		.uleb128 0x13
 7924 0101 20        		.uleb128 0x20
 7925 0102 0B        		.uleb128 0xb
 7926 0103 01        		.uleb128 0x1
 7927 0104 13        		.uleb128 0x13
 7928 0105 00        		.byte	0x0
 7929 0106 00        		.byte	0x0
 7930 0107 16        		.uleb128 0x16
 7931 0108 34        		.uleb128 0x34
 7932 0109 00        		.byte	0x0
 7933 010a 31        		.uleb128 0x31
 7934 010b 13        		.uleb128 0x13
 7935 010c 02        		.uleb128 0x2
 7936 010d 0A        		.uleb128 0xa
 7937 010e 00        		.byte	0x0
 7938 010f 00        		.byte	0x0
 7939 0110 17        		.uleb128 0x17
 7940 0111 2E        		.uleb128 0x2e
 7941 0112 00        		.byte	0x0
 7942 0113 3F        		.uleb128 0x3f
 7943 0114 0C        		.uleb128 0xc
 7944 0115 03        		.uleb128 0x3
 7945 0116 0E        		.uleb128 0xe
 7946 0117 3A        		.uleb128 0x3a
 7947 0118 0B        		.uleb128 0xb
 7948 0119 3B        		.uleb128 0x3b
 7949 011a 0B        		.uleb128 0xb
 7950 011b 27        		.uleb128 0x27
 7951 011c 0C        		.uleb128 0xc
GAS LISTING C:\DOCUME~1\KEUNSO~1\LOCALS~1\Temp/ccIyMOV1.s 			page 141


 7952 011d 11        		.uleb128 0x11
 7953 011e 01        		.uleb128 0x1
 7954 011f 12        		.uleb128 0x12
 7955 0120 01        		.uleb128 0x1
 7956 0121 40        		.uleb128 0x40
 7957 0122 0A        		.uleb128 0xa
 7958 0123 00        		.byte	0x0
 7959 0124 00        		.byte	0x0
 7960 0125 18        		.uleb128 0x18
 7961 0126 2E        		.uleb128 0x2e
 7962 0127 01        		.byte	0x1
 7963 0128 3F        		.uleb128 0x3f
 7964 0129 0C        		.uleb128 0xc
 7965 012a 03        		.uleb128 0x3
 7966 012b 0E        		.uleb128 0xe
 7967 012c 3A        		.uleb128 0x3a
 7968 012d 0B        		.uleb128 0xb
 7969 012e 3B        		.uleb128 0x3b
 7970 012f 0B        		.uleb128 0xb
 7971 0130 27        		.uleb128 0x27
 7972 0131 0C        		.uleb128 0xc
 7973 0132 49        		.uleb128 0x49
 7974 0133 13        		.uleb128 0x13
 7975 0134 11        		.uleb128 0x11
 7976 0135 01        		.uleb128 0x1
 7977 0136 12        		.uleb128 0x12
 7978 0137 01        		.uleb128 0x1
 7979 0138 40        		.uleb128 0x40
 7980 0139 0A        		.uleb128 0xa
 7981 013a 01        		.uleb128 0x1
 7982 013b 13        		.uleb128 0x13
 7983 013c 00        		.byte	0x0
 7984 013d 00        		.byte	0x0
 7985 013e 19        		.uleb128 0x19
 7986 013f 1D        		.uleb128 0x1d
 7987 0140 00        		.byte	0x0
 7988 0141 31        		.uleb128 0x31
 7989 0142 13        		.uleb128 0x13
 7990 0143 11        		.uleb128 0x11
 7991 0144 01        		.uleb128 0x1
 7992 0145 12        		.uleb128 0x12
 7993 0146 01        		.uleb128 0x1
 7994 0147 58        		.uleb128 0x58
 7995 0148 0B        		.uleb128 0xb
 7996 0149 59        		.uleb128 0x59
 7997 014a 0B        		.uleb128 0xb
 7998 014b 00        		.byte	0x0
 7999 014c 00        		.byte	0x0
 8000 014d 1A        		.uleb128 0x1a
 8001 014e 0B        		.uleb128 0xb
 8002 014f 01        		.byte	0x1
 8003 0150 00        		.byte	0x0
 8004 0151 00        		.byte	0x0
 8005 0152 1B        		.uleb128 0x1b
 8006 0153 05        		.uleb128 0x5
 8007 0154 00        		.byte	0x0
 8008 0155 31        		.uleb128 0x31
GAS LISTING C:\DOCUME~1\KEUNSO~1\LOCALS~1\Temp/ccIyMOV1.s 			page 142


 8009 0156 13        		.uleb128 0x13
 8010 0157 00        		.byte	0x0
 8011 0158 00        		.byte	0x0
 8012 0159 1C        		.uleb128 0x1c
 8013 015a 34        		.uleb128 0x34
 8014 015b 00        		.byte	0x0
 8015 015c 31        		.uleb128 0x31
 8016 015d 13        		.uleb128 0x13
 8017 015e 00        		.byte	0x0
 8018 015f 00        		.byte	0x0
 8019 0160 1D        		.uleb128 0x1d
 8020 0161 26        		.uleb128 0x26
 8021 0162 00        		.byte	0x0
 8022 0163 49        		.uleb128 0x49
 8023 0164 13        		.uleb128 0x13
 8024 0165 00        		.byte	0x0
 8025 0166 00        		.byte	0x0
 8026 0167 1E        		.uleb128 0x1e
 8027 0168 1D        		.uleb128 0x1d
 8028 0169 01        		.byte	0x1
 8029 016a 31        		.uleb128 0x31
 8030 016b 13        		.uleb128 0x13
 8031 016c 55        		.uleb128 0x55
 8032 016d 06        		.uleb128 0x6
 8033 016e 58        		.uleb128 0x58
 8034 016f 0B        		.uleb128 0xb
 8035 0170 59        		.uleb128 0x59
 8036 0171 0B        		.uleb128 0xb
 8037 0172 00        		.byte	0x0
 8038 0173 00        		.byte	0x0
 8039 0174 1F        		.uleb128 0x1f
 8040 0175 0B        		.uleb128 0xb
 8041 0176 01        		.byte	0x1
 8042 0177 55        		.uleb128 0x55
 8043 0178 06        		.uleb128 0x6
 8044 0179 00        		.byte	0x0
 8045 017a 00        		.byte	0x0
 8046 017b 20        		.uleb128 0x20
 8047 017c 2E        		.uleb128 0x2e
 8048 017d 01        		.byte	0x1
 8049 017e 3F        		.uleb128 0x3f
 8050 017f 0C        		.uleb128 0xc
 8051 0180 03        		.uleb128 0x3
 8052 0181 0E        		.uleb128 0xe
 8053 0182 3A        		.uleb128 0x3a
 8054 0183 0B        		.uleb128 0xb
 8055 0184 3B        		.uleb128 0x3b
 8056 0185 05        		.uleb128 0x5
 8057 0186 27        		.uleb128 0x27
 8058 0187 0C        		.uleb128 0xc
 8059 0188 11        		.uleb128 0x11
 8060 0189 01        		.uleb128 0x1
 8061 018a 12        		.uleb128 0x12
 8062 018b 01        		.uleb128 0x1
 8063 018c 40        		.uleb128 0x40
 8064 018d 0A        		.uleb128 0xa
 8065 018e 01        		.uleb128 0x1
GAS LISTING C:\DOCUME~1\KEUNSO~1\LOCALS~1\Temp/ccIyMOV1.s 			page 143


 8066 018f 13        		.uleb128 0x13
 8067 0190 00        		.byte	0x0
 8068 0191 00        		.byte	0x0
 8069 0192 21        		.uleb128 0x21
 8070 0193 05        		.uleb128 0x5
 8071 0194 00        		.byte	0x0
 8072 0195 03        		.uleb128 0x3
 8073 0196 08        		.uleb128 0x8
 8074 0197 3A        		.uleb128 0x3a
 8075 0198 0B        		.uleb128 0xb
 8076 0199 3B        		.uleb128 0x3b
 8077 019a 05        		.uleb128 0x5
 8078 019b 49        		.uleb128 0x49
 8079 019c 13        		.uleb128 0x13
 8080 019d 02        		.uleb128 0x2
 8081 019e 06        		.uleb128 0x6
 8082 019f 00        		.byte	0x0
 8083 01a0 00        		.byte	0x0
 8084 01a1 22        		.uleb128 0x22
 8085 01a2 34        		.uleb128 0x34
 8086 01a3 00        		.byte	0x0
 8087 01a4 03        		.uleb128 0x3
 8088 01a5 08        		.uleb128 0x8
 8089 01a6 3A        		.uleb128 0x3a
 8090 01a7 0B        		.uleb128 0xb
 8091 01a8 3B        		.uleb128 0x3b
 8092 01a9 05        		.uleb128 0x5
 8093 01aa 49        		.uleb128 0x49
 8094 01ab 13        		.uleb128 0x13
 8095 01ac 00        		.byte	0x0
 8096 01ad 00        		.byte	0x0
 8097 01ae 23        		.uleb128 0x23
 8098 01af 34        		.uleb128 0x34
 8099 01b0 00        		.byte	0x0
 8100 01b1 03        		.uleb128 0x3
 8101 01b2 08        		.uleb128 0x8
 8102 01b3 3A        		.uleb128 0x3a
 8103 01b4 0B        		.uleb128 0xb
 8104 01b5 3B        		.uleb128 0x3b
 8105 01b6 05        		.uleb128 0x5
 8106 01b7 49        		.uleb128 0x49
 8107 01b8 13        		.uleb128 0x13
 8108 01b9 02        		.uleb128 0x2
 8109 01ba 06        		.uleb128 0x6
 8110 01bb 00        		.byte	0x0
 8111 01bc 00        		.byte	0x0
 8112 01bd 24        		.uleb128 0x24
 8113 01be 1D        		.uleb128 0x1d
 8114 01bf 01        		.byte	0x1
 8115 01c0 31        		.uleb128 0x31
 8116 01c1 13        		.uleb128 0x13
 8117 01c2 55        		.uleb128 0x55
 8118 01c3 06        		.uleb128 0x6
 8119 01c4 58        		.uleb128 0x58
 8120 01c5 0B        		.uleb128 0xb
 8121 01c6 59        		.uleb128 0x59
 8122 01c7 05        		.uleb128 0x5
GAS LISTING C:\DOCUME~1\KEUNSO~1\LOCALS~1\Temp/ccIyMOV1.s 			page 144


 8123 01c8 01        		.uleb128 0x1
 8124 01c9 13        		.uleb128 0x13
 8125 01ca 00        		.byte	0x0
 8126 01cb 00        		.byte	0x0
 8127 01cc 25        		.uleb128 0x25
 8128 01cd 1D        		.uleb128 0x1d
 8129 01ce 01        		.byte	0x1
 8130 01cf 31        		.uleb128 0x31
 8131 01d0 13        		.uleb128 0x13
 8132 01d1 55        		.uleb128 0x55
 8133 01d2 06        		.uleb128 0x6
 8134 01d3 58        		.uleb128 0x58
 8135 01d4 0B        		.uleb128 0xb
 8136 01d5 59        		.uleb128 0x59
 8137 01d6 05        		.uleb128 0x5
 8138 01d7 00        		.byte	0x0
 8139 01d8 00        		.byte	0x0
 8140 01d9 26        		.uleb128 0x26
 8141 01da 2E        		.uleb128 0x2e
 8142 01db 01        		.byte	0x1
 8143 01dc 3F        		.uleb128 0x3f
 8144 01dd 0C        		.uleb128 0xc
 8145 01de 03        		.uleb128 0x3
 8146 01df 0E        		.uleb128 0xe
 8147 01e0 3A        		.uleb128 0x3a
 8148 01e1 0B        		.uleb128 0xb
 8149 01e2 3B        		.uleb128 0x3b
 8150 01e3 05        		.uleb128 0x5
 8151 01e4 27        		.uleb128 0x27
 8152 01e5 0C        		.uleb128 0xc
 8153 01e6 20        		.uleb128 0x20
 8154 01e7 0B        		.uleb128 0xb
 8155 01e8 01        		.uleb128 0x1
 8156 01e9 13        		.uleb128 0x13
 8157 01ea 00        		.byte	0x0
 8158 01eb 00        		.byte	0x0
 8159 01ec 27        		.uleb128 0x27
 8160 01ed 05        		.uleb128 0x5
 8161 01ee 00        		.byte	0x0
 8162 01ef 03        		.uleb128 0x3
 8163 01f0 0E        		.uleb128 0xe
 8164 01f1 3A        		.uleb128 0x3a
 8165 01f2 0B        		.uleb128 0xb
 8166 01f3 3B        		.uleb128 0x3b
 8167 01f4 05        		.uleb128 0x5
 8168 01f5 49        		.uleb128 0x49
 8169 01f6 13        		.uleb128 0x13
 8170 01f7 00        		.byte	0x0
 8171 01f8 00        		.byte	0x0
 8172 01f9 28        		.uleb128 0x28
 8173 01fa 0B        		.uleb128 0xb
 8174 01fb 01        		.byte	0x1
 8175 01fc 01        		.uleb128 0x1
 8176 01fd 13        		.uleb128 0x13
 8177 01fe 00        		.byte	0x0
 8178 01ff 00        		.byte	0x0
 8179 0200 29        		.uleb128 0x29
GAS LISTING C:\DOCUME~1\KEUNSO~1\LOCALS~1\Temp/ccIyMOV1.s 			page 145


 8180 0201 05        		.uleb128 0x5
 8181 0202 00        		.byte	0x0
 8182 0203 03        		.uleb128 0x3
 8183 0204 0E        		.uleb128 0xe
 8184 0205 3A        		.uleb128 0x3a
 8185 0206 0B        		.uleb128 0xb
 8186 0207 3B        		.uleb128 0x3b
 8187 0208 05        		.uleb128 0x5
 8188 0209 49        		.uleb128 0x49
 8189 020a 13        		.uleb128 0x13
 8190 020b 02        		.uleb128 0x2
 8191 020c 06        		.uleb128 0x6
 8192 020d 00        		.byte	0x0
 8193 020e 00        		.byte	0x0
 8194 020f 2A        		.uleb128 0x2a
 8195 0210 34        		.uleb128 0x34
 8196 0211 00        		.byte	0x0
 8197 0212 03        		.uleb128 0x3
 8198 0213 08        		.uleb128 0x8
 8199 0214 3A        		.uleb128 0x3a
 8200 0215 0B        		.uleb128 0xb
 8201 0216 3B        		.uleb128 0x3b
 8202 0217 05        		.uleb128 0x5
 8203 0218 49        		.uleb128 0x49
 8204 0219 13        		.uleb128 0x13
 8205 021a 02        		.uleb128 0x2
 8206 021b 0A        		.uleb128 0xa
 8207 021c 00        		.byte	0x0
 8208 021d 00        		.byte	0x0
 8209 021e 2B        		.uleb128 0x2b
 8210 021f 05        		.uleb128 0x5
 8211 0220 00        		.byte	0x0
 8212 0221 03        		.uleb128 0x3
 8213 0222 08        		.uleb128 0x8
 8214 0223 3A        		.uleb128 0x3a
 8215 0224 0B        		.uleb128 0xb
 8216 0225 3B        		.uleb128 0x3b
 8217 0226 05        		.uleb128 0x5
 8218 0227 49        		.uleb128 0x49
 8219 0228 13        		.uleb128 0x13
 8220 0229 00        		.byte	0x0
 8221 022a 00        		.byte	0x0
 8222 022b 2C        		.uleb128 0x2c
 8223 022c 2E        		.uleb128 0x2e
 8224 022d 01        		.byte	0x1
 8225 022e 3F        		.uleb128 0x3f
 8226 022f 0C        		.uleb128 0xc
 8227 0230 03        		.uleb128 0x3
 8228 0231 0E        		.uleb128 0xe
 8229 0232 3A        		.uleb128 0x3a
 8230 0233 0B        		.uleb128 0xb
 8231 0234 3B        		.uleb128 0x3b
 8232 0235 0B        		.uleb128 0xb
 8233 0236 27        		.uleb128 0x27
 8234 0237 0C        		.uleb128 0xc
 8235 0238 11        		.uleb128 0x11
 8236 0239 01        		.uleb128 0x1
GAS LISTING C:\DOCUME~1\KEUNSO~1\LOCALS~1\Temp/ccIyMOV1.s 			page 146


 8237 023a 12        		.uleb128 0x12
 8238 023b 01        		.uleb128 0x1
 8239 023c 40        		.uleb128 0x40
 8240 023d 0A        		.uleb128 0xa
 8241 023e 01        		.uleb128 0x1
 8242 023f 13        		.uleb128 0x13
 8243 0240 00        		.byte	0x0
 8244 0241 00        		.byte	0x0
 8245 0242 2D        		.uleb128 0x2d
 8246 0243 05        		.uleb128 0x5
 8247 0244 00        		.byte	0x0
 8248 0245 03        		.uleb128 0x3
 8249 0246 0E        		.uleb128 0xe
 8250 0247 3A        		.uleb128 0x3a
 8251 0248 0B        		.uleb128 0xb
 8252 0249 3B        		.uleb128 0x3b
 8253 024a 0B        		.uleb128 0xb
 8254 024b 49        		.uleb128 0x49
 8255 024c 13        		.uleb128 0x13
 8256 024d 02        		.uleb128 0x2
 8257 024e 06        		.uleb128 0x6
 8258 024f 00        		.byte	0x0
 8259 0250 00        		.byte	0x0
 8260 0251 2E        		.uleb128 0x2e
 8261 0252 34        		.uleb128 0x34
 8262 0253 00        		.byte	0x0
 8263 0254 03        		.uleb128 0x3
 8264 0255 08        		.uleb128 0x8
 8265 0256 3A        		.uleb128 0x3a
 8266 0257 0B        		.uleb128 0xb
 8267 0258 3B        		.uleb128 0x3b
 8268 0259 0B        		.uleb128 0xb
 8269 025a 49        		.uleb128 0x49
 8270 025b 13        		.uleb128 0x13
 8271 025c 02        		.uleb128 0x2
 8272 025d 0A        		.uleb128 0xa
 8273 025e 00        		.byte	0x0
 8274 025f 00        		.byte	0x0
 8275 0260 2F        		.uleb128 0x2f
 8276 0261 1D        		.uleb128 0x1d
 8277 0262 01        		.byte	0x1
 8278 0263 31        		.uleb128 0x31
 8279 0264 13        		.uleb128 0x13
 8280 0265 55        		.uleb128 0x55
 8281 0266 06        		.uleb128 0x6
 8282 0267 58        		.uleb128 0x58
 8283 0268 0B        		.uleb128 0xb
 8284 0269 59        		.uleb128 0x59
 8285 026a 0B        		.uleb128 0xb
 8286 026b 01        		.uleb128 0x1
 8287 026c 13        		.uleb128 0x13
 8288 026d 00        		.byte	0x0
 8289 026e 00        		.byte	0x0
 8290 026f 30        		.uleb128 0x30
 8291 0270 1D        		.uleb128 0x1d
 8292 0271 01        		.byte	0x1
 8293 0272 31        		.uleb128 0x31
GAS LISTING C:\DOCUME~1\KEUNSO~1\LOCALS~1\Temp/ccIyMOV1.s 			page 147


 8294 0273 13        		.uleb128 0x13
 8295 0274 11        		.uleb128 0x11
 8296 0275 01        		.uleb128 0x1
 8297 0276 12        		.uleb128 0x12
 8298 0277 01        		.uleb128 0x1
 8299 0278 58        		.uleb128 0x58
 8300 0279 0B        		.uleb128 0xb
 8301 027a 59        		.uleb128 0x59
 8302 027b 0B        		.uleb128 0xb
 8303 027c 01        		.uleb128 0x1
 8304 027d 13        		.uleb128 0x13
 8305 027e 00        		.byte	0x0
 8306 027f 00        		.byte	0x0
 8307 0280 31        		.uleb128 0x31
 8308 0281 1D        		.uleb128 0x1d
 8309 0282 01        		.byte	0x1
 8310 0283 31        		.uleb128 0x31
 8311 0284 13        		.uleb128 0x13
 8312 0285 11        		.uleb128 0x11
 8313 0286 01        		.uleb128 0x1
 8314 0287 12        		.uleb128 0x12
 8315 0288 01        		.uleb128 0x1
 8316 0289 58        		.uleb128 0x58
 8317 028a 0B        		.uleb128 0xb
 8318 028b 59        		.uleb128 0x59
 8319 028c 0B        		.uleb128 0xb
 8320 028d 00        		.byte	0x0
 8321 028e 00        		.byte	0x0
 8322 028f 32        		.uleb128 0x32
 8323 0290 34        		.uleb128 0x34
 8324 0291 00        		.byte	0x0
 8325 0292 03        		.uleb128 0x3
 8326 0293 08        		.uleb128 0x8
 8327 0294 3A        		.uleb128 0x3a
 8328 0295 0B        		.uleb128 0xb
 8329 0296 3B        		.uleb128 0x3b
 8330 0297 0B        		.uleb128 0xb
 8331 0298 49        		.uleb128 0x49
 8332 0299 13        		.uleb128 0x13
 8333 029a 02        		.uleb128 0x2
 8334 029b 06        		.uleb128 0x6
 8335 029c 00        		.byte	0x0
 8336 029d 00        		.byte	0x0
 8337 029e 33        		.uleb128 0x33
 8338 029f 0B        		.uleb128 0xb
 8339 02a0 01        		.byte	0x1
 8340 02a1 11        		.uleb128 0x11
 8341 02a2 01        		.uleb128 0x1
 8342 02a3 12        		.uleb128 0x12
 8343 02a4 01        		.uleb128 0x1
 8344 02a5 00        		.byte	0x0
 8345 02a6 00        		.byte	0x0
 8346 02a7 34        		.uleb128 0x34
 8347 02a8 34        		.uleb128 0x34
 8348 02a9 00        		.byte	0x0
 8349 02aa 03        		.uleb128 0x3
 8350 02ab 0E        		.uleb128 0xe
GAS LISTING C:\DOCUME~1\KEUNSO~1\LOCALS~1\Temp/ccIyMOV1.s 			page 148


 8351 02ac 3A        		.uleb128 0x3a
 8352 02ad 0B        		.uleb128 0xb
 8353 02ae 3B        		.uleb128 0x3b
 8354 02af 05        		.uleb128 0x5
 8355 02b0 49        		.uleb128 0x49
 8356 02b1 13        		.uleb128 0x13
 8357 02b2 3F        		.uleb128 0x3f
 8358 02b3 0C        		.uleb128 0xc
 8359 02b4 3C        		.uleb128 0x3c
 8360 02b5 0C        		.uleb128 0xc
 8361 02b6 00        		.byte	0x0
 8362 02b7 00        		.byte	0x0
 8363 02b8 35        		.uleb128 0x35
 8364 02b9 21        		.uleb128 0x21
 8365 02ba 00        		.byte	0x0
 8366 02bb 49        		.uleb128 0x49
 8367 02bc 13        		.uleb128 0x13
 8368 02bd 2F        		.uleb128 0x2f
 8369 02be 05        		.uleb128 0x5
 8370 02bf 00        		.byte	0x0
 8371 02c0 00        		.byte	0x0
 8372 02c1 36        		.uleb128 0x36
 8373 02c2 34        		.uleb128 0x34
 8374 02c3 00        		.byte	0x0
 8375 02c4 03        		.uleb128 0x3
 8376 02c5 0E        		.uleb128 0xe
 8377 02c6 3A        		.uleb128 0x3a
 8378 02c7 0B        		.uleb128 0xb
 8379 02c8 3B        		.uleb128 0x3b
 8380 02c9 0B        		.uleb128 0xb
 8381 02ca 49        		.uleb128 0x49
 8382 02cb 13        		.uleb128 0x13
 8383 02cc 3F        		.uleb128 0x3f
 8384 02cd 0C        		.uleb128 0xc
 8385 02ce 02        		.uleb128 0x2
 8386 02cf 0A        		.uleb128 0xa
 8387 02d0 00        		.byte	0x0
 8388 02d1 00        		.byte	0x0
 8389 02d2 00        		.byte	0x0
 8390               		.section	.debug_pubnames,"",@progbits
 8391 0000 7A01 0000 		.long	0x17a
 8392 0004 0200      		.word	0x2
 8393 0006 0000 0000 		.long	.Ldebug_info0
 8394 000a B90F 0000 		.long	0xfb9
 8395 000e 3F01 0000 		.long	0x13f
 8396 0012 4176 7249 		.string	"AvrInit"
 8396      6E69 7400 
 8397 001a 8801 0000 		.long	0x188
 8398 001e 5350 7269 		.string	"SPrintDec"
 8398      6E74 4465 
 8398      6300 
 8399 0028 DB01 0000 		.long	0x1db
 8400 002c 7261 6E64 		.string	"random"
 8400      6F6D 00
 8401 0033 1C02 0000 		.long	0x21c
 8402 0037 5075 7443 		.string	"PutChar"
 8402      6861 7200 
GAS LISTING C:\DOCUME~1\KEUNSO~1\LOCALS~1\Temp/ccIyMOV1.s 			page 149


 8403 003f 4202 0000 		.long	0x242
 8404 0043 5F5F 7665 		.string	"__vector_20"
 8404      6374 6F72 
 8404      5F32 3000 
 8405 004f 5602 0000 		.long	0x256
 8406 0053 6D61 696E 		.string	"main"
 8406      00
 8407 0058 B302 0000 		.long	0x2b3
 8408 005c 5075 7453 		.string	"PutString"
 8408      7472 696E 
 8408      6700 
 8409 0066 F002 0000 		.long	0x2f0
 8410 006a 5075 7444 		.string	"PutDec"
 8410      6563 00
 8411 0071 0704 0000 		.long	0x407
 8412 0075 5654 3130 		.string	"VT102Attribute"
 8412      3241 7474 
 8412      7269 6275 
 8412      7465 00
 8413 0084 3305 0000 		.long	0x533
 8414 0088 5654 3130 		.string	"VT102DispClrScr"
 8414      3244 6973 
 8414      7043 6C72 
 8414      5363 7200 
 8415 0098 2406 0000 		.long	0x624
 8416 009c 5654 3130 		.string	"VT102DispStr"
 8416      3244 6973 
 8416      7053 7472 
 8416      00
 8417 00a9 FF08 0000 		.long	0x8ff
 8418 00ad 5654 3130 		.string	"VT102DispChar"
 8418      3244 6973 
 8418      7043 6861 
 8418      7200 
 8419 00bb A00A 0000 		.long	0xaa0
 8420 00bf 5461 736B 		.string	"Task"
 8420      00
 8421 00c4 A40C 0000 		.long	0xca4
 8422 00c8 5461 736B 		.string	"TaskStart"
 8422      5374 6172 
 8422      7400 
 8423 00d2 BF0E 0000 		.long	0xebf
 8424 00d6 5461 736B 		.string	"TaskStk"
 8424      5374 6B00 
 8425 00de E20E 0000 		.long	0xee2
 8426 00e2 5461 736B 		.string	"TaskStartStk"
 8426      5374 6172 
 8426      7453 746B 
 8426      00
 8427 00ef F40E 0000 		.long	0xef4
 8428 00f3 5461 736B 		.string	"TaskData"
 8428      4461 7461 
 8428      00
 8429 00fc 060F 0000 		.long	0xf06
 8430 0100 5261 6E64 		.string	"RandomSem"
 8430      6F6D 5365 
 8430      6D00 
GAS LISTING C:\DOCUME~1\KEUNSO~1\LOCALS~1\Temp/ccIyMOV1.s 			page 150


 8431 010a 180F 0000 		.long	0xf18
 8432 010e 4469 7370 		.string	"DispStrSem"
 8432      5374 7253 
 8432      656D 00
 8433 0119 2A0F 0000 		.long	0xf2a
 8434 011d 526E 644E 		.string	"RndNext"
 8434      6578 7400 
 8435 0125 4C0F 0000 		.long	0xf4c
 8436 0129 5561 7274 		.string	"UartTxBuf"
 8436      5478 4275 
 8436      6600 
 8437 0133 5E0F 0000 		.long	0xf5e
 8438 0137 5561 7274 		.string	"UartTxRdPtr"
 8438      5478 5264 
 8438      5074 7200 
 8439 0143 700F 0000 		.long	0xf70
 8440 0147 5561 7274 		.string	"UartTxWrPtr"
 8440      5478 5772 
 8440      5074 7200 
 8441 0153 820F 0000 		.long	0xf82
 8442 0157 5561 7274 		.string	"UartTxCount"
 8442      5478 436F 
 8442      756E 7400 
 8443 0163 940F 0000 		.long	0xf94
 8444 0167 5561 7274 		.string	"UartTxSem"
 8444      5478 5365 
 8444      6D00 
 8445 0171 A60F 0000 		.long	0xfa6
 8446 0175 6B75 7274 		.string	"kurt"
 8446      00
 8447 017a 0000 0000 		.long	0x0
 8448               		.section	.debug_aranges,"",@progbits
 8449 0000 1C00 0000 		.long	0x1c
 8450 0004 0200      		.word	0x2
 8451 0006 0000 0000 		.long	.Ldebug_info0
 8452 000a 04        		.byte	0x4
 8453 000b 00        		.byte	0x0
 8454 000c 0000      		.word	0x0
 8455 000e 0000      		.word	0x0
 8456 0010 0000 0000 		.long	.Ltext0
 8457 0014 0619 0000 		.long	.Letext0-.Ltext0
 8458 0018 0000 0000 		.long	0x0
 8459 001c 0000 0000 		.long	0x0
 8460               		.section	.debug_ranges,"",@progbits
 8461               	.Ldebug_ranges0:
 8462 0000 BA02 0000 		.long	.LBB8-.Ltext0
 8463 0004 D402 0000 		.long	.LBE8-.Ltext0
 8464 0008 2A03 0000 		.long	.LBB13-.Ltext0
 8465 000c 4403 0000 		.long	.LBE13-.Ltext0
 8466 0010 E202 0000 		.long	.LBB12-.Ltext0
 8467 0014 0C03 0000 		.long	.LBE12-.Ltext0
 8468 0018 0000 0000 		.long	0x0
 8469 001c 0000 0000 		.long	0x0
 8470 0020 BA02 0000 		.long	.LBB10-.Ltext0
 8471 0024 D402 0000 		.long	.LBE10-.Ltext0
 8472 0028 2A03 0000 		.long	.LBB11-.Ltext0
 8473 002c 4403 0000 		.long	.LBE11-.Ltext0
GAS LISTING C:\DOCUME~1\KEUNSO~1\LOCALS~1\Temp/ccIyMOV1.s 			page 151


 8474 0030 E202 0000 		.long	.LBB9-.Ltext0
 8475 0034 0C03 0000 		.long	.LBE9-.Ltext0
 8476 0038 0000 0000 		.long	0x0
 8477 003c 0000 0000 		.long	0x0
 8478 0040 8003 0000 		.long	.LBB20-.Ltext0
 8479 0044 9A03 0000 		.long	.LBE20-.Ltext0
 8480 0048 D203 0000 		.long	.LBB27-.Ltext0
 8481 004c 1404 0000 		.long	.LBE27-.Ltext0
 8482 0050 0000 0000 		.long	0x0
 8483 0054 0000 0000 		.long	0x0
 8484 0058 8003 0000 		.long	.LBB21-.Ltext0
 8485 005c 9A03 0000 		.long	.LBE21-.Ltext0
 8486 0060 D203 0000 		.long	.LBB22-.Ltext0
 8487 0064 1404 0000 		.long	.LBE22-.Ltext0
 8488 0068 0000 0000 		.long	0x0
 8489 006c 0000 0000 		.long	0x0
 8490 0070 A603 0000 		.long	.LBB23-.Ltext0
 8491 0074 C203 0000 		.long	.LBE23-.Ltext0
 8492 0078 5204 0000 		.long	.LBB32-.Ltext0
 8493 007c 7004 0000 		.long	.LBE32-.Ltext0
 8494 0080 1404 0000 		.long	.LBB28-.Ltext0
 8495 0084 3004 0000 		.long	.LBE28-.Ltext0
 8496 0088 0000 0000 		.long	0x0
 8497 008c 0000 0000 		.long	0x0
 8498 0090 A603 0000 		.long	.LBB25-.Ltext0
 8499 0094 C203 0000 		.long	.LBE25-.Ltext0
 8500 0098 5204 0000 		.long	.LBB26-.Ltext0
 8501 009c 7004 0000 		.long	.LBE26-.Ltext0
 8502 00a0 1404 0000 		.long	.LBB24-.Ltext0
 8503 00a4 3004 0000 		.long	.LBE24-.Ltext0
 8504 00a8 0000 0000 		.long	0x0
 8505 00ac 0000 0000 		.long	0x0
 8506 00b0 3604 0000 		.long	.LBB29-.Ltext0
 8507 00b4 5204 0000 		.long	.LBE29-.Ltext0
 8508 00b8 7004 0000 		.long	.LBB33-.Ltext0
 8509 00bc AA04 0000 		.long	.LBE33-.Ltext0
 8510 00c0 0000 0000 		.long	0x0
 8511 00c4 0000 0000 		.long	0x0
 8512 00c8 3604 0000 		.long	.LBB30-.Ltext0
 8513 00cc 5204 0000 		.long	.LBE30-.Ltext0
 8514 00d0 7004 0000 		.long	.LBB31-.Ltext0
 8515 00d4 AA04 0000 		.long	.LBE31-.Ltext0
 8516 00d8 0000 0000 		.long	0x0
 8517 00dc 0000 0000 		.long	0x0
 8518 00e0 BC04 0000 		.long	.LBB42-.Ltext0
 8519 00e4 DE04 0000 		.long	.LBE42-.Ltext0
 8520 00e8 2206 0000 		.long	.LBB60-.Ltext0
 8521 00ec 4006 0000 		.long	.LBE60-.Ltext0
 8522 00f0 5605 0000 		.long	.LBB56-.Ltext0
 8523 00f4 7405 0000 		.long	.LBE56-.Ltext0
 8524 00f8 0000 0000 		.long	0x0
 8525 00fc 0000 0000 		.long	0x0
 8526 0100 BC04 0000 		.long	.LBB44-.Ltext0
 8527 0104 DE04 0000 		.long	.LBE44-.Ltext0
 8528 0108 2206 0000 		.long	.LBB45-.Ltext0
 8529 010c 4006 0000 		.long	.LBE45-.Ltext0
 8530 0110 5605 0000 		.long	.LBB43-.Ltext0
GAS LISTING C:\DOCUME~1\KEUNSO~1\LOCALS~1\Temp/ccIyMOV1.s 			page 152


 8531 0114 7405 0000 		.long	.LBE43-.Ltext0
 8532 0118 0000 0000 		.long	0x0
 8533 011c 0000 0000 		.long	0x0
 8534 0120 DE04 0000 		.long	.LBB46-.Ltext0
 8535 0124 FA04 0000 		.long	.LBE46-.Ltext0
 8536 0128 7405 0000 		.long	.LBB57-.Ltext0
 8537 012c BC05 0000 		.long	.LBE57-.Ltext0
 8538 0130 0000 0000 		.long	0x0
 8539 0134 0000 0000 		.long	0x0
 8540 0138 DE04 0000 		.long	.LBB47-.Ltext0
 8541 013c FA04 0000 		.long	.LBE47-.Ltext0
 8542 0140 7405 0000 		.long	.LBB48-.Ltext0
 8543 0144 BC05 0000 		.long	.LBE48-.Ltext0
 8544 0148 0000 0000 		.long	0x0
 8545 014c 0000 0000 		.long	0x0
 8546 0150 0205 0000 		.long	.LBB49-.Ltext0
 8547 0154 2205 0000 		.long	.LBE49-.Ltext0
 8548 0158 E605 0000 		.long	.LBB59-.Ltext0
 8549 015c 2206 0000 		.long	.LBE59-.Ltext0
 8550 0160 0000 0000 		.long	0x0
 8551 0164 0000 0000 		.long	0x0
 8552 0168 0205 0000 		.long	.LBB50-.Ltext0
 8553 016c 2205 0000 		.long	.LBE50-.Ltext0
 8554 0170 E605 0000 		.long	.LBB51-.Ltext0
 8555 0174 2206 0000 		.long	.LBE51-.Ltext0
 8556 0178 0000 0000 		.long	0x0
 8557 017c 0000 0000 		.long	0x0
 8558 0180 2A05 0000 		.long	.LBB52-.Ltext0
 8559 0184 4A05 0000 		.long	.LBE52-.Ltext0
 8560 0188 4006 0000 		.long	.LBB61-.Ltext0
 8561 018c 5E06 0000 		.long	.LBE61-.Ltext0
 8562 0190 BC05 0000 		.long	.LBB58-.Ltext0
 8563 0194 DA05 0000 		.long	.LBE58-.Ltext0
 8564 0198 0000 0000 		.long	0x0
 8565 019c 0000 0000 		.long	0x0
 8566 01a0 2A05 0000 		.long	.LBB54-.Ltext0
 8567 01a4 4A05 0000 		.long	.LBE54-.Ltext0
 8568 01a8 4006 0000 		.long	.LBB55-.Ltext0
 8569 01ac 5E06 0000 		.long	.LBE55-.Ltext0
 8570 01b0 BC05 0000 		.long	.LBB53-.Ltext0
 8571 01b4 DA05 0000 		.long	.LBE53-.Ltext0
 8572 01b8 0000 0000 		.long	0x0
 8573 01bc 0000 0000 		.long	0x0
 8574 01c0 7406 0000 		.long	.LBB76-.Ltext0
 8575 01c4 0607 0000 		.long	.LBE76-.Ltext0
 8576 01c8 9007 0000 		.long	.LBB109-.Ltext0
 8577 01cc 8C08 0000 		.long	.LBE109-.Ltext0
 8578 01d0 0000 0000 		.long	0x0
 8579 01d4 0000 0000 		.long	0x0
 8580 01d8 DE06 0000 		.long	.LBB78-.Ltext0
 8581 01dc 0607 0000 		.long	.LBE78-.Ltext0
 8582 01e0 6E08 0000 		.long	.LBB97-.Ltext0
 8583 01e4 8C08 0000 		.long	.LBE97-.Ltext0
 8584 01e8 F607 0000 		.long	.LBB94-.Ltext0
 8585 01ec 1408 0000 		.long	.LBE94-.Ltext0
 8586 01f0 0000 0000 		.long	0x0
 8587 01f4 0000 0000 		.long	0x0
GAS LISTING C:\DOCUME~1\KEUNSO~1\LOCALS~1\Temp/ccIyMOV1.s 			page 153


 8588 01f8 DE06 0000 		.long	.LBB80-.Ltext0
 8589 01fc 0607 0000 		.long	.LBE80-.Ltext0
 8590 0200 6E08 0000 		.long	.LBB81-.Ltext0
 8591 0204 8C08 0000 		.long	.LBE81-.Ltext0
 8592 0208 F607 0000 		.long	.LBB79-.Ltext0
 8593 020c 1408 0000 		.long	.LBE79-.Ltext0
 8594 0210 0000 0000 		.long	0x0
 8595 0214 0000 0000 		.long	0x0
 8596 0218 B806 0000 		.long	.LBB82-.Ltext0
 8597 021c D806 0000 		.long	.LBE82-.Ltext0
 8598 0220 1408 0000 		.long	.LBB95-.Ltext0
 8599 0224 5008 0000 		.long	.LBE95-.Ltext0
 8600 0228 0000 0000 		.long	0x0
 8601 022c 0000 0000 		.long	0x0
 8602 0230 B806 0000 		.long	.LBB83-.Ltext0
 8603 0234 D806 0000 		.long	.LBE83-.Ltext0
 8604 0238 1408 0000 		.long	.LBB84-.Ltext0
 8605 023c 5008 0000 		.long	.LBE84-.Ltext0
 8606 0240 0000 0000 		.long	0x0
 8607 0244 0000 0000 		.long	0x0
 8608 0248 9606 0000 		.long	.LBB85-.Ltext0
 8609 024c B206 0000 		.long	.LBE85-.Ltext0
 8610 0250 AE07 0000 		.long	.LBB93-.Ltext0
 8611 0254 F607 0000 		.long	.LBE93-.Ltext0
 8612 0258 0000 0000 		.long	0x0
 8613 025c 0000 0000 		.long	0x0
 8614 0260 9606 0000 		.long	.LBB86-.Ltext0
 8615 0264 B206 0000 		.long	.LBE86-.Ltext0
 8616 0268 AE07 0000 		.long	.LBB87-.Ltext0
 8617 026c F607 0000 		.long	.LBE87-.Ltext0
 8618 0270 0000 0000 		.long	0x0
 8619 0274 0000 0000 		.long	0x0
 8620 0278 7406 0000 		.long	.LBB88-.Ltext0
 8621 027c 9606 0000 		.long	.LBE88-.Ltext0
 8622 0280 5008 0000 		.long	.LBB96-.Ltext0
 8623 0284 6E08 0000 		.long	.LBE96-.Ltext0
 8624 0288 9007 0000 		.long	.LBB92-.Ltext0
 8625 028c AE07 0000 		.long	.LBE92-.Ltext0
 8626 0290 0000 0000 		.long	0x0
 8627 0294 0000 0000 		.long	0x0
 8628 0298 7406 0000 		.long	.LBB90-.Ltext0
 8629 029c 9606 0000 		.long	.LBE90-.Ltext0
 8630 02a0 5008 0000 		.long	.LBB91-.Ltext0
 8631 02a4 6E08 0000 		.long	.LBE91-.Ltext0
 8632 02a8 9007 0000 		.long	.LBB89-.Ltext0
 8633 02ac AE07 0000 		.long	.LBE89-.Ltext0
 8634 02b0 0000 0000 		.long	0x0
 8635 02b4 0000 0000 		.long	0x0
 8636 02b8 0607 0000 		.long	.LBB99-.Ltext0
 8637 02bc 6207 0000 		.long	.LBE99-.Ltext0
 8638 02c0 7607 0000 		.long	.LBB108-.Ltext0
 8639 02c4 9007 0000 		.long	.LBE108-.Ltext0
 8640 02c8 0000 0000 		.long	0x0
 8641 02cc 0000 0000 		.long	0x0
 8642 02d0 0607 0000 		.long	.LBB102-.Ltext0
 8643 02d4 2007 0000 		.long	.LBE102-.Ltext0
 8644 02d8 7607 0000 		.long	.LBB106-.Ltext0
GAS LISTING C:\DOCUME~1\KEUNSO~1\LOCALS~1\Temp/ccIyMOV1.s 			page 154


 8645 02dc 9007 0000 		.long	.LBE106-.Ltext0
 8646 02e0 2E07 0000 		.long	.LBB101-.Ltext0
 8647 02e4 5807 0000 		.long	.LBE101-.Ltext0
 8648 02e8 0000 0000 		.long	0x0
 8649 02ec 0000 0000 		.long	0x0
 8650 02f0 0607 0000 		.long	.LBB104-.Ltext0
 8651 02f4 2007 0000 		.long	.LBE104-.Ltext0
 8652 02f8 7607 0000 		.long	.LBB105-.Ltext0
 8653 02fc 9007 0000 		.long	.LBE105-.Ltext0
 8654 0300 2E07 0000 		.long	.LBB103-.Ltext0
 8655 0304 5807 0000 		.long	.LBE103-.Ltext0
 8656 0308 0000 0000 		.long	0x0
 8657 030c 0000 0000 		.long	0x0
 8658 0310 C408 0000 		.long	.LBB132-.Ltext0
 8659 0314 5409 0000 		.long	.LBE132-.Ltext0
 8660 0318 3C0C 0000 		.long	.LBB194-.Ltext0
 8661 031c 5A0C 0000 		.long	.LBE194-.Ltext0
 8662 0320 C40B 0000 		.long	.LBB192-.Ltext0
 8663 0324 1E0C 0000 		.long	.LBE192-.Ltext0
 8664 0328 820B 0000 		.long	.LBB190-.Ltext0
 8665 032c A00B 0000 		.long	.LBE190-.Ltext0
 8666 0330 800A 0000 		.long	.LBB184-.Ltext0
 8667 0334 E60A 0000 		.long	.LBE184-.Ltext0
 8668 0338 0000 0000 		.long	0x0
 8669 033c 0000 0000 		.long	0x0
 8670 0340 C408 0000 		.long	.LBB140-.Ltext0
 8671 0344 E608 0000 		.long	.LBE140-.Ltext0
 8672 0348 3C0C 0000 		.long	.LBB155-.Ltext0
 8673 034c 5A0C 0000 		.long	.LBE155-.Ltext0
 8674 0350 800A 0000 		.long	.LBB139-.Ltext0
 8675 0354 9E0A 0000 		.long	.LBE139-.Ltext0
 8676 0358 0000 0000 		.long	0x0
 8677 035c 0000 0000 		.long	0x0
 8678 0360 C408 0000 		.long	.LBB142-.Ltext0
 8679 0364 E608 0000 		.long	.LBE142-.Ltext0
 8680 0368 3C0C 0000 		.long	.LBB143-.Ltext0
 8681 036c 5A0C 0000 		.long	.LBE143-.Ltext0
 8682 0370 800A 0000 		.long	.LBB141-.Ltext0
 8683 0374 9E0A 0000 		.long	.LBE141-.Ltext0
 8684 0378 0000 0000 		.long	0x0
 8685 037c 0000 0000 		.long	0x0
 8686 0380 E608 0000 		.long	.LBB144-.Ltext0
 8687 0384 0209 0000 		.long	.LBE144-.Ltext0
 8688 0388 9E0A 0000 		.long	.LBB138-.Ltext0
 8689 038c E60A 0000 		.long	.LBE138-.Ltext0
 8690 0390 0000 0000 		.long	0x0
 8691 0394 0000 0000 		.long	0x0
 8692 0398 E608 0000 		.long	.LBB145-.Ltext0
 8693 039c 0209 0000 		.long	.LBE145-.Ltext0
 8694 03a0 9E0A 0000 		.long	.LBB146-.Ltext0
 8695 03a4 E60A 0000 		.long	.LBE146-.Ltext0
 8696 03a8 0000 0000 		.long	0x0
 8697 03ac 0000 0000 		.long	0x0
 8698 03b0 0A09 0000 		.long	.LBB147-.Ltext0
 8699 03b4 2A09 0000 		.long	.LBE147-.Ltext0
 8700 03b8 C40B 0000 		.long	.LBB137-.Ltext0
 8701 03bc 000C 0000 		.long	.LBE137-.Ltext0
GAS LISTING C:\DOCUME~1\KEUNSO~1\LOCALS~1\Temp/ccIyMOV1.s 			page 155


 8702 03c0 0000 0000 		.long	0x0
 8703 03c4 0000 0000 		.long	0x0
 8704 03c8 0A09 0000 		.long	.LBB148-.Ltext0
 8705 03cc 2A09 0000 		.long	.LBE148-.Ltext0
 8706 03d0 C40B 0000 		.long	.LBB149-.Ltext0
 8707 03d4 000C 0000 		.long	.LBE149-.Ltext0
 8708 03d8 0000 0000 		.long	0x0
 8709 03dc 0000 0000 		.long	0x0
 8710 03e0 3209 0000 		.long	.LBB150-.Ltext0
 8711 03e4 5409 0000 		.long	.LBE150-.Ltext0
 8712 03e8 000C 0000 		.long	.LBB136-.Ltext0
 8713 03ec 1E0C 0000 		.long	.LBE136-.Ltext0
 8714 03f0 820B 0000 		.long	.LBB154-.Ltext0
 8715 03f4 A00B 0000 		.long	.LBE154-.Ltext0
 8716 03f8 0000 0000 		.long	0x0
 8717 03fc 0000 0000 		.long	0x0
 8718 0400 3209 0000 		.long	.LBB152-.Ltext0
 8719 0404 5409 0000 		.long	.LBE152-.Ltext0
 8720 0408 000C 0000 		.long	.LBB153-.Ltext0
 8721 040c 1E0C 0000 		.long	.LBE153-.Ltext0
 8722 0410 820B 0000 		.long	.LBB151-.Ltext0
 8723 0414 A00B 0000 		.long	.LBE151-.Ltext0
 8724 0418 0000 0000 		.long	0x0
 8725 041c 0000 0000 		.long	0x0
 8726 0420 5409 0000 		.long	.LBB158-.Ltext0
 8727 0424 7209 0000 		.long	.LBE158-.Ltext0
 8728 0428 A00B 0000 		.long	.LBB191-.Ltext0
 8729 042c C40B 0000 		.long	.LBE191-.Ltext0
 8730 0430 400B 0000 		.long	.LBB188-.Ltext0
 8731 0434 5E0B 0000 		.long	.LBE188-.Ltext0
 8732 0438 0000 0000 		.long	0x0
 8733 043c 0000 0000 		.long	0x0
 8734 0440 5409 0000 		.long	.LBB160-.Ltext0
 8735 0444 7209 0000 		.long	.LBE160-.Ltext0
 8736 0448 A00B 0000 		.long	.LBB161-.Ltext0
 8737 044c C40B 0000 		.long	.LBE161-.Ltext0
 8738 0450 400B 0000 		.long	.LBB159-.Ltext0
 8739 0454 5E0B 0000 		.long	.LBE159-.Ltext0
 8740 0458 0000 0000 		.long	0x0
 8741 045c 0000 0000 		.long	0x0
 8742 0460 7209 0000 		.long	.LBB162-.Ltext0
 8743 0464 8E09 0000 		.long	.LBE162-.Ltext0
 8744 0468 5E0B 0000 		.long	.LBB189-.Ltext0
 8745 046c 820B 0000 		.long	.LBE189-.Ltext0
 8746 0470 220B 0000 		.long	.LBB187-.Ltext0
 8747 0474 400B 0000 		.long	.LBE187-.Ltext0
 8748 0478 0000 0000 		.long	0x0
 8749 047c 0000 0000 		.long	0x0
 8750 0480 7209 0000 		.long	.LBB164-.Ltext0
 8751 0484 8E09 0000 		.long	.LBE164-.Ltext0
 8752 0488 5E0B 0000 		.long	.LBB165-.Ltext0
 8753 048c 820B 0000 		.long	.LBE165-.Ltext0
 8754 0490 220B 0000 		.long	.LBB163-.Ltext0
 8755 0494 400B 0000 		.long	.LBE163-.Ltext0
 8756 0498 0000 0000 		.long	0x0
 8757 049c 0000 0000 		.long	0x0
 8758 04a0 9409 0000 		.long	.LBB166-.Ltext0
GAS LISTING C:\DOCUME~1\KEUNSO~1\LOCALS~1\Temp/ccIyMOV1.s 			page 156


 8759 04a4 B409 0000 		.long	.LBE166-.Ltext0
 8760 04a8 1E0C 0000 		.long	.LBB193-.Ltext0
 8761 04ac 3C0C 0000 		.long	.LBE193-.Ltext0
 8762 04b0 040B 0000 		.long	.LBB186-.Ltext0
 8763 04b4 220B 0000 		.long	.LBE186-.Ltext0
 8764 04b8 0000 0000 		.long	0x0
 8765 04bc 0000 0000 		.long	0x0
 8766 04c0 9409 0000 		.long	.LBB168-.Ltext0
 8767 04c4 B409 0000 		.long	.LBE168-.Ltext0
 8768 04c8 1E0C 0000 		.long	.LBB169-.Ltext0
 8769 04cc 3C0C 0000 		.long	.LBE169-.Ltext0
 8770 04d0 040B 0000 		.long	.LBB167-.Ltext0
 8771 04d4 220B 0000 		.long	.LBE167-.Ltext0
 8772 04d8 0000 0000 		.long	0x0
 8773 04dc 0000 0000 		.long	0x0
 8774 04e0 BA09 0000 		.long	.LBB170-.Ltext0
 8775 04e4 DA09 0000 		.long	.LBE170-.Ltext0
 8776 04e8 5A0C 0000 		.long	.LBB195-.Ltext0
 8777 04ec 780C 0000 		.long	.LBE195-.Ltext0
 8778 04f0 E60A 0000 		.long	.LBB185-.Ltext0
 8779 04f4 040B 0000 		.long	.LBE185-.Ltext0
 8780 04f8 0000 0000 		.long	0x0
 8781 04fc 0000 0000 		.long	0x0
 8782 0500 BA09 0000 		.long	.LBB172-.Ltext0
 8783 0504 DA09 0000 		.long	.LBE172-.Ltext0
 8784 0508 5A0C 0000 		.long	.LBB173-.Ltext0
 8785 050c 780C 0000 		.long	.LBE173-.Ltext0
 8786 0510 E60A 0000 		.long	.LBB171-.Ltext0
 8787 0514 040B 0000 		.long	.LBE171-.Ltext0
 8788 0518 0000 0000 		.long	0x0
 8789 051c 0000 0000 		.long	0x0
 8790 0520 DA09 0000 		.long	.LBB174-.Ltext0
 8791 0524 440A 0000 		.long	.LBE174-.Ltext0
 8792 0528 660A 0000 		.long	.LBB183-.Ltext0
 8793 052c 800A 0000 		.long	.LBE183-.Ltext0
 8794 0530 0000 0000 		.long	0x0
 8795 0534 0000 0000 		.long	0x0
 8796 0538 E809 0000 		.long	.LBB177-.Ltext0
 8797 053c 020A 0000 		.long	.LBE177-.Ltext0
 8798 0540 660A 0000 		.long	.LBB181-.Ltext0
 8799 0544 800A 0000 		.long	.LBE181-.Ltext0
 8800 0548 100A 0000 		.long	.LBB176-.Ltext0
 8801 054c 3A0A 0000 		.long	.LBE176-.Ltext0
 8802 0550 0000 0000 		.long	0x0
 8803 0554 0000 0000 		.long	0x0
 8804 0558 E809 0000 		.long	.LBB179-.Ltext0
 8805 055c 020A 0000 		.long	.LBE179-.Ltext0
 8806 0560 660A 0000 		.long	.LBB180-.Ltext0
 8807 0564 800A 0000 		.long	.LBE180-.Ltext0
 8808 0568 100A 0000 		.long	.LBB178-.Ltext0
 8809 056c 3A0A 0000 		.long	.LBE178-.Ltext0
 8810 0570 0000 0000 		.long	0x0
 8811 0574 0000 0000 		.long	0x0
 8812 0578 AC0C 0000 		.long	.LBB216-.Ltext0
 8813 057c 3C0D 0000 		.long	.LBE216-.Ltext0
 8814 0580 820F 0000 		.long	.LBB273-.Ltext0
 8815 0584 FA0F 0000 		.long	.LBE273-.Ltext0
GAS LISTING C:\DOCUME~1\KEUNSO~1\LOCALS~1\Temp/ccIyMOV1.s 			page 157


 8816 0588 400F 0000 		.long	.LBB271-.Ltext0
 8817 058c 5E0F 0000 		.long	.LBE271-.Ltext0
 8818 0590 FE0D 0000 		.long	.LBB263-.Ltext0
 8819 0594 640E 0000 		.long	.LBE263-.Ltext0
 8820 0598 0000 0000 		.long	0x0
 8821 059c 0000 0000 		.long	0x0
 8822 05a0 1A0D 0000 		.long	.LBB220-.Ltext0
 8823 05a4 3C0D 0000 		.long	.LBE220-.Ltext0
 8824 05a8 A00F 0000 		.long	.LBB238-.Ltext0
 8825 05ac BE0F 0000 		.long	.LBE238-.Ltext0
 8826 05b0 400F 0000 		.long	.LBB219-.Ltext0
 8827 05b4 5E0F 0000 		.long	.LBE219-.Ltext0
 8828 05b8 0000 0000 		.long	0x0
 8829 05bc 0000 0000 		.long	0x0
 8830 05c0 1A0D 0000 		.long	.LBB222-.Ltext0
 8831 05c4 3C0D 0000 		.long	.LBE222-.Ltext0
 8832 05c8 A00F 0000 		.long	.LBB223-.Ltext0
 8833 05cc BE0F 0000 		.long	.LBE223-.Ltext0
 8834 05d0 400F 0000 		.long	.LBB221-.Ltext0
 8835 05d4 5E0F 0000 		.long	.LBE221-.Ltext0
 8836 05d8 0000 0000 		.long	0x0
 8837 05dc 0000 0000 		.long	0x0
 8838 05e0 F20C 0000 		.long	.LBB224-.Ltext0
 8839 05e4 120D 0000 		.long	.LBE224-.Ltext0
 8840 05e8 BE0F 0000 		.long	.LBB239-.Ltext0
 8841 05ec DC0F 0000 		.long	.LBE239-.Ltext0
 8842 05f0 820F 0000 		.long	.LBB237-.Ltext0
 8843 05f4 A00F 0000 		.long	.LBE237-.Ltext0
 8844 05f8 0000 0000 		.long	0x0
 8845 05fc 0000 0000 		.long	0x0
 8846 0600 F20C 0000 		.long	.LBB226-.Ltext0
 8847 0604 120D 0000 		.long	.LBE226-.Ltext0
 8848 0608 BE0F 0000 		.long	.LBB227-.Ltext0
 8849 060c DC0F 0000 		.long	.LBE227-.Ltext0
 8850 0610 820F 0000 		.long	.LBB225-.Ltext0
 8851 0614 A00F 0000 		.long	.LBE225-.Ltext0
 8852 0618 0000 0000 		.long	0x0
 8853 061c 0000 0000 		.long	0x0
 8854 0620 CE0C 0000 		.long	.LBB228-.Ltext0
 8855 0624 EA0C 0000 		.long	.LBE228-.Ltext0
 8856 0628 1C0E 0000 		.long	.LBB236-.Ltext0
 8857 062c 640E 0000 		.long	.LBE236-.Ltext0
 8858 0630 0000 0000 		.long	0x0
 8859 0634 0000 0000 		.long	0x0
 8860 0638 CE0C 0000 		.long	.LBB229-.Ltext0
 8861 063c EA0C 0000 		.long	.LBE229-.Ltext0
 8862 0640 1C0E 0000 		.long	.LBB230-.Ltext0
 8863 0644 640E 0000 		.long	.LBE230-.Ltext0
 8864 0648 0000 0000 		.long	0x0
 8865 064c 0000 0000 		.long	0x0
 8866 0650 AC0C 0000 		.long	.LBB231-.Ltext0
 8867 0654 CE0C 0000 		.long	.LBE231-.Ltext0
 8868 0658 DC0F 0000 		.long	.LBB240-.Ltext0
 8869 065c FA0F 0000 		.long	.LBE240-.Ltext0
 8870 0660 FE0D 0000 		.long	.LBB235-.Ltext0
 8871 0664 1C0E 0000 		.long	.LBE235-.Ltext0
 8872 0668 0000 0000 		.long	0x0
GAS LISTING C:\DOCUME~1\KEUNSO~1\LOCALS~1\Temp/ccIyMOV1.s 			page 158


 8873 066c 0000 0000 		.long	0x0
 8874 0670 AC0C 0000 		.long	.LBB233-.Ltext0
 8875 0674 CE0C 0000 		.long	.LBE233-.Ltext0
 8876 0678 DC0F 0000 		.long	.LBB234-.Ltext0
 8877 067c FA0F 0000 		.long	.LBE234-.Ltext0
 8878 0680 FE0D 0000 		.long	.LBB232-.Ltext0
 8879 0684 1C0E 0000 		.long	.LBE232-.Ltext0
 8880 0688 0000 0000 		.long	0x0
 8881 068c 0000 0000 		.long	0x0
 8882 0690 3C0D 0000 		.long	.LBB243-.Ltext0
 8883 0694 5A0D 0000 		.long	.LBE243-.Ltext0
 8884 0698 5E0F 0000 		.long	.LBB272-.Ltext0
 8885 069c 820F 0000 		.long	.LBE272-.Ltext0
 8886 06a0 FE0E 0000 		.long	.LBB269-.Ltext0
 8887 06a4 1C0F 0000 		.long	.LBE269-.Ltext0
 8888 06a8 0000 0000 		.long	0x0
 8889 06ac 0000 0000 		.long	0x0
 8890 06b0 3C0D 0000 		.long	.LBB245-.Ltext0
 8891 06b4 5A0D 0000 		.long	.LBE245-.Ltext0
 8892 06b8 5E0F 0000 		.long	.LBB246-.Ltext0
 8893 06bc 820F 0000 		.long	.LBE246-.Ltext0
 8894 06c0 FE0E 0000 		.long	.LBB244-.Ltext0
 8895 06c4 1C0F 0000 		.long	.LBE244-.Ltext0
 8896 06c8 0000 0000 		.long	0x0
 8897 06cc 0000 0000 		.long	0x0
 8898 06d0 5A0D 0000 		.long	.LBB247-.Ltext0
 8899 06d4 760D 0000 		.long	.LBE247-.Ltext0
 8900 06d8 1C0F 0000 		.long	.LBB270-.Ltext0
 8901 06dc 400F 0000 		.long	.LBE270-.Ltext0
 8902 06e0 E00E 0000 		.long	.LBB268-.Ltext0
 8903 06e4 FE0E 0000 		.long	.LBE268-.Ltext0
 8904 06e8 0000 0000 		.long	0x0
 8905 06ec 0000 0000 		.long	0x0
 8906 06f0 5A0D 0000 		.long	.LBB249-.Ltext0
 8907 06f4 760D 0000 		.long	.LBE249-.Ltext0
 8908 06f8 1C0F 0000 		.long	.LBB250-.Ltext0
 8909 06fc 400F 0000 		.long	.LBE250-.Ltext0
 8910 0700 E00E 0000 		.long	.LBB248-.Ltext0
 8911 0704 FE0E 0000 		.long	.LBE248-.Ltext0
 8912 0708 0000 0000 		.long	0x0
 8913 070c 0000 0000 		.long	0x0
 8914 0710 7C0D 0000 		.long	.LBB251-.Ltext0
 8915 0714 9C0D 0000 		.long	.LBE251-.Ltext0
 8916 0718 1810 0000 		.long	.LBB275-.Ltext0
 8917 071c 3610 0000 		.long	.LBE275-.Ltext0
 8918 0720 C20E 0000 		.long	.LBB267-.Ltext0
 8919 0724 E00E 0000 		.long	.LBE267-.Ltext0
 8920 0728 0000 0000 		.long	0x0
 8921 072c 0000 0000 		.long	0x0
 8922 0730 7C0D 0000 		.long	.LBB253-.Ltext0
 8923 0734 9C0D 0000 		.long	.LBE253-.Ltext0
 8924 0738 1810 0000 		.long	.LBB254-.Ltext0
 8925 073c 3610 0000 		.long	.LBE254-.Ltext0
 8926 0740 C20E 0000 		.long	.LBB252-.Ltext0
 8927 0744 E00E 0000 		.long	.LBE252-.Ltext0
 8928 0748 0000 0000 		.long	0x0
 8929 074c 0000 0000 		.long	0x0
GAS LISTING C:\DOCUME~1\KEUNSO~1\LOCALS~1\Temp/ccIyMOV1.s 			page 159


 8930 0750 A20D 0000 		.long	.LBB255-.Ltext0
 8931 0754 C40D 0000 		.long	.LBE255-.Ltext0
 8932 0758 FA0F 0000 		.long	.LBB274-.Ltext0
 8933 075c 1810 0000 		.long	.LBE274-.Ltext0
 8934 0760 800E 0000 		.long	.LBB265-.Ltext0
 8935 0764 9E0E 0000 		.long	.LBE265-.Ltext0
 8936 0768 0000 0000 		.long	0x0
 8937 076c 0000 0000 		.long	0x0
 8938 0770 A20D 0000 		.long	.LBB257-.Ltext0
 8939 0774 C40D 0000 		.long	.LBE257-.Ltext0
 8940 0778 FA0F 0000 		.long	.LBB258-.Ltext0
 8941 077c 1810 0000 		.long	.LBE258-.Ltext0
 8942 0780 800E 0000 		.long	.LBB256-.Ltext0
 8943 0784 9E0E 0000 		.long	.LBE256-.Ltext0
 8944 0788 0000 0000 		.long	0x0
 8945 078c 0000 0000 		.long	0x0
 8946 0790 C40D 0000 		.long	.LBB259-.Ltext0
 8947 0794 DE0D 0000 		.long	.LBE259-.Ltext0
 8948 0798 9E0E 0000 		.long	.LBB266-.Ltext0
 8949 079c C20E 0000 		.long	.LBE266-.Ltext0
 8950 07a0 640E 0000 		.long	.LBB264-.Ltext0
 8951 07a4 800E 0000 		.long	.LBE264-.Ltext0
 8952 07a8 0000 0000 		.long	0x0
 8953 07ac 0000 0000 		.long	0x0
 8954 07b0 C40D 0000 		.long	.LBB261-.Ltext0
 8955 07b4 DE0D 0000 		.long	.LBE261-.Ltext0
 8956 07b8 9E0E 0000 		.long	.LBB262-.Ltext0
 8957 07bc C20E 0000 		.long	.LBE262-.Ltext0
 8958 07c0 640E 0000 		.long	.LBB260-.Ltext0
 8959 07c4 800E 0000 		.long	.LBE260-.Ltext0
 8960 07c8 0000 0000 		.long	0x0
 8961 07cc 0000 0000 		.long	0x0
 8962 07d0 7210 0000 		.long	.LBB302-.Ltext0
 8963 07d4 AC11 0000 		.long	.LBE302-.Ltext0
 8964 07d8 4E12 0000 		.long	.LBB377-.Ltext0
 8965 07dc 7E14 0000 		.long	.LBE377-.Ltext0
 8966 07e0 0000 0000 		.long	0x0
 8967 07e4 0000 0000 		.long	0x0
 8968 07e8 7210 0000 		.long	.LBB303-.Ltext0
 8969 07ec AC11 0000 		.long	.LBE303-.Ltext0
 8970 07f0 4E12 0000 		.long	.LBB372-.Ltext0
 8971 07f4 7E14 0000 		.long	.LBE372-.Ltext0
 8972 07f8 0000 0000 		.long	0x0
 8973 07fc 0000 0000 		.long	0x0
 8974 0800 8811 0000 		.long	.LBB304-.Ltext0
 8975 0804 A011 0000 		.long	.LBE304-.Ltext0
 8976 0808 1013 0000 		.long	.LBB362-.Ltext0
 8977 080c 3013 0000 		.long	.LBE362-.Ltext0
 8978 0810 D612 0000 		.long	.LBB360-.Ltext0
 8979 0814 F212 0000 		.long	.LBE360-.Ltext0
 8980 0818 0000 0000 		.long	0x0
 8981 081c 0000 0000 		.long	0x0
 8982 0820 8811 0000 		.long	.LBB306-.Ltext0
 8983 0824 A011 0000 		.long	.LBE306-.Ltext0
 8984 0828 1013 0000 		.long	.LBB307-.Ltext0
 8985 082c 3013 0000 		.long	.LBE307-.Ltext0
 8986 0830 D612 0000 		.long	.LBB305-.Ltext0
GAS LISTING C:\DOCUME~1\KEUNSO~1\LOCALS~1\Temp/ccIyMOV1.s 			page 160


 8987 0834 F212 0000 		.long	.LBE305-.Ltext0
 8988 0838 0000 0000 		.long	0x0
 8989 083c 0000 0000 		.long	0x0
 8990 0840 6811 0000 		.long	.LBB308-.Ltext0
 8991 0844 8811 0000 		.long	.LBE308-.Ltext0
 8992 0848 4A14 0000 		.long	.LBB370-.Ltext0
 8993 084c 6414 0000 		.long	.LBE370-.Ltext0
 8994 0850 F212 0000 		.long	.LBB361-.Ltext0
 8995 0854 1013 0000 		.long	.LBE361-.Ltext0
 8996 0858 0000 0000 		.long	0x0
 8997 085c 0000 0000 		.long	0x0
 8998 0860 6811 0000 		.long	.LBB310-.Ltext0
 8999 0864 8811 0000 		.long	.LBE310-.Ltext0
 9000 0868 4A14 0000 		.long	.LBB311-.Ltext0
 9001 086c 6414 0000 		.long	.LBE311-.Ltext0
 9002 0870 F212 0000 		.long	.LBB309-.Ltext0
 9003 0874 1013 0000 		.long	.LBE309-.Ltext0
 9004 0878 0000 0000 		.long	0x0
 9005 087c 0000 0000 		.long	0x0
 9006 0880 3411 0000 		.long	.LBB312-.Ltext0
 9007 0884 5011 0000 		.long	.LBE312-.Ltext0
 9008 0888 6414 0000 		.long	.LBB371-.Ltext0
 9009 088c 7E14 0000 		.long	.LBE371-.Ltext0
 9010 0890 3013 0000 		.long	.LBB363-.Ltext0
 9011 0894 4C13 0000 		.long	.LBE363-.Ltext0
 9012 0898 0000 0000 		.long	0x0
 9013 089c 0000 0000 		.long	0x0
 9014 08a0 3411 0000 		.long	.LBB314-.Ltext0
 9015 08a4 5011 0000 		.long	.LBE314-.Ltext0
 9016 08a8 6414 0000 		.long	.LBB315-.Ltext0
 9017 08ac 7E14 0000 		.long	.LBE315-.Ltext0
 9018 08b0 3013 0000 		.long	.LBB313-.Ltext0
 9019 08b4 4C13 0000 		.long	.LBE313-.Ltext0
 9020 08b8 0000 0000 		.long	0x0
 9021 08bc 0000 0000 		.long	0x0
 9022 08c0 0C11 0000 		.long	.LBB316-.Ltext0
 9023 08c4 2411 0000 		.long	.LBE316-.Ltext0
 9024 08c8 8413 0000 		.long	.LBB366-.Ltext0
 9025 08cc A413 0000 		.long	.LBE366-.Ltext0
 9026 08d0 4C13 0000 		.long	.LBB364-.Ltext0
 9027 08d4 6813 0000 		.long	.LBE364-.Ltext0
 9028 08d8 0000 0000 		.long	0x0
 9029 08dc 0000 0000 		.long	0x0
 9030 08e0 0C11 0000 		.long	.LBB318-.Ltext0
 9031 08e4 2411 0000 		.long	.LBE318-.Ltext0
 9032 08e8 8413 0000 		.long	.LBB319-.Ltext0
 9033 08ec A413 0000 		.long	.LBE319-.Ltext0
 9034 08f0 4C13 0000 		.long	.LBB317-.Ltext0
 9035 08f4 6813 0000 		.long	.LBE317-.Ltext0
 9036 08f8 0000 0000 		.long	0x0
 9037 08fc 0000 0000 		.long	0x0
 9038 0900 F210 0000 		.long	.LBB320-.Ltext0
 9039 0904 0C11 0000 		.long	.LBE320-.Ltext0
 9040 0908 C013 0000 		.long	.LBB368-.Ltext0
 9041 090c E013 0000 		.long	.LBE368-.Ltext0
 9042 0910 6813 0000 		.long	.LBB365-.Ltext0
 9043 0914 8413 0000 		.long	.LBE365-.Ltext0
GAS LISTING C:\DOCUME~1\KEUNSO~1\LOCALS~1\Temp/ccIyMOV1.s 			page 161


 9044 0918 0000 0000 		.long	0x0
 9045 091c 0000 0000 		.long	0x0
 9046 0920 F210 0000 		.long	.LBB322-.Ltext0
 9047 0924 0C11 0000 		.long	.LBE322-.Ltext0
 9048 0928 C013 0000 		.long	.LBB323-.Ltext0
 9049 092c E013 0000 		.long	.LBE323-.Ltext0
 9050 0930 6813 0000 		.long	.LBB321-.Ltext0
 9051 0934 8413 0000 		.long	.LBE321-.Ltext0
 9052 0938 0000 0000 		.long	0x0
 9053 093c 0000 0000 		.long	0x0
 9054 0940 7210 0000 		.long	.LBB324-.Ltext0
 9055 0944 F210 0000 		.long	.LBE324-.Ltext0
 9056 0948 E013 0000 		.long	.LBB369-.Ltext0
 9057 094c 4A14 0000 		.long	.LBE369-.Ltext0
 9058 0950 A413 0000 		.long	.LBB367-.Ltext0
 9059 0954 C013 0000 		.long	.LBE367-.Ltext0
 9060 0958 6612 0000 		.long	.LBB359-.Ltext0
 9061 095c D612 0000 		.long	.LBE359-.Ltext0
 9062 0960 0000 0000 		.long	0x0
 9063 0964 0000 0000 		.long	0x0
 9064 0968 8210 0000 		.long	.LBB332-.Ltext0
 9065 096c 8810 0000 		.long	.LBE332-.Ltext0
 9066 0970 FC13 0000 		.long	.LBB354-.Ltext0
 9067 0974 1614 0000 		.long	.LBE354-.Ltext0
 9068 0978 A413 0000 		.long	.LBB327-.Ltext0
 9069 097c C013 0000 		.long	.LBE327-.Ltext0
 9070 0980 D410 0000 		.long	.LBB328-.Ltext0
 9071 0984 F210 0000 		.long	.LBE328-.Ltext0
 9072 0988 0000 0000 		.long	0x0
 9073 098c 0000 0000 		.long	0x0
 9074 0990 8210 0000 		.long	.LBB334-.Ltext0
 9075 0994 8810 0000 		.long	.LBE334-.Ltext0
 9076 0998 FC13 0000 		.long	.LBB336-.Ltext0
 9077 099c 1614 0000 		.long	.LBE336-.Ltext0
 9078 09a0 A413 0000 		.long	.LBB333-.Ltext0
 9079 09a4 C013 0000 		.long	.LBE333-.Ltext0
 9080 09a8 D410 0000 		.long	.LBB335-.Ltext0
 9081 09ac F210 0000 		.long	.LBE335-.Ltext0
 9082 09b0 0000 0000 		.long	0x0
 9083 09b4 0000 0000 		.long	0x0
 9084 09b8 7E10 0000 		.long	.LBB337-.Ltext0
 9085 09bc 8210 0000 		.long	.LBE337-.Ltext0
 9086 09c0 1614 0000 		.long	.LBB355-.Ltext0
 9087 09c4 3014 0000 		.long	.LBE355-.Ltext0
 9088 09c8 E013 0000 		.long	.LBB353-.Ltext0
 9089 09cc FC13 0000 		.long	.LBE353-.Ltext0
 9090 09d0 B210 0000 		.long	.LBB329-.Ltext0
 9091 09d4 CE10 0000 		.long	.LBE329-.Ltext0
 9092 09d8 0000 0000 		.long	0x0
 9093 09dc 0000 0000 		.long	0x0
 9094 09e0 7E10 0000 		.long	.LBB339-.Ltext0
 9095 09e4 8210 0000 		.long	.LBE339-.Ltext0
 9096 09e8 1614 0000 		.long	.LBB341-.Ltext0
 9097 09ec 3014 0000 		.long	.LBE341-.Ltext0
 9098 09f0 E013 0000 		.long	.LBB338-.Ltext0
 9099 09f4 FC13 0000 		.long	.LBE338-.Ltext0
 9100 09f8 B210 0000 		.long	.LBB340-.Ltext0
GAS LISTING C:\DOCUME~1\KEUNSO~1\LOCALS~1\Temp/ccIyMOV1.s 			page 162


 9101 09fc CE10 0000 		.long	.LBE340-.Ltext0
 9102 0a00 0000 0000 		.long	0x0
 9103 0a04 0000 0000 		.long	0x0
 9104 0a08 7A10 0000 		.long	.LBB342-.Ltext0
 9105 0a0c 7E10 0000 		.long	.LBE342-.Ltext0
 9106 0a10 9412 0000 		.long	.LBB352-.Ltext0
 9107 0a14 D612 0000 		.long	.LBE352-.Ltext0
 9108 0a18 9410 0000 		.long	.LBB330-.Ltext0
 9109 0a1c AC10 0000 		.long	.LBE330-.Ltext0
 9110 0a20 0000 0000 		.long	0x0
 9111 0a24 0000 0000 		.long	0x0
 9112 0a28 7A10 0000 		.long	.LBB344-.Ltext0
 9113 0a2c 7E10 0000 		.long	.LBE344-.Ltext0
 9114 0a30 9412 0000 		.long	.LBB345-.Ltext0
 9115 0a34 D612 0000 		.long	.LBE345-.Ltext0
 9116 0a38 9410 0000 		.long	.LBB343-.Ltext0
 9117 0a3c AC10 0000 		.long	.LBE343-.Ltext0
 9118 0a40 0000 0000 		.long	0x0
 9119 0a44 0000 0000 		.long	0x0
 9120 0a48 7210 0000 		.long	.LBB346-.Ltext0
 9121 0a4c 7A10 0000 		.long	.LBE346-.Ltext0
 9122 0a50 3014 0000 		.long	.LBB356-.Ltext0
 9123 0a54 4A14 0000 		.long	.LBE356-.Ltext0
 9124 0a58 6612 0000 		.long	.LBB351-.Ltext0
 9125 0a5c 9412 0000 		.long	.LBE351-.Ltext0
 9126 0a60 8810 0000 		.long	.LBB331-.Ltext0
 9127 0a64 9410 0000 		.long	.LBE331-.Ltext0
 9128 0a68 0000 0000 		.long	0x0
 9129 0a6c 0000 0000 		.long	0x0
 9130 0a70 7210 0000 		.long	.LBB348-.Ltext0
 9131 0a74 7A10 0000 		.long	.LBE348-.Ltext0
 9132 0a78 3014 0000 		.long	.LBB350-.Ltext0
 9133 0a7c 4A14 0000 		.long	.LBE350-.Ltext0
 9134 0a80 6612 0000 		.long	.LBB347-.Ltext0
 9135 0a84 9412 0000 		.long	.LBE347-.Ltext0
 9136 0a88 8810 0000 		.long	.LBB349-.Ltext0
 9137 0a8c 9410 0000 		.long	.LBE349-.Ltext0
 9138 0a90 0000 0000 		.long	0x0
 9139 0a94 0000 0000 		.long	0x0
 9140 0a98 9E14 0000 		.long	.LBB400-.Ltext0
 9141 0a9c 4616 0000 		.long	.LBE400-.Ltext0
 9142 0aa0 CC18 0000 		.long	.LBB443-.Ltext0
 9143 0aa4 0619 0000 		.long	.LBE443-.Ltext0
 9144 0aa8 0000 0000 		.long	0x0
 9145 0aac 0000 0000 		.long	0x0
 9146 0ab0 7E15 0000 		.long	.LBB403-.Ltext0
 9147 0ab4 C815 0000 		.long	.LBE403-.Ltext0
 9148 0ab8 CC18 0000 		.long	.LBB432-.Ltext0
 9149 0abc E818 0000 		.long	.LBE432-.Ltext0
 9150 0ac0 0000 0000 		.long	0x0
 9151 0ac4 0000 0000 		.long	0x0
 9152 0ac8 7E15 0000 		.long	.LBB406-.Ltext0
 9153 0acc 9615 0000 		.long	.LBE406-.Ltext0
 9154 0ad0 CC18 0000 		.long	.LBB410-.Ltext0
 9155 0ad4 E818 0000 		.long	.LBE410-.Ltext0
 9156 0ad8 A615 0000 		.long	.LBB405-.Ltext0
 9157 0adc C815 0000 		.long	.LBE405-.Ltext0
GAS LISTING C:\DOCUME~1\KEUNSO~1\LOCALS~1\Temp/ccIyMOV1.s 			page 163


 9158 0ae0 0000 0000 		.long	0x0
 9159 0ae4 0000 0000 		.long	0x0
 9160 0ae8 7E15 0000 		.long	.LBB408-.Ltext0
 9161 0aec 9615 0000 		.long	.LBE408-.Ltext0
 9162 0af0 CC18 0000 		.long	.LBB409-.Ltext0
 9163 0af4 E818 0000 		.long	.LBE409-.Ltext0
 9164 0af8 A615 0000 		.long	.LBB407-.Ltext0
 9165 0afc C815 0000 		.long	.LBE407-.Ltext0
 9166 0b00 0000 0000 		.long	0x0
 9167 0b04 0000 0000 		.long	0x0
 9168 0b08 9E14 0000 		.long	.LBB412-.Ltext0
 9169 0b0c 7E15 0000 		.long	.LBE412-.Ltext0
 9170 0b10 E818 0000 		.long	.LBB433-.Ltext0
 9171 0b14 0619 0000 		.long	.LBE433-.Ltext0
 9172 0b18 C815 0000 		.long	.LBB402-.Ltext0
 9173 0b1c 4616 0000 		.long	.LBE402-.Ltext0
 9174 0b20 0000 0000 		.long	0x0
 9175 0b24 0000 0000 		.long	0x0
 9176 0b28 9E14 0000 		.long	.LBB418-.Ltext0
 9177 0b2c C814 0000 		.long	.LBE418-.Ltext0
 9178 0b30 0416 0000 		.long	.LBB415-.Ltext0
 9179 0b34 4616 0000 		.long	.LBE415-.Ltext0
 9180 0b38 0000 0000 		.long	0x0
 9181 0b3c 0000 0000 		.long	0x0
 9182 0b40 9E14 0000 		.long	.LBB419-.Ltext0
 9183 0b44 C814 0000 		.long	.LBE419-.Ltext0
 9184 0b48 0416 0000 		.long	.LBB420-.Ltext0
 9185 0b4c 4616 0000 		.long	.LBE420-.Ltext0
 9186 0b50 0000 0000 		.long	0x0
 9187 0b54 0000 0000 		.long	0x0
 9188 0b58 C814 0000 		.long	.LBB421-.Ltext0
 9189 0b5c FE14 0000 		.long	.LBE421-.Ltext0
 9190 0b60 E615 0000 		.long	.LBB416-.Ltext0
 9191 0b64 0416 0000 		.long	.LBE416-.Ltext0
 9192 0b68 0000 0000 		.long	0x0
 9193 0b6c 0000 0000 		.long	0x0
 9194 0b70 C814 0000 		.long	.LBB422-.Ltext0
 9195 0b74 FE14 0000 		.long	.LBE422-.Ltext0
 9196 0b78 E615 0000 		.long	.LBB423-.Ltext0
 9197 0b7c 0416 0000 		.long	.LBE423-.Ltext0
 9198 0b80 0000 0000 		.long	0x0
 9199 0b84 0000 0000 		.long	0x0
 9200 0b88 0415 0000 		.long	.LBB424-.Ltext0
 9201 0b8c 3A15 0000 		.long	.LBE424-.Ltext0
 9202 0b90 C815 0000 		.long	.LBB417-.Ltext0
 9203 0b94 E615 0000 		.long	.LBE417-.Ltext0
 9204 0b98 0000 0000 		.long	0x0
 9205 0b9c 0000 0000 		.long	0x0
 9206 0ba0 0415 0000 		.long	.LBB425-.Ltext0
 9207 0ba4 3A15 0000 		.long	.LBE425-.Ltext0
 9208 0ba8 C815 0000 		.long	.LBB426-.Ltext0
 9209 0bac E615 0000 		.long	.LBE426-.Ltext0
 9210 0bb0 0000 0000 		.long	0x0
 9211 0bb4 0000 0000 		.long	0x0
 9212 0bb8 4015 0000 		.long	.LBB427-.Ltext0
 9213 0bbc 7E15 0000 		.long	.LBE427-.Ltext0
 9214 0bc0 E818 0000 		.long	.LBB430-.Ltext0
GAS LISTING C:\DOCUME~1\KEUNSO~1\LOCALS~1\Temp/ccIyMOV1.s 			page 164


 9215 0bc4 0619 0000 		.long	.LBE430-.Ltext0
 9216 0bc8 0000 0000 		.long	0x0
 9217 0bcc 0000 0000 		.long	0x0
 9218 0bd0 4015 0000 		.long	.LBB428-.Ltext0
 9219 0bd4 7E15 0000 		.long	.LBE428-.Ltext0
 9220 0bd8 E818 0000 		.long	.LBB429-.Ltext0
 9221 0bdc 0619 0000 		.long	.LBE429-.Ltext0
 9222 0be0 0000 0000 		.long	0x0
 9223 0be4 0000 0000 		.long	0x0
 9224 0be8 FC16 0000 		.long	.LBB435-.Ltext0
 9225 0bec FE16 0000 		.long	.LBE435-.Ltext0
 9226 0bf0 0217 0000 		.long	.LBB438-.Ltext0
 9227 0bf4 6217 0000 		.long	.LBE438-.Ltext0
 9228 0bf8 0000 0000 		.long	0x0
 9229 0bfc 0000 0000 		.long	0x0
 9230 0c00 FC16 0000 		.long	.LBB436-.Ltext0
 9231 0c04 FE16 0000 		.long	.LBE436-.Ltext0
 9232 0c08 0217 0000 		.long	.LBB437-.Ltext0
 9233 0c0c 6217 0000 		.long	.LBE437-.Ltext0
 9234 0c10 0000 0000 		.long	0x0
 9235 0c14 0000 0000 		.long	0x0
 9236               		.section	.debug_line
 9237 0000 8917 0000 		.long	.LELT0-.LSLT0
 9238               	.LSLT0:
 9239 0004 0200      		.word	0x2
 9240 0006 4D00 0000 		.long	.LELTP0-.LASLTP0
 9241               	.LASLTP0:
 9242 000a 01        		.byte	0x1
 9243 000b 01        		.byte	0x1
 9244 000c F6        		.byte	0xf6
 9245 000d F5        		.byte	0xf5
 9246 000e 0A        		.byte	0xa
 9247 000f 00        		.byte	0x0
 9248 0010 01        		.byte	0x1
 9249 0011 01        		.byte	0x1
 9250 0012 01        		.byte	0x1
 9251 0013 01        		.byte	0x1
 9252 0014 00        		.byte	0x0
 9253 0015 00        		.byte	0x0
 9254 0016 00        		.byte	0x0
 9255 0017 01        		.byte	0x1
 9256 0018 2E2E 5C2E 		.ascii	"..\\..\\..\\source"
 9256      2E5C 2E2E 
 9256      5C73 6F75 
 9256      7263 65
 9257 0027 00        		.byte	0
 9258 0028 2E2E 5C73 		.ascii	"..\\source"
 9258      6F75 7263 
 9258      65
 9259 0031 00        		.byte	0
 9260 0032 00        		.byte	0x0
 9261 0033 7465 7374 		.string	"test.c"
 9261      2E63 00
 9262 003a 00        		.uleb128 0x0
 9263 003b 00        		.uleb128 0x0
 9264 003c 00        		.uleb128 0x0
 9265 003d 6F73 5F63 		.string	"os_cpu.h"
GAS LISTING C:\DOCUME~1\KEUNSO~1\LOCALS~1\Temp/ccIyMOV1.s 			page 165


 9265      7075 2E68 
 9265      00
 9266 0046 02        		.uleb128 0x2
 9267 0047 00        		.uleb128 0x0
 9268 0048 00        		.uleb128 0x0
 9269 0049 7563 6F73 		.string	"ucos_ii.h"
 9269      5F69 692E 
 9269      6800 
 9270 0053 01        		.uleb128 0x1
 9271 0054 00        		.uleb128 0x0
 9272 0055 00        		.uleb128 0x0
 9273 0056 00        		.byte	0x0
 9274               	.LELTP0:
 9275 0057 00        		.byte	0x0
 9276 0058 05        		.uleb128 0x5
 9277 0059 02        		.byte	0x2
 9278 005a 0000 0000 		.long	.LM1
 9279 005e CB        		.byte	0xcb
 9280 005f 00        		.byte	0x0
 9281 0060 05        		.uleb128 0x5
 9282 0061 02        		.byte	0x2
 9283 0062 0000 0000 		.long	.LM2
 9284 0066 15        		.byte	0x15
 9285 0067 00        		.byte	0x0
 9286 0068 05        		.uleb128 0x5
 9287 0069 02        		.byte	0x2
 9288 006a 0000 0000 		.long	.LM3
 9289 006e 15        		.byte	0x15
 9290 006f 00        		.byte	0x0
 9291 0070 05        		.uleb128 0x5
 9292 0071 02        		.byte	0x2
 9293 0072 0000 0000 		.long	.LM4
 9294 0076 16        		.byte	0x16
 9295 0077 00        		.byte	0x0
 9296 0078 05        		.uleb128 0x5
 9297 0079 02        		.byte	0x2
 9298 007a 0000 0000 		.long	.LM5
 9299 007e 16        		.byte	0x16
 9300 007f 00        		.byte	0x0
 9301 0080 05        		.uleb128 0x5
 9302 0081 02        		.byte	0x2
 9303 0082 0000 0000 		.long	.LM6
 9304 0086 15        		.byte	0x15
 9305 0087 00        		.byte	0x0
 9306 0088 05        		.uleb128 0x5
 9307 0089 02        		.byte	0x2
 9308 008a 0000 0000 		.long	.LM7
 9309 008e 15        		.byte	0x15
 9310 008f 00        		.byte	0x0
 9311 0090 05        		.uleb128 0x5
 9312 0091 02        		.byte	0x2
 9313 0092 0000 0000 		.long	.LM8
 9314 0096 16        		.byte	0x16
 9315 0097 00        		.byte	0x0
 9316 0098 05        		.uleb128 0x5
 9317 0099 02        		.byte	0x2
 9318 009a 0000 0000 		.long	.LM9
GAS LISTING C:\DOCUME~1\KEUNSO~1\LOCALS~1\Temp/ccIyMOV1.s 			page 166


 9319 009e 15        		.byte	0x15
 9320 009f 00        		.byte	0x0
 9321 00a0 05        		.uleb128 0x5
 9322 00a1 02        		.byte	0x2
 9323 00a2 0000 0000 		.long	.LM10
 9324 00a6 15        		.byte	0x15
 9325 00a7 00        		.byte	0x0
 9326 00a8 05        		.uleb128 0x5
 9327 00a9 02        		.byte	0x2
 9328 00aa 0000 0000 		.long	.LM11
 9329 00ae 15        		.byte	0x15
 9330 00af 00        		.byte	0x0
 9331 00b0 05        		.uleb128 0x5
 9332 00b1 02        		.byte	0x2
 9333 00b2 0000 0000 		.long	.LM12
 9334 00b6 35        		.byte	0x35
 9335 00b7 00        		.byte	0x0
 9336 00b8 05        		.uleb128 0x5
 9337 00b9 02        		.byte	0x2
 9338 00ba 0000 0000 		.long	.LM13
 9339 00be 18        		.byte	0x18
 9340 00bf 00        		.byte	0x0
 9341 00c0 05        		.uleb128 0x5
 9342 00c1 02        		.byte	0x2
 9343 00c2 0000 0000 		.long	.LM14
 9344 00c6 15        		.byte	0x15
 9345 00c7 00        		.byte	0x0
 9346 00c8 05        		.uleb128 0x5
 9347 00c9 02        		.byte	0x2
 9348 00ca 0000 0000 		.long	.LM15
 9349 00ce 15        		.byte	0x15
 9350 00cf 00        		.byte	0x0
 9351 00d0 05        		.uleb128 0x5
 9352 00d1 02        		.byte	0x2
 9353 00d2 0000 0000 		.long	.LM16
 9354 00d6 15        		.byte	0x15
 9355 00d7 00        		.byte	0x0
 9356 00d8 05        		.uleb128 0x5
 9357 00d9 02        		.byte	0x2
 9358 00da 0000 0000 		.long	.LM17
 9359 00de 12        		.byte	0x12
 9360 00df 00        		.byte	0x0
 9361 00e0 05        		.uleb128 0x5
 9362 00e1 02        		.byte	0x2
 9363 00e2 0000 0000 		.long	.LM18
 9364 00e6 18        		.byte	0x18
 9365 00e7 00        		.byte	0x0
 9366 00e8 05        		.uleb128 0x5
 9367 00e9 02        		.byte	0x2
 9368 00ea 0000 0000 		.long	.LM19
 9369 00ee 15        		.byte	0x15
 9370 00ef 00        		.byte	0x0
 9371 00f0 05        		.uleb128 0x5
 9372 00f1 02        		.byte	0x2
 9373 00f2 0000 0000 		.long	.LM20
 9374 00f6 15        		.byte	0x15
 9375 00f7 00        		.byte	0x0
GAS LISTING C:\DOCUME~1\KEUNSO~1\LOCALS~1\Temp/ccIyMOV1.s 			page 167


 9376 00f8 05        		.uleb128 0x5
 9377 00f9 02        		.byte	0x2
 9378 00fa 0000 0000 		.long	.LM21
 9379 00fe 13        		.byte	0x13
 9380 00ff 00        		.byte	0x0
 9381 0100 05        		.uleb128 0x5
 9382 0101 02        		.byte	0x2
 9383 0102 0000 0000 		.long	.LM22
 9384 0106 15        		.byte	0x15
 9385 0107 00        		.byte	0x0
 9386 0108 05        		.uleb128 0x5
 9387 0109 02        		.byte	0x2
 9388 010a 0000 0000 		.long	.LM23
 9389 010e 12        		.byte	0x12
 9390 010f 00        		.byte	0x0
 9391 0110 05        		.uleb128 0x5
 9392 0111 02        		.byte	0x2
 9393 0112 0000 0000 		.long	.LM24
 9394 0116 1B        		.byte	0x1b
 9395 0117 00        		.byte	0x0
 9396 0118 05        		.uleb128 0x5
 9397 0119 02        		.byte	0x2
 9398 011a 0000 0000 		.long	.LM25
 9399 011e 18        		.byte	0x18
 9400 011f 00        		.byte	0x0
 9401 0120 05        		.uleb128 0x5
 9402 0121 02        		.byte	0x2
 9403 0122 0000 0000 		.long	.LM26
 9404 0126 15        		.byte	0x15
 9405 0127 00        		.byte	0x0
 9406 0128 05        		.uleb128 0x5
 9407 0129 02        		.byte	0x2
 9408 012a 0000 0000 		.long	.LM27
 9409 012e 16        		.byte	0x16
 9410 012f 00        		.byte	0x0
 9411 0130 05        		.uleb128 0x5
 9412 0131 02        		.byte	0x2
 9413 0132 0000 0000 		.long	.LM28
 9414 0136 03        		.byte	0x3
 9415 0137 4C        		.sleb128 -52
 9416 0138 01        		.byte	0x1
 9417 0139 00        		.byte	0x0
 9418 013a 05        		.uleb128 0x5
 9419 013b 02        		.byte	0x2
 9420 013c 0000 0000 		.long	.LM29
 9421 0140 17        		.byte	0x17
 9422 0141 00        		.byte	0x0
 9423 0142 05        		.uleb128 0x5
 9424 0143 02        		.byte	0x2
 9425 0144 0000 0000 		.long	.LM30
 9426 0148 17        		.byte	0x17
 9427 0149 00        		.byte	0x0
 9428 014a 05        		.uleb128 0x5
 9429 014b 02        		.byte	0x2
 9430 014c 0000 0000 		.long	.LM31
 9431 0150 15        		.byte	0x15
 9432 0151 00        		.byte	0x0
GAS LISTING C:\DOCUME~1\KEUNSO~1\LOCALS~1\Temp/ccIyMOV1.s 			page 168


 9433 0152 05        		.uleb128 0x5
 9434 0153 02        		.byte	0x2
 9435 0154 0000 0000 		.long	.LM32
 9436 0158 19        		.byte	0x19
 9437 0159 00        		.byte	0x0
 9438 015a 05        		.uleb128 0x5
 9439 015b 02        		.byte	0x2
 9440 015c 0000 0000 		.long	.LM33
 9441 0160 15        		.byte	0x15
 9442 0161 00        		.byte	0x0
 9443 0162 05        		.uleb128 0x5
 9444 0163 02        		.byte	0x2
 9445 0164 0000 0000 		.long	.LM34
 9446 0168 15        		.byte	0x15
 9447 0169 00        		.byte	0x0
 9448 016a 05        		.uleb128 0x5
 9449 016b 02        		.byte	0x2
 9450 016c 0000 0000 		.long	.LM35
 9451 0170 16        		.byte	0x16
 9452 0171 00        		.byte	0x0
 9453 0172 05        		.uleb128 0x5
 9454 0173 02        		.byte	0x2
 9455 0174 0000 0000 		.long	.LM36
 9456 0178 15        		.byte	0x15
 9457 0179 00        		.byte	0x0
 9458 017a 05        		.uleb128 0x5
 9459 017b 02        		.byte	0x2
 9460 017c 0000 0000 		.long	.LM37
 9461 0180 0B        		.byte	0xb
 9462 0181 00        		.byte	0x0
 9463 0182 05        		.uleb128 0x5
 9464 0183 02        		.byte	0x2
 9465 0184 0000 0000 		.long	.LM38
 9466 0188 15        		.byte	0x15
 9467 0189 00        		.byte	0x0
 9468 018a 05        		.uleb128 0x5
 9469 018b 02        		.byte	0x2
 9470 018c 0000 0000 		.long	.LM39
 9471 0190 15        		.byte	0x15
 9472 0191 00        		.byte	0x0
 9473 0192 05        		.uleb128 0x5
 9474 0193 02        		.byte	0x2
 9475 0194 0000 0000 		.long	.LM40
 9476 0198 1A        		.byte	0x1a
 9477 0199 00        		.byte	0x0
 9478 019a 05        		.uleb128 0x5
 9479 019b 02        		.byte	0x2
 9480 019c 0000 0000 		.long	.LM41
 9481 01a0 15        		.byte	0x15
 9482 01a1 00        		.byte	0x0
 9483 01a2 05        		.uleb128 0x5
 9484 01a3 02        		.byte	0x2
 9485 01a4 0000 0000 		.long	.LM42
 9486 01a8 03        		.byte	0x3
 9487 01a9 73        		.sleb128 -13
 9488 01aa 01        		.byte	0x1
 9489 01ab 00        		.byte	0x0
GAS LISTING C:\DOCUME~1\KEUNSO~1\LOCALS~1\Temp/ccIyMOV1.s 			page 169


 9490 01ac 05        		.uleb128 0x5
 9491 01ad 02        		.byte	0x2
 9492 01ae 0000 0000 		.long	.LM43
 9493 01b2 03        		.byte	0x3
 9494 01b3 5F        		.sleb128 -33
 9495 01b4 01        		.byte	0x1
 9496 01b5 00        		.byte	0x0
 9497 01b6 05        		.uleb128 0x5
 9498 01b7 02        		.byte	0x2
 9499 01b8 0000 0000 		.long	.LM44
 9500 01bc 15        		.byte	0x15
 9501 01bd 00        		.byte	0x0
 9502 01be 05        		.uleb128 0x5
 9503 01bf 02        		.byte	0x2
 9504 01c0 0000 0000 		.long	.LM45
 9505 01c4 15        		.byte	0x15
 9506 01c5 00        		.byte	0x0
 9507 01c6 05        		.uleb128 0x5
 9508 01c7 02        		.byte	0x2
 9509 01c8 0000 0000 		.long	.LM46
 9510 01cc 19        		.byte	0x19
 9511 01cd 00        		.byte	0x0
 9512 01ce 05        		.uleb128 0x5
 9513 01cf 02        		.byte	0x2
 9514 01d0 0000 0000 		.long	.LM47
 9515 01d4 16        		.byte	0x16
 9516 01d5 00        		.byte	0x0
 9517 01d6 05        		.uleb128 0x5
 9518 01d7 02        		.byte	0x2
 9519 01d8 0000 0000 		.long	.LM48
 9520 01dc 0E        		.byte	0xe
 9521 01dd 00        		.byte	0x0
 9522 01de 05        		.uleb128 0x5
 9523 01df 02        		.byte	0x2
 9524 01e0 0000 0000 		.long	.LM49
 9525 01e4 15        		.byte	0x15
 9526 01e5 00        		.byte	0x0
 9527 01e6 05        		.uleb128 0x5
 9528 01e7 02        		.byte	0x2
 9529 01e8 0000 0000 		.long	.LM50
 9530 01ec 15        		.byte	0x15
 9531 01ed 00        		.byte	0x0
 9532 01ee 05        		.uleb128 0x5
 9533 01ef 02        		.byte	0x2
 9534 01f0 0000 0000 		.long	.LM51
 9535 01f4 03        		.byte	0x3
 9536 01f5 A87F      		.sleb128 -88
 9537 01f7 01        		.byte	0x1
 9538 01f8 00        		.byte	0x0
 9539 01f9 05        		.uleb128 0x5
 9540 01fa 02        		.byte	0x2
 9541 01fb 0000 0000 		.long	.LM52
 9542 01ff 74        		.byte	0x74
 9543 0200 00        		.byte	0x0
 9544 0201 05        		.uleb128 0x5
 9545 0202 02        		.byte	0x2
 9546 0203 0000 0000 		.long	.LM53
GAS LISTING C:\DOCUME~1\KEUNSO~1\LOCALS~1\Temp/ccIyMOV1.s 			page 170


 9547 0207 15        		.byte	0x15
 9548 0208 00        		.byte	0x0
 9549 0209 05        		.uleb128 0x5
 9550 020a 02        		.byte	0x2
 9551 020b 0000 0000 		.long	.LM54
 9552 020f 16        		.byte	0x16
 9553 0210 00        		.byte	0x0
 9554 0211 05        		.uleb128 0x5
 9555 0212 02        		.byte	0x2
 9556 0213 0000 0000 		.long	.LM55
 9557 0217 16        		.byte	0x16
 9558 0218 00        		.byte	0x0
 9559 0219 05        		.uleb128 0x5
 9560 021a 02        		.byte	0x2
 9561 021b 0000 0000 		.long	.LM56
 9562 021f 15        		.byte	0x15
 9563 0220 00        		.byte	0x0
 9564 0221 05        		.uleb128 0x5
 9565 0222 02        		.byte	0x2
 9566 0223 0000 0000 		.long	.LM57
 9567 0227 15        		.byte	0x15
 9568 0228 00        		.byte	0x0
 9569 0229 05        		.uleb128 0x5
 9570 022a 02        		.byte	0x2
 9571 022b 0000 0000 		.long	.LM58
 9572 022f 16        		.byte	0x16
 9573 0230 00        		.byte	0x0
 9574 0231 05        		.uleb128 0x5
 9575 0232 02        		.byte	0x2
 9576 0233 0000 0000 		.long	.LM59
 9577 0237 15        		.byte	0x15
 9578 0238 00        		.byte	0x0
 9579 0239 05        		.uleb128 0x5
 9580 023a 02        		.byte	0x2
 9581 023b 0000 0000 		.long	.LM60
 9582 023f 15        		.byte	0x15
 9583 0240 00        		.byte	0x0
 9584 0241 05        		.uleb128 0x5
 9585 0242 02        		.byte	0x2
 9586 0243 0000 0000 		.long	.LM61
 9587 0247 03        		.byte	0x3
 9588 0248 977F      		.sleb128 -105
 9589 024a 01        		.byte	0x1
 9590 024b 00        		.byte	0x0
 9591 024c 05        		.uleb128 0x5
 9592 024d 02        		.byte	0x2
 9593 024e 0000 0000 		.long	.LM62
 9594 0252 15        		.byte	0x15
 9595 0253 00        		.byte	0x0
 9596 0254 05        		.uleb128 0x5
 9597 0255 02        		.byte	0x2
 9598 0256 0000 0000 		.long	.LM63
 9599 025a 15        		.byte	0x15
 9600 025b 00        		.byte	0x0
 9601 025c 05        		.uleb128 0x5
 9602 025d 02        		.byte	0x2
 9603 025e 0000 0000 		.long	.LM64
GAS LISTING C:\DOCUME~1\KEUNSO~1\LOCALS~1\Temp/ccIyMOV1.s 			page 171


 9604 0262 15        		.byte	0x15
 9605 0263 00        		.byte	0x0
 9606 0264 05        		.uleb128 0x5
 9607 0265 02        		.byte	0x2
 9608 0266 0000 0000 		.long	.LM65
 9609 026a 16        		.byte	0x16
 9610 026b 00        		.byte	0x0
 9611 026c 05        		.uleb128 0x5
 9612 026d 02        		.byte	0x2
 9613 026e 0000 0000 		.long	.LM66
 9614 0272 16        		.byte	0x16
 9615 0273 00        		.byte	0x0
 9616 0274 05        		.uleb128 0x5
 9617 0275 02        		.byte	0x2
 9618 0276 0000 0000 		.long	.LM67
 9619 027a 15        		.byte	0x15
 9620 027b 00        		.byte	0x0
 9621 027c 05        		.uleb128 0x5
 9622 027d 02        		.byte	0x2
 9623 027e 0000 0000 		.long	.LM68
 9624 0282 16        		.byte	0x16
 9625 0283 00        		.byte	0x0
 9626 0284 05        		.uleb128 0x5
 9627 0285 02        		.byte	0x2
 9628 0286 0000 0000 		.long	.LM69
 9629 028a 8D        		.byte	0x8d
 9630 028b 00        		.byte	0x0
 9631 028c 05        		.uleb128 0x5
 9632 028d 02        		.byte	0x2
 9633 028e 0000 0000 		.long	.LM70
 9634 0292 15        		.byte	0x15
 9635 0293 00        		.byte	0x0
 9636 0294 05        		.uleb128 0x5
 9637 0295 02        		.byte	0x2
 9638 0296 0000 0000 		.long	.LM71
 9639 029a 03        		.byte	0x3
 9640 029b 6E        		.sleb128 -18
 9641 029c 01        		.byte	0x1
 9642 029d 00        		.byte	0x0
 9643 029e 05        		.uleb128 0x5
 9644 029f 02        		.byte	0x2
 9645 02a0 0000 0000 		.long	.LM72
 9646 02a4 1D        		.byte	0x1d
 9647 02a5 00        		.byte	0x0
 9648 02a6 05        		.uleb128 0x5
 9649 02a7 02        		.byte	0x2
 9650 02a8 0000 0000 		.long	.LM73
 9651 02ac 13        		.byte	0x13
 9652 02ad 00        		.byte	0x0
 9653 02ae 05        		.uleb128 0x5
 9654 02af 02        		.byte	0x2
 9655 02b0 0000 0000 		.long	.LM74
 9656 02b4 15        		.byte	0x15
 9657 02b5 00        		.byte	0x0
 9658 02b6 05        		.uleb128 0x5
 9659 02b7 02        		.byte	0x2
 9660 02b8 0000 0000 		.long	.LM75
GAS LISTING C:\DOCUME~1\KEUNSO~1\LOCALS~1\Temp/ccIyMOV1.s 			page 172


 9661 02bc 15        		.byte	0x15
 9662 02bd 00        		.byte	0x0
 9663 02be 05        		.uleb128 0x5
 9664 02bf 02        		.byte	0x2
 9665 02c0 0000 0000 		.long	.LM76
 9666 02c4 16        		.byte	0x16
 9667 02c5 00        		.byte	0x0
 9668 02c6 05        		.uleb128 0x5
 9669 02c7 02        		.byte	0x2
 9670 02c8 0000 0000 		.long	.LM77
 9671 02cc 1A        		.byte	0x1a
 9672 02cd 00        		.byte	0x0
 9673 02ce 05        		.uleb128 0x5
 9674 02cf 02        		.byte	0x2
 9675 02d0 0000 0000 		.long	.LM78
 9676 02d4 15        		.byte	0x15
 9677 02d5 00        		.byte	0x0
 9678 02d6 05        		.uleb128 0x5
 9679 02d7 02        		.byte	0x2
 9680 02d8 0000 0000 		.long	.LM79
 9681 02dc 03        		.byte	0x3
 9682 02dd 6C        		.sleb128 -20
 9683 02de 01        		.byte	0x1
 9684 02df 00        		.byte	0x0
 9685 02e0 05        		.uleb128 0x5
 9686 02e1 02        		.byte	0x2
 9687 02e2 0000 0000 		.long	.LM80
 9688 02e6 17        		.byte	0x17
 9689 02e7 00        		.byte	0x0
 9690 02e8 05        		.uleb128 0x5
 9691 02e9 02        		.byte	0x2
 9692 02ea 0000 0000 		.long	.LM81
 9693 02ee 15        		.byte	0x15
 9694 02ef 00        		.byte	0x0
 9695 02f0 05        		.uleb128 0x5
 9696 02f1 02        		.byte	0x2
 9697 02f2 0000 0000 		.long	.LM82
 9698 02f6 15        		.byte	0x15
 9699 02f7 00        		.byte	0x0
 9700 02f8 05        		.uleb128 0x5
 9701 02f9 02        		.byte	0x2
 9702 02fa 0000 0000 		.long	.LM83
 9703 02fe 15        		.byte	0x15
 9704 02ff 00        		.byte	0x0
 9705 0300 05        		.uleb128 0x5
 9706 0301 02        		.byte	0x2
 9707 0302 0000 0000 		.long	.LM84
 9708 0306 15        		.byte	0x15
 9709 0307 00        		.byte	0x0
 9710 0308 05        		.uleb128 0x5
 9711 0309 02        		.byte	0x2
 9712 030a 0000 0000 		.long	.LM85
 9713 030e 1A        		.byte	0x1a
 9714 030f 00        		.byte	0x0
 9715 0310 05        		.uleb128 0x5
 9716 0311 02        		.byte	0x2
 9717 0312 0000 0000 		.long	.LM86
GAS LISTING C:\DOCUME~1\KEUNSO~1\LOCALS~1\Temp/ccIyMOV1.s 			page 173


 9718 0316 1A        		.byte	0x1a
 9719 0317 00        		.byte	0x0
 9720 0318 05        		.uleb128 0x5
 9721 0319 02        		.byte	0x2
 9722 031a 0000 0000 		.long	.LM87
 9723 031e 17        		.byte	0x17
 9724 031f 00        		.byte	0x0
 9725 0320 05        		.uleb128 0x5
 9726 0321 02        		.byte	0x2
 9727 0322 0000 0000 		.long	.LM88
 9728 0326 03        		.byte	0x3
 9729 0327 6B        		.sleb128 -21
 9730 0328 01        		.byte	0x1
 9731 0329 00        		.byte	0x0
 9732 032a 05        		.uleb128 0x5
 9733 032b 02        		.byte	0x2
 9734 032c 0000 0000 		.long	.LM89
 9735 0330 48        		.byte	0x48
 9736 0331 00        		.byte	0x0
 9737 0332 05        		.uleb128 0x5
 9738 0333 02        		.byte	0x2
 9739 0334 0000 0000 		.long	.LM90
 9740 0338 1A        		.byte	0x1a
 9741 0339 00        		.byte	0x0
 9742 033a 05        		.uleb128 0x5
 9743 033b 02        		.byte	0x2
 9744 033c 0000 0000 		.long	.LM91
 9745 0340 15        		.byte	0x15
 9746 0341 00        		.byte	0x0
 9747 0342 05        		.uleb128 0x5
 9748 0343 02        		.byte	0x2
 9749 0344 0000 0000 		.long	.LM92
 9750 0348 15        		.byte	0x15
 9751 0349 00        		.byte	0x0
 9752 034a 05        		.uleb128 0x5
 9753 034b 02        		.byte	0x2
 9754 034c 0000 0000 		.long	.LM93
 9755 0350 15        		.byte	0x15
 9756 0351 00        		.byte	0x0
 9757 0352 05        		.uleb128 0x5
 9758 0353 02        		.byte	0x2
 9759 0354 0000 0000 		.long	.LM94
 9760 0358 17        		.byte	0x17
 9761 0359 00        		.byte	0x0
 9762 035a 05        		.uleb128 0x5
 9763 035b 02        		.byte	0x2
 9764 035c 0000 0000 		.long	.LM95
 9765 0360 15        		.byte	0x15
 9766 0361 00        		.byte	0x0
 9767 0362 05        		.uleb128 0x5
 9768 0363 02        		.byte	0x2
 9769 0364 0000 0000 		.long	.LM96
 9770 0368 03        		.byte	0x3
 9771 0369 BE7F      		.sleb128 -66
 9772 036b 01        		.byte	0x1
 9773 036c 00        		.byte	0x0
 9774 036d 05        		.uleb128 0x5
GAS LISTING C:\DOCUME~1\KEUNSO~1\LOCALS~1\Temp/ccIyMOV1.s 			page 174


 9775 036e 02        		.byte	0x2
 9776 036f 0000 0000 		.long	.LM97
 9777 0373 17        		.byte	0x17
 9778 0374 00        		.byte	0x0
 9779 0375 05        		.uleb128 0x5
 9780 0376 02        		.byte	0x2
 9781 0377 0000 0000 		.long	.LM98
 9782 037b 15        		.byte	0x15
 9783 037c 00        		.byte	0x0
 9784 037d 05        		.uleb128 0x5
 9785 037e 02        		.byte	0x2
 9786 037f 0000 0000 		.long	.LM99
 9787 0383 19        		.byte	0x19
 9788 0384 00        		.byte	0x0
 9789 0385 05        		.uleb128 0x5
 9790 0386 02        		.byte	0x2
 9791 0387 0000 0000 		.long	.LM100
 9792 038b 15        		.byte	0x15
 9793 038c 00        		.byte	0x0
 9794 038d 05        		.uleb128 0x5
 9795 038e 02        		.byte	0x2
 9796 038f 0000 0000 		.long	.LM101
 9797 0393 15        		.byte	0x15
 9798 0394 00        		.byte	0x0
 9799 0395 05        		.uleb128 0x5
 9800 0396 02        		.byte	0x2
 9801 0397 0000 0000 		.long	.LM102
 9802 039b 16        		.byte	0x16
 9803 039c 00        		.byte	0x0
 9804 039d 05        		.uleb128 0x5
 9805 039e 02        		.byte	0x2
 9806 039f 0000 0000 		.long	.LM103
 9807 03a3 4B        		.byte	0x4b
 9808 03a4 00        		.byte	0x0
 9809 03a5 05        		.uleb128 0x5
 9810 03a6 02        		.byte	0x2
 9811 03a7 0000 0000 		.long	.LM104
 9812 03ab 03        		.byte	0x3
 9813 03ac BC7F      		.sleb128 -68
 9814 03ae 01        		.byte	0x1
 9815 03af 00        		.byte	0x0
 9816 03b0 05        		.uleb128 0x5
 9817 03b1 02        		.byte	0x2
 9818 03b2 0000 0000 		.long	.LM105
 9819 03b6 17        		.byte	0x17
 9820 03b7 00        		.byte	0x0
 9821 03b8 05        		.uleb128 0x5
 9822 03b9 02        		.byte	0x2
 9823 03ba 0000 0000 		.long	.LM106
 9824 03be 15        		.byte	0x15
 9825 03bf 00        		.byte	0x0
 9826 03c0 05        		.uleb128 0x5
 9827 03c1 02        		.byte	0x2
 9828 03c2 0000 0000 		.long	.LM107
 9829 03c6 19        		.byte	0x19
 9830 03c7 00        		.byte	0x0
 9831 03c8 05        		.uleb128 0x5
GAS LISTING C:\DOCUME~1\KEUNSO~1\LOCALS~1\Temp/ccIyMOV1.s 			page 175


 9832 03c9 02        		.byte	0x2
 9833 03ca 0000 0000 		.long	.LM108
 9834 03ce 15        		.byte	0x15
 9835 03cf 00        		.byte	0x0
 9836 03d0 05        		.uleb128 0x5
 9837 03d1 02        		.byte	0x2
 9838 03d2 0000 0000 		.long	.LM109
 9839 03d6 15        		.byte	0x15
 9840 03d7 00        		.byte	0x0
 9841 03d8 05        		.uleb128 0x5
 9842 03d9 02        		.byte	0x2
 9843 03da 0000 0000 		.long	.LM110
 9844 03de 16        		.byte	0x16
 9845 03df 00        		.byte	0x0
 9846 03e0 05        		.uleb128 0x5
 9847 03e1 02        		.byte	0x2
 9848 03e2 0000 0000 		.long	.LM111
 9849 03e6 4C        		.byte	0x4c
 9850 03e7 00        		.byte	0x0
 9851 03e8 05        		.uleb128 0x5
 9852 03e9 02        		.byte	0x2
 9853 03ea 0000 0000 		.long	.LM112
 9854 03ee 03        		.byte	0x3
 9855 03ef 40        		.sleb128 -64
 9856 03f0 01        		.byte	0x1
 9857 03f1 00        		.byte	0x0
 9858 03f2 05        		.uleb128 0x5
 9859 03f3 02        		.byte	0x2
 9860 03f4 0000 0000 		.long	.LM113
 9861 03f8 15        		.byte	0x15
 9862 03f9 00        		.byte	0x0
 9863 03fa 05        		.uleb128 0x5
 9864 03fb 02        		.byte	0x2
 9865 03fc 0000 0000 		.long	.LM114
 9866 0400 15        		.byte	0x15
 9867 0401 00        		.byte	0x0
 9868 0402 05        		.uleb128 0x5
 9869 0403 02        		.byte	0x2
 9870 0404 0000 0000 		.long	.LM115
 9871 0408 0E        		.byte	0xe
 9872 0409 00        		.byte	0x0
 9873 040a 05        		.uleb128 0x5
 9874 040b 02        		.byte	0x2
 9875 040c 0000 0000 		.long	.LM116
 9876 0410 16        		.byte	0x16
 9877 0411 00        		.byte	0x0
 9878 0412 05        		.uleb128 0x5
 9879 0413 02        		.byte	0x2
 9880 0414 0000 0000 		.long	.LM117
 9881 0418 15        		.byte	0x15
 9882 0419 00        		.byte	0x0
 9883 041a 05        		.uleb128 0x5
 9884 041b 02        		.byte	0x2
 9885 041c 0000 0000 		.long	.LM118
 9886 0420 15        		.byte	0x15
 9887 0421 00        		.byte	0x0
 9888 0422 05        		.uleb128 0x5
GAS LISTING C:\DOCUME~1\KEUNSO~1\LOCALS~1\Temp/ccIyMOV1.s 			page 176


 9889 0423 02        		.byte	0x2
 9890 0424 0000 0000 		.long	.LM119
 9891 0428 15        		.byte	0x15
 9892 0429 00        		.byte	0x0
 9893 042a 05        		.uleb128 0x5
 9894 042b 02        		.byte	0x2
 9895 042c 0000 0000 		.long	.LM120
 9896 0430 15        		.byte	0x15
 9897 0431 00        		.byte	0x0
 9898 0432 05        		.uleb128 0x5
 9899 0433 02        		.byte	0x2
 9900 0434 0000 0000 		.long	.LM121
 9901 0438 4C        		.byte	0x4c
 9902 0439 00        		.byte	0x0
 9903 043a 05        		.uleb128 0x5
 9904 043b 02        		.byte	0x2
 9905 043c 0000 0000 		.long	.LM122
 9906 0440 03        		.byte	0x3
 9907 0441 41        		.sleb128 -63
 9908 0442 01        		.byte	0x1
 9909 0443 00        		.byte	0x0
 9910 0444 05        		.uleb128 0x5
 9911 0445 02        		.byte	0x2
 9912 0446 0000 0000 		.long	.LM123
 9913 044a 17        		.byte	0x17
 9914 044b 00        		.byte	0x0
 9915 044c 05        		.uleb128 0x5
 9916 044d 02        		.byte	0x2
 9917 044e 0000 0000 		.long	.LM124
 9918 0452 15        		.byte	0x15
 9919 0453 00        		.byte	0x0
 9920 0454 05        		.uleb128 0x5
 9921 0455 02        		.byte	0x2
 9922 0456 0000 0000 		.long	.LM125
 9923 045a 19        		.byte	0x19
 9924 045b 00        		.byte	0x0
 9925 045c 05        		.uleb128 0x5
 9926 045d 02        		.byte	0x2
 9927 045e 0000 0000 		.long	.LM126
 9928 0462 15        		.byte	0x15
 9929 0463 00        		.byte	0x0
 9930 0464 05        		.uleb128 0x5
 9931 0465 02        		.byte	0x2
 9932 0466 0000 0000 		.long	.LM127
 9933 046a 15        		.byte	0x15
 9934 046b 00        		.byte	0x0
 9935 046c 05        		.uleb128 0x5
 9936 046d 02        		.byte	0x2
 9937 046e 0000 0000 		.long	.LM128
 9938 0472 16        		.byte	0x16
 9939 0473 00        		.byte	0x0
 9940 0474 05        		.uleb128 0x5
 9941 0475 02        		.byte	0x2
 9942 0476 0000 0000 		.long	.LM129
 9943 047a 03        		.byte	0x3
 9944 047b 74        		.sleb128 -12
 9945 047c 01        		.byte	0x1
GAS LISTING C:\DOCUME~1\KEUNSO~1\LOCALS~1\Temp/ccIyMOV1.s 			page 177


 9946 047d 00        		.byte	0x0
 9947 047e 05        		.uleb128 0x5
 9948 047f 02        		.byte	0x2
 9949 0480 0000 0000 		.long	.LM130
 9950 0484 18        		.byte	0x18
 9951 0485 00        		.byte	0x0
 9952 0486 05        		.uleb128 0x5
 9953 0487 02        		.byte	0x2
 9954 0488 0000 0000 		.long	.LM131
 9955 048c 15        		.byte	0x15
 9956 048d 00        		.byte	0x0
 9957 048e 05        		.uleb128 0x5
 9958 048f 02        		.byte	0x2
 9959 0490 0000 0000 		.long	.LM132
 9960 0494 15        		.byte	0x15
 9961 0495 00        		.byte	0x0
 9962 0496 05        		.uleb128 0x5
 9963 0497 02        		.byte	0x2
 9964 0498 0000 0000 		.long	.LM133
 9965 049c 0E        		.byte	0xe
 9966 049d 00        		.byte	0x0
 9967 049e 05        		.uleb128 0x5
 9968 049f 02        		.byte	0x2
 9969 04a0 0000 0000 		.long	.LM134
 9970 04a4 5C        		.byte	0x5c
 9971 04a5 00        		.byte	0x0
 9972 04a6 05        		.uleb128 0x5
 9973 04a7 02        		.byte	0x2
 9974 04a8 0000 0000 		.long	.LM135
 9975 04ac 03        		.byte	0x3
 9976 04ad B77F      		.sleb128 -73
 9977 04af 01        		.byte	0x1
 9978 04b0 00        		.byte	0x0
 9979 04b1 05        		.uleb128 0x5
 9980 04b2 02        		.byte	0x2
 9981 04b3 0000 0000 		.long	.LM136
 9982 04b7 17        		.byte	0x17
 9983 04b8 00        		.byte	0x0
 9984 04b9 05        		.uleb128 0x5
 9985 04ba 02        		.byte	0x2
 9986 04bb 0000 0000 		.long	.LM137
 9987 04bf 15        		.byte	0x15
 9988 04c0 00        		.byte	0x0
 9989 04c1 05        		.uleb128 0x5
 9990 04c2 02        		.byte	0x2
 9991 04c3 0000 0000 		.long	.LM138
 9992 04c7 19        		.byte	0x19
 9993 04c8 00        		.byte	0x0
 9994 04c9 05        		.uleb128 0x5
 9995 04ca 02        		.byte	0x2
 9996 04cb 0000 0000 		.long	.LM139
 9997 04cf 15        		.byte	0x15
 9998 04d0 00        		.byte	0x0
 9999 04d1 05        		.uleb128 0x5
 10000 04d2 02        		.byte	0x2
 10001 04d3 0000 0000 		.long	.LM140
 10002 04d7 15        		.byte	0x15
GAS LISTING C:\DOCUME~1\KEUNSO~1\LOCALS~1\Temp/ccIyMOV1.s 			page 178


 10003 04d8 00        		.byte	0x0
 10004 04d9 05        		.uleb128 0x5
 10005 04da 02        		.byte	0x2
 10006 04db 0000 0000 		.long	.LM141
 10007 04df 16        		.byte	0x16
 10008 04e0 00        		.byte	0x0
 10009 04e1 05        		.uleb128 0x5
 10010 04e2 02        		.byte	0x2
 10011 04e3 0000 0000 		.long	.LM142
 10012 04e7 03        		.byte	0x3
 10013 04e8 73        		.sleb128 -13
 10014 04e9 01        		.byte	0x1
 10015 04ea 00        		.byte	0x0
 10016 04eb 05        		.uleb128 0x5
 10017 04ec 02        		.byte	0x2
 10018 04ed 0000 0000 		.long	.LM143
 10019 04f1 17        		.byte	0x17
 10020 04f2 00        		.byte	0x0
 10021 04f3 05        		.uleb128 0x5
 10022 04f4 02        		.byte	0x2
 10023 04f5 0000 0000 		.long	.LM144
 10024 04f9 15        		.byte	0x15
 10025 04fa 00        		.byte	0x0
 10026 04fb 05        		.uleb128 0x5
 10027 04fc 02        		.byte	0x2
 10028 04fd 0000 0000 		.long	.LM145
 10029 0501 19        		.byte	0x19
 10030 0502 00        		.byte	0x0
 10031 0503 05        		.uleb128 0x5
 10032 0504 02        		.byte	0x2
 10033 0505 0000 0000 		.long	.LM146
 10034 0509 15        		.byte	0x15
 10035 050a 00        		.byte	0x0
 10036 050b 05        		.uleb128 0x5
 10037 050c 02        		.byte	0x2
 10038 050d 0000 0000 		.long	.LM147
 10039 0511 15        		.byte	0x15
 10040 0512 00        		.byte	0x0
 10041 0513 05        		.uleb128 0x5
 10042 0514 02        		.byte	0x2
 10043 0515 0000 0000 		.long	.LM148
 10044 0519 16        		.byte	0x16
 10045 051a 00        		.byte	0x0
 10046 051b 05        		.uleb128 0x5
 10047 051c 02        		.byte	0x2
 10048 051d 0000 0000 		.long	.LM149
 10049 0521 53        		.byte	0x53
 10050 0522 00        		.byte	0x0
 10051 0523 05        		.uleb128 0x5
 10052 0524 02        		.byte	0x2
 10053 0525 0000 0000 		.long	.LM150
 10054 0529 03        		.byte	0x3
 10055 052a B47F      		.sleb128 -76
 10056 052c 01        		.byte	0x1
 10057 052d 00        		.byte	0x0
 10058 052e 05        		.uleb128 0x5
 10059 052f 02        		.byte	0x2
GAS LISTING C:\DOCUME~1\KEUNSO~1\LOCALS~1\Temp/ccIyMOV1.s 			page 179


 10060 0530 0000 0000 		.long	.LM151
 10061 0534 17        		.byte	0x17
 10062 0535 00        		.byte	0x0
 10063 0536 05        		.uleb128 0x5
 10064 0537 02        		.byte	0x2
 10065 0538 0000 0000 		.long	.LM152
 10066 053c 15        		.byte	0x15
 10067 053d 00        		.byte	0x0
 10068 053e 05        		.uleb128 0x5
 10069 053f 02        		.byte	0x2
 10070 0540 0000 0000 		.long	.LM153
 10071 0544 19        		.byte	0x19
 10072 0545 00        		.byte	0x0
 10073 0546 05        		.uleb128 0x5
 10074 0547 02        		.byte	0x2
 10075 0548 0000 0000 		.long	.LM154
 10076 054c 15        		.byte	0x15
 10077 054d 00        		.byte	0x0
 10078 054e 05        		.uleb128 0x5
 10079 054f 02        		.byte	0x2
 10080 0550 0000 0000 		.long	.LM155
 10081 0554 15        		.byte	0x15
 10082 0555 00        		.byte	0x0
 10083 0556 05        		.uleb128 0x5
 10084 0557 02        		.byte	0x2
 10085 0558 0000 0000 		.long	.LM156
 10086 055c 16        		.byte	0x16
 10087 055d 00        		.byte	0x0
 10088 055e 05        		.uleb128 0x5
 10089 055f 02        		.byte	0x2
 10090 0560 0000 0000 		.long	.LM157
 10091 0564 55        		.byte	0x55
 10092 0565 00        		.byte	0x0
 10093 0566 05        		.uleb128 0x5
 10094 0567 02        		.byte	0x2
 10095 0568 0000 0000 		.long	.LM158
 10096 056c 03        		.byte	0x3
 10097 056d B27F      		.sleb128 -78
 10098 056f 01        		.byte	0x1
 10099 0570 00        		.byte	0x0
 10100 0571 05        		.uleb128 0x5
 10101 0572 02        		.byte	0x2
 10102 0573 0000 0000 		.long	.LM159
 10103 0577 17        		.byte	0x17
 10104 0578 00        		.byte	0x0
 10105 0579 05        		.uleb128 0x5
 10106 057a 02        		.byte	0x2
 10107 057b 0000 0000 		.long	.LM160
 10108 057f 15        		.byte	0x15
 10109 0580 00        		.byte	0x0
 10110 0581 05        		.uleb128 0x5
 10111 0582 02        		.byte	0x2
 10112 0583 0000 0000 		.long	.LM161
 10113 0587 19        		.byte	0x19
 10114 0588 00        		.byte	0x0
 10115 0589 05        		.uleb128 0x5
 10116 058a 02        		.byte	0x2
GAS LISTING C:\DOCUME~1\KEUNSO~1\LOCALS~1\Temp/ccIyMOV1.s 			page 180


 10117 058b 0000 0000 		.long	.LM162
 10118 058f 15        		.byte	0x15
 10119 0590 00        		.byte	0x0
 10120 0591 05        		.uleb128 0x5
 10121 0592 02        		.byte	0x2
 10122 0593 0000 0000 		.long	.LM163
 10123 0597 15        		.byte	0x15
 10124 0598 00        		.byte	0x0
 10125 0599 05        		.uleb128 0x5
 10126 059a 02        		.byte	0x2
 10127 059b 0000 0000 		.long	.LM164
 10128 059f 16        		.byte	0x16
 10129 05a0 00        		.byte	0x0
 10130 05a1 05        		.uleb128 0x5
 10131 05a2 02        		.byte	0x2
 10132 05a3 0000 0000 		.long	.LM165
 10133 05a7 57        		.byte	0x57
 10134 05a8 00        		.byte	0x0
 10135 05a9 05        		.uleb128 0x5
 10136 05aa 02        		.byte	0x2
 10137 05ab 0000 0000 		.long	.LM166
 10138 05af 03        		.byte	0x3
 10139 05b0 B57F      		.sleb128 -75
 10140 05b2 01        		.byte	0x1
 10141 05b3 00        		.byte	0x0
 10142 05b4 05        		.uleb128 0x5
 10143 05b5 02        		.byte	0x2
 10144 05b6 0000 0000 		.long	.LM167
 10145 05ba 15        		.byte	0x15
 10146 05bb 00        		.byte	0x0
 10147 05bc 05        		.uleb128 0x5
 10148 05bd 02        		.byte	0x2
 10149 05be 0000 0000 		.long	.LM168
 10150 05c2 15        		.byte	0x15
 10151 05c3 00        		.byte	0x0
 10152 05c4 05        		.uleb128 0x5
 10153 05c5 02        		.byte	0x2
 10154 05c6 0000 0000 		.long	.LM169
 10155 05ca 1A        		.byte	0x1a
 10156 05cb 00        		.byte	0x0
 10157 05cc 05        		.uleb128 0x5
 10158 05cd 02        		.byte	0x2
 10159 05ce 0000 0000 		.long	.LM170
 10160 05d2 03        		.byte	0x3
 10161 05d3 73        		.sleb128 -13
 10162 05d4 01        		.byte	0x1
 10163 05d5 00        		.byte	0x0
 10164 05d6 05        		.uleb128 0x5
 10165 05d7 02        		.byte	0x2
 10166 05d8 0000 0000 		.long	.LM171
 10167 05dc 15        		.byte	0x15
 10168 05dd 00        		.byte	0x0
 10169 05de 05        		.uleb128 0x5
 10170 05df 02        		.byte	0x2
 10171 05e0 0000 0000 		.long	.LM172
 10172 05e4 16        		.byte	0x16
 10173 05e5 00        		.byte	0x0
GAS LISTING C:\DOCUME~1\KEUNSO~1\LOCALS~1\Temp/ccIyMOV1.s 			page 181


 10174 05e6 05        		.uleb128 0x5
 10175 05e7 02        		.byte	0x2
 10176 05e8 0000 0000 		.long	.LM173
 10177 05ec 15        		.byte	0x15
 10178 05ed 00        		.byte	0x0
 10179 05ee 05        		.uleb128 0x5
 10180 05ef 02        		.byte	0x2
 10181 05f0 0000 0000 		.long	.LM174
 10182 05f4 15        		.byte	0x15
 10183 05f5 00        		.byte	0x0
 10184 05f6 05        		.uleb128 0x5
 10185 05f7 02        		.byte	0x2
 10186 05f8 0000 0000 		.long	.LM175
 10187 05fc 15        		.byte	0x15
 10188 05fd 00        		.byte	0x0
 10189 05fe 05        		.uleb128 0x5
 10190 05ff 02        		.byte	0x2
 10191 0600 0000 0000 		.long	.LM176
 10192 0604 15        		.byte	0x15
 10193 0605 00        		.byte	0x0
 10194 0606 05        		.uleb128 0x5
 10195 0607 02        		.byte	0x2
 10196 0608 0000 0000 		.long	.LM177
 10197 060c 12        		.byte	0x12
 10198 060d 00        		.byte	0x0
 10199 060e 05        		.uleb128 0x5
 10200 060f 02        		.byte	0x2
 10201 0610 0000 0000 		.long	.LM178
 10202 0614 15        		.byte	0x15
 10203 0615 00        		.byte	0x0
 10204 0616 05        		.uleb128 0x5
 10205 0617 02        		.byte	0x2
 10206 0618 0000 0000 		.long	.LM179
 10207 061c 15        		.byte	0x15
 10208 061d 00        		.byte	0x0
 10209 061e 05        		.uleb128 0x5
 10210 061f 02        		.byte	0x2
 10211 0620 0000 0000 		.long	.LM180
 10212 0624 1A        		.byte	0x1a
 10213 0625 00        		.byte	0x0
 10214 0626 05        		.uleb128 0x5
 10215 0627 02        		.byte	0x2
 10216 0628 0000 0000 		.long	.LM181
 10217 062c 57        		.byte	0x57
 10218 062d 00        		.byte	0x0
 10219 062e 05        		.uleb128 0x5
 10220 062f 02        		.byte	0x2
 10221 0630 0000 0000 		.long	.LM182
 10222 0634 03        		.byte	0x3
 10223 0635 B57F      		.sleb128 -75
 10224 0637 01        		.byte	0x1
 10225 0638 00        		.byte	0x0
 10226 0639 05        		.uleb128 0x5
 10227 063a 02        		.byte	0x2
 10228 063b 0000 0000 		.long	.LM183
 10229 063f 15        		.byte	0x15
 10230 0640 00        		.byte	0x0
GAS LISTING C:\DOCUME~1\KEUNSO~1\LOCALS~1\Temp/ccIyMOV1.s 			page 182


 10231 0641 05        		.uleb128 0x5
 10232 0642 02        		.byte	0x2
 10233 0643 0000 0000 		.long	.LM184
 10234 0647 15        		.byte	0x15
 10235 0648 00        		.byte	0x0
 10236 0649 05        		.uleb128 0x5
 10237 064a 02        		.byte	0x2
 10238 064b 0000 0000 		.long	.LM185
 10239 064f 0E        		.byte	0xe
 10240 0650 00        		.byte	0x0
 10241 0651 05        		.uleb128 0x5
 10242 0652 02        		.byte	0x2
 10243 0653 0000 0000 		.long	.LM186
 10244 0657 67        		.byte	0x67
 10245 0658 00        		.byte	0x0
 10246 0659 05        		.uleb128 0x5
 10247 065a 02        		.byte	0x2
 10248 065b 0000 0000 		.long	.LM187
 10249 065f 03        		.byte	0x3
 10250 0660 AC7F      		.sleb128 -84
 10251 0662 01        		.byte	0x1
 10252 0663 00        		.byte	0x0
 10253 0664 05        		.uleb128 0x5
 10254 0665 02        		.byte	0x2
 10255 0666 0000 0000 		.long	.LM188
 10256 066a 17        		.byte	0x17
 10257 066b 00        		.byte	0x0
 10258 066c 05        		.uleb128 0x5
 10259 066d 02        		.byte	0x2
 10260 066e 0000 0000 		.long	.LM189
 10261 0672 15        		.byte	0x15
 10262 0673 00        		.byte	0x0
 10263 0674 05        		.uleb128 0x5
 10264 0675 02        		.byte	0x2
 10265 0676 0000 0000 		.long	.LM190
 10266 067a 19        		.byte	0x19
 10267 067b 00        		.byte	0x0
 10268 067c 05        		.uleb128 0x5
 10269 067d 02        		.byte	0x2
 10270 067e 0000 0000 		.long	.LM191
 10271 0682 15        		.byte	0x15
 10272 0683 00        		.byte	0x0
 10273 0684 05        		.uleb128 0x5
 10274 0685 02        		.byte	0x2
 10275 0686 0000 0000 		.long	.LM192
 10276 068a 15        		.byte	0x15
 10277 068b 00        		.byte	0x0
 10278 068c 05        		.uleb128 0x5
 10279 068d 02        		.byte	0x2
 10280 068e 0000 0000 		.long	.LM193
 10281 0692 16        		.byte	0x16
 10282 0693 00        		.byte	0x0
 10283 0694 05        		.uleb128 0x5
 10284 0695 02        		.byte	0x2
 10285 0696 0000 0000 		.long	.LM194
 10286 069a 03        		.byte	0x3
 10287 069b 73        		.sleb128 -13
GAS LISTING C:\DOCUME~1\KEUNSO~1\LOCALS~1\Temp/ccIyMOV1.s 			page 183


 10288 069c 01        		.byte	0x1
 10289 069d 00        		.byte	0x0
 10290 069e 05        		.uleb128 0x5
 10291 069f 02        		.byte	0x2
 10292 06a0 0000 0000 		.long	.LM195
 10293 06a4 17        		.byte	0x17
 10294 06a5 00        		.byte	0x0
 10295 06a6 05        		.uleb128 0x5
 10296 06a7 02        		.byte	0x2
 10297 06a8 0000 0000 		.long	.LM196
 10298 06ac 15        		.byte	0x15
 10299 06ad 00        		.byte	0x0
 10300 06ae 05        		.uleb128 0x5
 10301 06af 02        		.byte	0x2
 10302 06b0 0000 0000 		.long	.LM197
 10303 06b4 19        		.byte	0x19
 10304 06b5 00        		.byte	0x0
 10305 06b6 05        		.uleb128 0x5
 10306 06b7 02        		.byte	0x2
 10307 06b8 0000 0000 		.long	.LM198
 10308 06bc 15        		.byte	0x15
 10309 06bd 00        		.byte	0x0
 10310 06be 05        		.uleb128 0x5
 10311 06bf 02        		.byte	0x2
 10312 06c0 0000 0000 		.long	.LM199
 10313 06c4 15        		.byte	0x15
 10314 06c5 00        		.byte	0x0
 10315 06c6 05        		.uleb128 0x5
 10316 06c7 02        		.byte	0x2
 10317 06c8 0000 0000 		.long	.LM200
 10318 06cc 16        		.byte	0x16
 10319 06cd 00        		.byte	0x0
 10320 06ce 05        		.uleb128 0x5
 10321 06cf 02        		.byte	0x2
 10322 06d0 0000 0000 		.long	.LM201
 10323 06d4 53        		.byte	0x53
 10324 06d5 00        		.byte	0x0
 10325 06d6 05        		.uleb128 0x5
 10326 06d7 02        		.byte	0x2
 10327 06d8 0000 0000 		.long	.LM202
 10328 06dc 03        		.byte	0x3
 10329 06dd B47F      		.sleb128 -76
 10330 06df 01        		.byte	0x1
 10331 06e0 00        		.byte	0x0
 10332 06e1 05        		.uleb128 0x5
 10333 06e2 02        		.byte	0x2
 10334 06e3 0000 0000 		.long	.LM203
 10335 06e7 17        		.byte	0x17
 10336 06e8 00        		.byte	0x0
 10337 06e9 05        		.uleb128 0x5
 10338 06ea 02        		.byte	0x2
 10339 06eb 0000 0000 		.long	.LM204
 10340 06ef 15        		.byte	0x15
 10341 06f0 00        		.byte	0x0
 10342 06f1 05        		.uleb128 0x5
 10343 06f2 02        		.byte	0x2
 10344 06f3 0000 0000 		.long	.LM205
GAS LISTING C:\DOCUME~1\KEUNSO~1\LOCALS~1\Temp/ccIyMOV1.s 			page 184


 10345 06f7 19        		.byte	0x19
 10346 06f8 00        		.byte	0x0
 10347 06f9 05        		.uleb128 0x5
 10348 06fa 02        		.byte	0x2
 10349 06fb 0000 0000 		.long	.LM206
 10350 06ff 15        		.byte	0x15
 10351 0700 00        		.byte	0x0
 10352 0701 05        		.uleb128 0x5
 10353 0702 02        		.byte	0x2
 10354 0703 0000 0000 		.long	.LM207
 10355 0707 15        		.byte	0x15
 10356 0708 00        		.byte	0x0
 10357 0709 05        		.uleb128 0x5
 10358 070a 02        		.byte	0x2
 10359 070b 0000 0000 		.long	.LM208
 10360 070f 16        		.byte	0x16
 10361 0710 00        		.byte	0x0
 10362 0711 05        		.uleb128 0x5
 10363 0712 02        		.byte	0x2
 10364 0713 0000 0000 		.long	.LM209
 10365 0717 55        		.byte	0x55
 10366 0718 00        		.byte	0x0
 10367 0719 05        		.uleb128 0x5
 10368 071a 02        		.byte	0x2
 10369 071b 0000 0000 		.long	.LM210
 10370 071f 03        		.byte	0x3
 10371 0720 B27F      		.sleb128 -78
 10372 0722 01        		.byte	0x1
 10373 0723 00        		.byte	0x0
 10374 0724 05        		.uleb128 0x5
 10375 0725 02        		.byte	0x2
 10376 0726 0000 0000 		.long	.LM211
 10377 072a 17        		.byte	0x17
 10378 072b 00        		.byte	0x0
 10379 072c 05        		.uleb128 0x5
 10380 072d 02        		.byte	0x2
 10381 072e 0000 0000 		.long	.LM212
 10382 0732 15        		.byte	0x15
 10383 0733 00        		.byte	0x0
 10384 0734 05        		.uleb128 0x5
 10385 0735 02        		.byte	0x2
 10386 0736 0000 0000 		.long	.LM213
 10387 073a 19        		.byte	0x19
 10388 073b 00        		.byte	0x0
 10389 073c 05        		.uleb128 0x5
 10390 073d 02        		.byte	0x2
 10391 073e 0000 0000 		.long	.LM214
 10392 0742 15        		.byte	0x15
 10393 0743 00        		.byte	0x0
 10394 0744 05        		.uleb128 0x5
 10395 0745 02        		.byte	0x2
 10396 0746 0000 0000 		.long	.LM215
 10397 074a 15        		.byte	0x15
 10398 074b 00        		.byte	0x0
 10399 074c 05        		.uleb128 0x5
 10400 074d 02        		.byte	0x2
 10401 074e 0000 0000 		.long	.LM216
GAS LISTING C:\DOCUME~1\KEUNSO~1\LOCALS~1\Temp/ccIyMOV1.s 			page 185


 10402 0752 16        		.byte	0x16
 10403 0753 00        		.byte	0x0
 10404 0754 05        		.uleb128 0x5
 10405 0755 02        		.byte	0x2
 10406 0756 0000 0000 		.long	.LM217
 10407 075a 03        		.byte	0x3
 10408 075b 74        		.sleb128 -12
 10409 075c 01        		.byte	0x1
 10410 075d 00        		.byte	0x0
 10411 075e 05        		.uleb128 0x5
 10412 075f 02        		.byte	0x2
 10413 0760 0000 0000 		.long	.LM218
 10414 0764 1D        		.byte	0x1d
 10415 0765 00        		.byte	0x0
 10416 0766 05        		.uleb128 0x5
 10417 0767 02        		.byte	0x2
 10418 0768 0000 0000 		.long	.LM219
 10419 076c 13        		.byte	0x13
 10420 076d 00        		.byte	0x0
 10421 076e 05        		.uleb128 0x5
 10422 076f 02        		.byte	0x2
 10423 0770 0000 0000 		.long	.LM220
 10424 0774 15        		.byte	0x15
 10425 0775 00        		.byte	0x0
 10426 0776 05        		.uleb128 0x5
 10427 0777 02        		.byte	0x2
 10428 0778 0000 0000 		.long	.LM221
 10429 077c 15        		.byte	0x15
 10430 077d 00        		.byte	0x0
 10431 077e 05        		.uleb128 0x5
 10432 077f 02        		.byte	0x2
 10433 0780 0000 0000 		.long	.LM222
 10434 0784 16        		.byte	0x16
 10435 0785 00        		.byte	0x0
 10436 0786 05        		.uleb128 0x5
 10437 0787 02        		.byte	0x2
 10438 0788 0000 0000 		.long	.LM223
 10439 078c 1A        		.byte	0x1a
 10440 078d 00        		.byte	0x0
 10441 078e 05        		.uleb128 0x5
 10442 078f 02        		.byte	0x2
 10443 0790 0000 0000 		.long	.LM224
 10444 0794 15        		.byte	0x15
 10445 0795 00        		.byte	0x0
 10446 0796 05        		.uleb128 0x5
 10447 0797 02        		.byte	0x2
 10448 0798 0000 0000 		.long	.LM225
 10449 079c 03        		.byte	0x3
 10450 079d 6C        		.sleb128 -20
 10451 079e 01        		.byte	0x1
 10452 079f 00        		.byte	0x0
 10453 07a0 05        		.uleb128 0x5
 10454 07a1 02        		.byte	0x2
 10455 07a2 0000 0000 		.long	.LM226
 10456 07a6 17        		.byte	0x17
 10457 07a7 00        		.byte	0x0
 10458 07a8 05        		.uleb128 0x5
GAS LISTING C:\DOCUME~1\KEUNSO~1\LOCALS~1\Temp/ccIyMOV1.s 			page 186


 10459 07a9 02        		.byte	0x2
 10460 07aa 0000 0000 		.long	.LM227
 10461 07ae 15        		.byte	0x15
 10462 07af 00        		.byte	0x0
 10463 07b0 05        		.uleb128 0x5
 10464 07b1 02        		.byte	0x2
 10465 07b2 0000 0000 		.long	.LM228
 10466 07b6 15        		.byte	0x15
 10467 07b7 00        		.byte	0x0
 10468 07b8 05        		.uleb128 0x5
 10469 07b9 02        		.byte	0x2
 10470 07ba 0000 0000 		.long	.LM229
 10471 07be 15        		.byte	0x15
 10472 07bf 00        		.byte	0x0
 10473 07c0 05        		.uleb128 0x5
 10474 07c1 02        		.byte	0x2
 10475 07c2 0000 0000 		.long	.LM230
 10476 07c6 15        		.byte	0x15
 10477 07c7 00        		.byte	0x0
 10478 07c8 05        		.uleb128 0x5
 10479 07c9 02        		.byte	0x2
 10480 07ca 0000 0000 		.long	.LM231
 10481 07ce 1A        		.byte	0x1a
 10482 07cf 00        		.byte	0x0
 10483 07d0 05        		.uleb128 0x5
 10484 07d1 02        		.byte	0x2
 10485 07d2 0000 0000 		.long	.LM232
 10486 07d6 1A        		.byte	0x1a
 10487 07d7 00        		.byte	0x0
 10488 07d8 05        		.uleb128 0x5
 10489 07d9 02        		.byte	0x2
 10490 07da 0000 0000 		.long	.LM233
 10491 07de 58        		.byte	0x58
 10492 07df 00        		.byte	0x0
 10493 07e0 05        		.uleb128 0x5
 10494 07e1 02        		.byte	0x2
 10495 07e2 0000 0000 		.long	.LM234
 10496 07e6 03        		.byte	0x3
 10497 07e7 AA7F      		.sleb128 -86
 10498 07e9 01        		.byte	0x1
 10499 07ea 00        		.byte	0x0
 10500 07eb 05        		.uleb128 0x5
 10501 07ec 02        		.byte	0x2
 10502 07ed 0000 0000 		.long	.LM235
 10503 07f1 18        		.byte	0x18
 10504 07f2 00        		.byte	0x0
 10505 07f3 05        		.uleb128 0x5
 10506 07f4 02        		.byte	0x2
 10507 07f5 0000 0000 		.long	.LM236
 10508 07f9 15        		.byte	0x15
 10509 07fa 00        		.byte	0x0
 10510 07fb 05        		.uleb128 0x5
 10511 07fc 02        		.byte	0x2
 10512 07fd 0000 0000 		.long	.LM237
 10513 0801 15        		.byte	0x15
 10514 0802 00        		.byte	0x0
 10515 0803 05        		.uleb128 0x5
GAS LISTING C:\DOCUME~1\KEUNSO~1\LOCALS~1\Temp/ccIyMOV1.s 			page 187


 10516 0804 02        		.byte	0x2
 10517 0805 0000 0000 		.long	.LM238
 10518 0809 1A        		.byte	0x1a
 10519 080a 00        		.byte	0x0
 10520 080b 05        		.uleb128 0x5
 10521 080c 02        		.byte	0x2
 10522 080d 0000 0000 		.long	.LM239
 10523 0811 03        		.byte	0x3
 10524 0812 73        		.sleb128 -13
 10525 0813 01        		.byte	0x1
 10526 0814 00        		.byte	0x0
 10527 0815 05        		.uleb128 0x5
 10528 0816 02        		.byte	0x2
 10529 0817 0000 0000 		.long	.LM240
 10530 081b 15        		.byte	0x15
 10531 081c 00        		.byte	0x0
 10532 081d 05        		.uleb128 0x5
 10533 081e 02        		.byte	0x2
 10534 081f 0000 0000 		.long	.LM241
 10535 0823 16        		.byte	0x16
 10536 0824 00        		.byte	0x0
 10537 0825 05        		.uleb128 0x5
 10538 0826 02        		.byte	0x2
 10539 0827 0000 0000 		.long	.LM242
 10540 082b 15        		.byte	0x15
 10541 082c 00        		.byte	0x0
 10542 082d 05        		.uleb128 0x5
 10543 082e 02        		.byte	0x2
 10544 082f 0000 0000 		.long	.LM243
 10545 0833 15        		.byte	0x15
 10546 0834 00        		.byte	0x0
 10547 0835 05        		.uleb128 0x5
 10548 0836 02        		.byte	0x2
 10549 0837 0000 0000 		.long	.LM244
 10550 083b 15        		.byte	0x15
 10551 083c 00        		.byte	0x0
 10552 083d 05        		.uleb128 0x5
 10553 083e 02        		.byte	0x2
 10554 083f 0000 0000 		.long	.LM245
 10555 0843 15        		.byte	0x15
 10556 0844 00        		.byte	0x0
 10557 0845 05        		.uleb128 0x5
 10558 0846 02        		.byte	0x2
 10559 0847 0000 0000 		.long	.LM246
 10560 084b 12        		.byte	0x12
 10561 084c 00        		.byte	0x0
 10562 084d 05        		.uleb128 0x5
 10563 084e 02        		.byte	0x2
 10564 084f 0000 0000 		.long	.LM247
 10565 0853 15        		.byte	0x15
 10566 0854 00        		.byte	0x0
 10567 0855 05        		.uleb128 0x5
 10568 0856 02        		.byte	0x2
 10569 0857 0000 0000 		.long	.LM248
 10570 085b 15        		.byte	0x15
 10571 085c 00        		.byte	0x0
 10572 085d 05        		.uleb128 0x5
GAS LISTING C:\DOCUME~1\KEUNSO~1\LOCALS~1\Temp/ccIyMOV1.s 			page 188


 10573 085e 02        		.byte	0x2
 10574 085f 0000 0000 		.long	.LM249
 10575 0863 12        		.byte	0x12
 10576 0864 00        		.byte	0x0
 10577 0865 05        		.uleb128 0x5
 10578 0866 02        		.byte	0x2
 10579 0867 0000 0000 		.long	.LM250
 10580 086b 15        		.byte	0x15
 10581 086c 00        		.byte	0x0
 10582 086d 05        		.uleb128 0x5
 10583 086e 02        		.byte	0x2
 10584 086f 0000 0000 		.long	.LM251
 10585 0873 15        		.byte	0x15
 10586 0874 00        		.byte	0x0
 10587 0875 05        		.uleb128 0x5
 10588 0876 02        		.byte	0x2
 10589 0877 0000 0000 		.long	.LM252
 10590 087b 0E        		.byte	0xe
 10591 087c 00        		.byte	0x0
 10592 087d 05        		.uleb128 0x5
 10593 087e 02        		.byte	0x2
 10594 087f 0000 0000 		.long	.LM253
 10595 0883 7F        		.byte	0x7f
 10596 0884 00        		.byte	0x0
 10597 0885 05        		.uleb128 0x5
 10598 0886 02        		.byte	0x2
 10599 0887 0000 0000 		.long	.LM254
 10600 088b 17        		.byte	0x17
 10601 088c 00        		.byte	0x0
 10602 088d 05        		.uleb128 0x5
 10603 088e 02        		.byte	0x2
 10604 088f 0000 0000 		.long	.LM255
 10605 0893 03        		.byte	0x3
 10606 0894 917F      		.sleb128 -111
 10607 0896 01        		.byte	0x1
 10608 0897 00        		.byte	0x0
 10609 0898 05        		.uleb128 0x5
 10610 0899 02        		.byte	0x2
 10611 089a 0000 0000 		.long	.LM256
 10612 089e 17        		.byte	0x17
 10613 089f 00        		.byte	0x0
 10614 08a0 05        		.uleb128 0x5
 10615 08a1 02        		.byte	0x2
 10616 08a2 0000 0000 		.long	.LM257
 10617 08a6 15        		.byte	0x15
 10618 08a7 00        		.byte	0x0
 10619 08a8 05        		.uleb128 0x5
 10620 08a9 02        		.byte	0x2
 10621 08aa 0000 0000 		.long	.LM258
 10622 08ae 19        		.byte	0x19
 10623 08af 00        		.byte	0x0
 10624 08b0 05        		.uleb128 0x5
 10625 08b1 02        		.byte	0x2
 10626 08b2 0000 0000 		.long	.LM259
 10627 08b6 15        		.byte	0x15
 10628 08b7 00        		.byte	0x0
 10629 08b8 05        		.uleb128 0x5
GAS LISTING C:\DOCUME~1\KEUNSO~1\LOCALS~1\Temp/ccIyMOV1.s 			page 189


 10630 08b9 02        		.byte	0x2
 10631 08ba 0000 0000 		.long	.LM260
 10632 08be 15        		.byte	0x15
 10633 08bf 00        		.byte	0x0
 10634 08c0 05        		.uleb128 0x5
 10635 08c1 02        		.byte	0x2
 10636 08c2 0000 0000 		.long	.LM261
 10637 08c6 16        		.byte	0x16
 10638 08c7 00        		.byte	0x0
 10639 08c8 05        		.uleb128 0x5
 10640 08c9 02        		.byte	0x2
 10641 08ca 0000 0000 		.long	.LM262
 10642 08ce 03        		.byte	0x3
 10643 08cf 73        		.sleb128 -13
 10644 08d0 01        		.byte	0x1
 10645 08d1 00        		.byte	0x0
 10646 08d2 05        		.uleb128 0x5
 10647 08d3 02        		.byte	0x2
 10648 08d4 0000 0000 		.long	.LM263
 10649 08d8 17        		.byte	0x17
 10650 08d9 00        		.byte	0x0
 10651 08da 05        		.uleb128 0x5
 10652 08db 02        		.byte	0x2
 10653 08dc 0000 0000 		.long	.LM264
 10654 08e0 15        		.byte	0x15
 10655 08e1 00        		.byte	0x0
 10656 08e2 05        		.uleb128 0x5
 10657 08e3 02        		.byte	0x2
 10658 08e4 0000 0000 		.long	.LM265
 10659 08e8 19        		.byte	0x19
 10660 08e9 00        		.byte	0x0
 10661 08ea 05        		.uleb128 0x5
 10662 08eb 02        		.byte	0x2
 10663 08ec 0000 0000 		.long	.LM266
 10664 08f0 15        		.byte	0x15
 10665 08f1 00        		.byte	0x0
 10666 08f2 05        		.uleb128 0x5
 10667 08f3 02        		.byte	0x2
 10668 08f4 0000 0000 		.long	.LM267
 10669 08f8 15        		.byte	0x15
 10670 08f9 00        		.byte	0x0
 10671 08fa 05        		.uleb128 0x5
 10672 08fb 02        		.byte	0x2
 10673 08fc 0000 0000 		.long	.LM268
 10674 0900 16        		.byte	0x16
 10675 0901 00        		.byte	0x0
 10676 0902 05        		.uleb128 0x5
 10677 0903 02        		.byte	0x2
 10678 0904 0000 0000 		.long	.LM269
 10679 0908 53        		.byte	0x53
 10680 0909 00        		.byte	0x0
 10681 090a 05        		.uleb128 0x5
 10682 090b 02        		.byte	0x2
 10683 090c 0000 0000 		.long	.LM270
 10684 0910 03        		.byte	0x3
 10685 0911 B47F      		.sleb128 -76
 10686 0913 01        		.byte	0x1
GAS LISTING C:\DOCUME~1\KEUNSO~1\LOCALS~1\Temp/ccIyMOV1.s 			page 190


 10687 0914 00        		.byte	0x0
 10688 0915 05        		.uleb128 0x5
 10689 0916 02        		.byte	0x2
 10690 0917 0000 0000 		.long	.LM271
 10691 091b 17        		.byte	0x17
 10692 091c 00        		.byte	0x0
 10693 091d 05        		.uleb128 0x5
 10694 091e 02        		.byte	0x2
 10695 091f 0000 0000 		.long	.LM272
 10696 0923 15        		.byte	0x15
 10697 0924 00        		.byte	0x0
 10698 0925 05        		.uleb128 0x5
 10699 0926 02        		.byte	0x2
 10700 0927 0000 0000 		.long	.LM273
 10701 092b 19        		.byte	0x19
 10702 092c 00        		.byte	0x0
 10703 092d 05        		.uleb128 0x5
 10704 092e 02        		.byte	0x2
 10705 092f 0000 0000 		.long	.LM274
 10706 0933 15        		.byte	0x15
 10707 0934 00        		.byte	0x0
 10708 0935 05        		.uleb128 0x5
 10709 0936 02        		.byte	0x2
 10710 0937 0000 0000 		.long	.LM275
 10711 093b 15        		.byte	0x15
 10712 093c 00        		.byte	0x0
 10713 093d 05        		.uleb128 0x5
 10714 093e 02        		.byte	0x2
 10715 093f 0000 0000 		.long	.LM276
 10716 0943 16        		.byte	0x16
 10717 0944 00        		.byte	0x0
 10718 0945 05        		.uleb128 0x5
 10719 0946 02        		.byte	0x2
 10720 0947 0000 0000 		.long	.LM277
 10721 094b 55        		.byte	0x55
 10722 094c 00        		.byte	0x0
 10723 094d 05        		.uleb128 0x5
 10724 094e 02        		.byte	0x2
 10725 094f 0000 0000 		.long	.LM278
 10726 0953 03        		.byte	0x3
 10727 0954 B27F      		.sleb128 -78
 10728 0956 01        		.byte	0x1
 10729 0957 00        		.byte	0x0
 10730 0958 05        		.uleb128 0x5
 10731 0959 02        		.byte	0x2
 10732 095a 0000 0000 		.long	.LM279
 10733 095e 17        		.byte	0x17
 10734 095f 00        		.byte	0x0
 10735 0960 05        		.uleb128 0x5
 10736 0961 02        		.byte	0x2
 10737 0962 0000 0000 		.long	.LM280
 10738 0966 15        		.byte	0x15
 10739 0967 00        		.byte	0x0
 10740 0968 05        		.uleb128 0x5
 10741 0969 02        		.byte	0x2
 10742 096a 0000 0000 		.long	.LM281
 10743 096e 19        		.byte	0x19
GAS LISTING C:\DOCUME~1\KEUNSO~1\LOCALS~1\Temp/ccIyMOV1.s 			page 191


 10744 096f 00        		.byte	0x0
 10745 0970 05        		.uleb128 0x5
 10746 0971 02        		.byte	0x2
 10747 0972 0000 0000 		.long	.LM282
 10748 0976 15        		.byte	0x15
 10749 0977 00        		.byte	0x0
 10750 0978 05        		.uleb128 0x5
 10751 0979 02        		.byte	0x2
 10752 097a 0000 0000 		.long	.LM283
 10753 097e 15        		.byte	0x15
 10754 097f 00        		.byte	0x0
 10755 0980 05        		.uleb128 0x5
 10756 0981 02        		.byte	0x2
 10757 0982 0000 0000 		.long	.LM284
 10758 0986 16        		.byte	0x16
 10759 0987 00        		.byte	0x0
 10760 0988 05        		.uleb128 0x5
 10761 0989 02        		.byte	0x2
 10762 098a 0000 0000 		.long	.LM285
 10763 098e 03        		.byte	0x3
 10764 098f 73        		.sleb128 -13
 10765 0990 01        		.byte	0x1
 10766 0991 00        		.byte	0x0
 10767 0992 05        		.uleb128 0x5
 10768 0993 02        		.byte	0x2
 10769 0994 0000 0000 		.long	.LM286
 10770 0998 17        		.byte	0x17
 10771 0999 00        		.byte	0x0
 10772 099a 05        		.uleb128 0x5
 10773 099b 02        		.byte	0x2
 10774 099c 0000 0000 		.long	.LM287
 10775 09a0 15        		.byte	0x15
 10776 09a1 00        		.byte	0x0
 10777 09a2 05        		.uleb128 0x5
 10778 09a3 02        		.byte	0x2
 10779 09a4 0000 0000 		.long	.LM288
 10780 09a8 19        		.byte	0x19
 10781 09a9 00        		.byte	0x0
 10782 09aa 05        		.uleb128 0x5
 10783 09ab 02        		.byte	0x2
 10784 09ac 0000 0000 		.long	.LM289
 10785 09b0 15        		.byte	0x15
 10786 09b1 00        		.byte	0x0
 10787 09b2 05        		.uleb128 0x5
 10788 09b3 02        		.byte	0x2
 10789 09b4 0000 0000 		.long	.LM290
 10790 09b8 15        		.byte	0x15
 10791 09b9 00        		.byte	0x0
 10792 09ba 05        		.uleb128 0x5
 10793 09bb 02        		.byte	0x2
 10794 09bc 0000 0000 		.long	.LM291
 10795 09c0 16        		.byte	0x16
 10796 09c1 00        		.byte	0x0
 10797 09c2 05        		.uleb128 0x5
 10798 09c3 02        		.byte	0x2
 10799 09c4 0000 0000 		.long	.LM292
 10800 09c8 03        		.byte	0x3
GAS LISTING C:\DOCUME~1\KEUNSO~1\LOCALS~1\Temp/ccIyMOV1.s 			page 192


 10801 09c9 73        		.sleb128 -13
 10802 09ca 01        		.byte	0x1
 10803 09cb 00        		.byte	0x0
 10804 09cc 05        		.uleb128 0x5
 10805 09cd 02        		.byte	0x2
 10806 09ce 0000 0000 		.long	.LM293
 10807 09d2 17        		.byte	0x17
 10808 09d3 00        		.byte	0x0
 10809 09d4 05        		.uleb128 0x5
 10810 09d5 02        		.byte	0x2
 10811 09d6 0000 0000 		.long	.LM294
 10812 09da 15        		.byte	0x15
 10813 09db 00        		.byte	0x0
 10814 09dc 05        		.uleb128 0x5
 10815 09dd 02        		.byte	0x2
 10816 09de 0000 0000 		.long	.LM295
 10817 09e2 19        		.byte	0x19
 10818 09e3 00        		.byte	0x0
 10819 09e4 05        		.uleb128 0x5
 10820 09e5 02        		.byte	0x2
 10821 09e6 0000 0000 		.long	.LM296
 10822 09ea 15        		.byte	0x15
 10823 09eb 00        		.byte	0x0
 10824 09ec 05        		.uleb128 0x5
 10825 09ed 02        		.byte	0x2
 10826 09ee 0000 0000 		.long	.LM297
 10827 09f2 15        		.byte	0x15
 10828 09f3 00        		.byte	0x0
 10829 09f4 05        		.uleb128 0x5
 10830 09f5 02        		.byte	0x2
 10831 09f6 0000 0000 		.long	.LM298
 10832 09fa 16        		.byte	0x16
 10833 09fb 00        		.byte	0x0
 10834 09fc 05        		.uleb128 0x5
 10835 09fd 02        		.byte	0x2
 10836 09fe 0000 0000 		.long	.LM299
 10837 0a02 7A        		.byte	0x7a
 10838 0a03 00        		.byte	0x0
 10839 0a04 05        		.uleb128 0x5
 10840 0a05 02        		.byte	0x2
 10841 0a06 0000 0000 		.long	.LM300
 10842 0a0a 03        		.byte	0x3
 10843 0a0b 8D7F      		.sleb128 -115
 10844 0a0d 01        		.byte	0x1
 10845 0a0e 00        		.byte	0x0
 10846 0a0f 05        		.uleb128 0x5
 10847 0a10 02        		.byte	0x2
 10848 0a11 0000 0000 		.long	.LM301
 10849 0a15 17        		.byte	0x17
 10850 0a16 00        		.byte	0x0
 10851 0a17 05        		.uleb128 0x5
 10852 0a18 02        		.byte	0x2
 10853 0a19 0000 0000 		.long	.LM302
 10854 0a1d 15        		.byte	0x15
 10855 0a1e 00        		.byte	0x0
 10856 0a1f 05        		.uleb128 0x5
 10857 0a20 02        		.byte	0x2
GAS LISTING C:\DOCUME~1\KEUNSO~1\LOCALS~1\Temp/ccIyMOV1.s 			page 193


 10858 0a21 0000 0000 		.long	.LM303
 10859 0a25 19        		.byte	0x19
 10860 0a26 00        		.byte	0x0
 10861 0a27 05        		.uleb128 0x5
 10862 0a28 02        		.byte	0x2
 10863 0a29 0000 0000 		.long	.LM304
 10864 0a2d 15        		.byte	0x15
 10865 0a2e 00        		.byte	0x0
 10866 0a2f 05        		.uleb128 0x5
 10867 0a30 02        		.byte	0x2
 10868 0a31 0000 0000 		.long	.LM305
 10869 0a35 15        		.byte	0x15
 10870 0a36 00        		.byte	0x0
 10871 0a37 05        		.uleb128 0x5
 10872 0a38 02        		.byte	0x2
 10873 0a39 0000 0000 		.long	.LM306
 10874 0a3d 16        		.byte	0x16
 10875 0a3e 00        		.byte	0x0
 10876 0a3f 05        		.uleb128 0x5
 10877 0a40 02        		.byte	0x2
 10878 0a41 0000 0000 		.long	.LM307
 10879 0a45 7C        		.byte	0x7c
 10880 0a46 00        		.byte	0x0
 10881 0a47 05        		.uleb128 0x5
 10882 0a48 02        		.byte	0x2
 10883 0a49 0000 0000 		.long	.LM308
 10884 0a4d 03        		.byte	0x3
 10885 0a4e 8B7F      		.sleb128 -117
 10886 0a50 01        		.byte	0x1
 10887 0a51 00        		.byte	0x0
 10888 0a52 05        		.uleb128 0x5
 10889 0a53 02        		.byte	0x2
 10890 0a54 0000 0000 		.long	.LM309
 10891 0a58 17        		.byte	0x17
 10892 0a59 00        		.byte	0x0
 10893 0a5a 05        		.uleb128 0x5
 10894 0a5b 02        		.byte	0x2
 10895 0a5c 0000 0000 		.long	.LM310
 10896 0a60 15        		.byte	0x15
 10897 0a61 00        		.byte	0x0
 10898 0a62 05        		.uleb128 0x5
 10899 0a63 02        		.byte	0x2
 10900 0a64 0000 0000 		.long	.LM311
 10901 0a68 19        		.byte	0x19
 10902 0a69 00        		.byte	0x0
 10903 0a6a 05        		.uleb128 0x5
 10904 0a6b 02        		.byte	0x2
 10905 0a6c 0000 0000 		.long	.LM312
 10906 0a70 15        		.byte	0x15
 10907 0a71 00        		.byte	0x0
 10908 0a72 05        		.uleb128 0x5
 10909 0a73 02        		.byte	0x2
 10910 0a74 0000 0000 		.long	.LM313
 10911 0a78 15        		.byte	0x15
 10912 0a79 00        		.byte	0x0
 10913 0a7a 05        		.uleb128 0x5
 10914 0a7b 02        		.byte	0x2
GAS LISTING C:\DOCUME~1\KEUNSO~1\LOCALS~1\Temp/ccIyMOV1.s 			page 194


 10915 0a7c 0000 0000 		.long	.LM314
 10916 0a80 16        		.byte	0x16
 10917 0a81 00        		.byte	0x0
 10918 0a82 05        		.uleb128 0x5
 10919 0a83 02        		.byte	0x2
 10920 0a84 0000 0000 		.long	.LM315
 10921 0a88 1A        		.byte	0x1a
 10922 0a89 00        		.byte	0x0
 10923 0a8a 05        		.uleb128 0x5
 10924 0a8b 02        		.byte	0x2
 10925 0a8c 0000 0000 		.long	.LM316
 10926 0a90 03        		.byte	0x3
 10927 0a91 6E        		.sleb128 -18
 10928 0a92 01        		.byte	0x1
 10929 0a93 00        		.byte	0x0
 10930 0a94 05        		.uleb128 0x5
 10931 0a95 02        		.byte	0x2
 10932 0a96 0000 0000 		.long	.LM317
 10933 0a9a 1D        		.byte	0x1d
 10934 0a9b 00        		.byte	0x0
 10935 0a9c 05        		.uleb128 0x5
 10936 0a9d 02        		.byte	0x2
 10937 0a9e 0000 0000 		.long	.LM318
 10938 0aa2 13        		.byte	0x13
 10939 0aa3 00        		.byte	0x0
 10940 0aa4 05        		.uleb128 0x5
 10941 0aa5 02        		.byte	0x2
 10942 0aa6 0000 0000 		.long	.LM319
 10943 0aaa 15        		.byte	0x15
 10944 0aab 00        		.byte	0x0
 10945 0aac 05        		.uleb128 0x5
 10946 0aad 02        		.byte	0x2
 10947 0aae 0000 0000 		.long	.LM320
 10948 0ab2 15        		.byte	0x15
 10949 0ab3 00        		.byte	0x0
 10950 0ab4 05        		.uleb128 0x5
 10951 0ab5 02        		.byte	0x2
 10952 0ab6 0000 0000 		.long	.LM321
 10953 0aba 16        		.byte	0x16
 10954 0abb 00        		.byte	0x0
 10955 0abc 05        		.uleb128 0x5
 10956 0abd 02        		.byte	0x2
 10957 0abe 0000 0000 		.long	.LM322
 10958 0ac2 1A        		.byte	0x1a
 10959 0ac3 00        		.byte	0x0
 10960 0ac4 05        		.uleb128 0x5
 10961 0ac5 02        		.byte	0x2
 10962 0ac6 0000 0000 		.long	.LM323
 10963 0aca 15        		.byte	0x15
 10964 0acb 00        		.byte	0x0
 10965 0acc 05        		.uleb128 0x5
 10966 0acd 02        		.byte	0x2
 10967 0ace 0000 0000 		.long	.LM324
 10968 0ad2 03        		.byte	0x3
 10969 0ad3 6C        		.sleb128 -20
 10970 0ad4 01        		.byte	0x1
 10971 0ad5 00        		.byte	0x0
GAS LISTING C:\DOCUME~1\KEUNSO~1\LOCALS~1\Temp/ccIyMOV1.s 			page 195


 10972 0ad6 05        		.uleb128 0x5
 10973 0ad7 02        		.byte	0x2
 10974 0ad8 0000 0000 		.long	.LM325
 10975 0adc 17        		.byte	0x17
 10976 0add 00        		.byte	0x0
 10977 0ade 05        		.uleb128 0x5
 10978 0adf 02        		.byte	0x2
 10979 0ae0 0000 0000 		.long	.LM326
 10980 0ae4 15        		.byte	0x15
 10981 0ae5 00        		.byte	0x0
 10982 0ae6 05        		.uleb128 0x5
 10983 0ae7 02        		.byte	0x2
 10984 0ae8 0000 0000 		.long	.LM327
 10985 0aec 15        		.byte	0x15
 10986 0aed 00        		.byte	0x0
 10987 0aee 05        		.uleb128 0x5
 10988 0aef 02        		.byte	0x2
 10989 0af0 0000 0000 		.long	.LM328
 10990 0af4 15        		.byte	0x15
 10991 0af5 00        		.byte	0x0
 10992 0af6 05        		.uleb128 0x5
 10993 0af7 02        		.byte	0x2
 10994 0af8 0000 0000 		.long	.LM329
 10995 0afc 15        		.byte	0x15
 10996 0afd 00        		.byte	0x0
 10997 0afe 05        		.uleb128 0x5
 10998 0aff 02        		.byte	0x2
 10999 0b00 0000 0000 		.long	.LM330
 11000 0b04 1A        		.byte	0x1a
 11001 0b05 00        		.byte	0x0
 11002 0b06 05        		.uleb128 0x5
 11003 0b07 02        		.byte	0x2
 11004 0b08 0000 0000 		.long	.LM331
 11005 0b0c 1A        		.byte	0x1a
 11006 0b0d 00        		.byte	0x0
 11007 0b0e 05        		.uleb128 0x5
 11008 0b0f 02        		.byte	0x2
 11009 0b10 0000 0000 		.long	.LM332
 11010 0b14 79        		.byte	0x79
 11011 0b15 00        		.byte	0x0
 11012 0b16 05        		.uleb128 0x5
 11013 0b17 02        		.byte	0x2
 11014 0b18 0000 0000 		.long	.LM333
 11015 0b1c 15        		.byte	0x15
 11016 0b1d 00        		.byte	0x0
 11017 0b1e 05        		.uleb128 0x5
 11018 0b1f 02        		.byte	0x2
 11019 0b20 0000 0000 		.long	.LM334
 11020 0b24 03        		.byte	0x3
 11021 0b25 887F      		.sleb128 -120
 11022 0b27 01        		.byte	0x1
 11023 0b28 00        		.byte	0x0
 11024 0b29 05        		.uleb128 0x5
 11025 0b2a 02        		.byte	0x2
 11026 0b2b 0000 0000 		.long	.LM335
 11027 0b2f 18        		.byte	0x18
 11028 0b30 00        		.byte	0x0
GAS LISTING C:\DOCUME~1\KEUNSO~1\LOCALS~1\Temp/ccIyMOV1.s 			page 196


 11029 0b31 05        		.uleb128 0x5
 11030 0b32 02        		.byte	0x2
 11031 0b33 0000 0000 		.long	.LM336
 11032 0b37 15        		.byte	0x15
 11033 0b38 00        		.byte	0x0
 11034 0b39 05        		.uleb128 0x5
 11035 0b3a 02        		.byte	0x2
 11036 0b3b 0000 0000 		.long	.LM337
 11037 0b3f 15        		.byte	0x15
 11038 0b40 00        		.byte	0x0
 11039 0b41 05        		.uleb128 0x5
 11040 0b42 02        		.byte	0x2
 11041 0b43 0000 0000 		.long	.LM338
 11042 0b47 1A        		.byte	0x1a
 11043 0b48 00        		.byte	0x0
 11044 0b49 05        		.uleb128 0x5
 11045 0b4a 02        		.byte	0x2
 11046 0b4b 0000 0000 		.long	.LM339
 11047 0b4f 03        		.byte	0x3
 11048 0b50 73        		.sleb128 -13
 11049 0b51 01        		.byte	0x1
 11050 0b52 00        		.byte	0x0
 11051 0b53 05        		.uleb128 0x5
 11052 0b54 02        		.byte	0x2
 11053 0b55 0000 0000 		.long	.LM340
 11054 0b59 15        		.byte	0x15
 11055 0b5a 00        		.byte	0x0
 11056 0b5b 05        		.uleb128 0x5
 11057 0b5c 02        		.byte	0x2
 11058 0b5d 0000 0000 		.long	.LM341
 11059 0b61 16        		.byte	0x16
 11060 0b62 00        		.byte	0x0
 11061 0b63 05        		.uleb128 0x5
 11062 0b64 02        		.byte	0x2
 11063 0b65 0000 0000 		.long	.LM342
 11064 0b69 15        		.byte	0x15
 11065 0b6a 00        		.byte	0x0
 11066 0b6b 05        		.uleb128 0x5
 11067 0b6c 02        		.byte	0x2
 11068 0b6d 0000 0000 		.long	.LM343
 11069 0b71 15        		.byte	0x15
 11070 0b72 00        		.byte	0x0
 11071 0b73 05        		.uleb128 0x5
 11072 0b74 02        		.byte	0x2
 11073 0b75 0000 0000 		.long	.LM344
 11074 0b79 15        		.byte	0x15
 11075 0b7a 00        		.byte	0x0
 11076 0b7b 05        		.uleb128 0x5
 11077 0b7c 02        		.byte	0x2
 11078 0b7d 0000 0000 		.long	.LM345
 11079 0b81 15        		.byte	0x15
 11080 0b82 00        		.byte	0x0
 11081 0b83 05        		.uleb128 0x5
 11082 0b84 02        		.byte	0x2
 11083 0b85 0000 0000 		.long	.LM346
 11084 0b89 12        		.byte	0x12
 11085 0b8a 00        		.byte	0x0
GAS LISTING C:\DOCUME~1\KEUNSO~1\LOCALS~1\Temp/ccIyMOV1.s 			page 197


 11086 0b8b 05        		.uleb128 0x5
 11087 0b8c 02        		.byte	0x2
 11088 0b8d 0000 0000 		.long	.LM347
 11089 0b91 15        		.byte	0x15
 11090 0b92 00        		.byte	0x0
 11091 0b93 05        		.uleb128 0x5
 11092 0b94 02        		.byte	0x2
 11093 0b95 0000 0000 		.long	.LM348
 11094 0b99 15        		.byte	0x15
 11095 0b9a 00        		.byte	0x0
 11096 0b9b 05        		.uleb128 0x5
 11097 0b9c 02        		.byte	0x2
 11098 0b9d 0000 0000 		.long	.LM349
 11099 0ba1 12        		.byte	0x12
 11100 0ba2 00        		.byte	0x0
 11101 0ba3 05        		.uleb128 0x5
 11102 0ba4 02        		.byte	0x2
 11103 0ba5 0000 0000 		.long	.LM350
 11104 0ba9 15        		.byte	0x15
 11105 0baa 00        		.byte	0x0
 11106 0bab 05        		.uleb128 0x5
 11107 0bac 02        		.byte	0x2
 11108 0bad 0000 0000 		.long	.LM351
 11109 0bb1 15        		.byte	0x15
 11110 0bb2 00        		.byte	0x0
 11111 0bb3 05        		.uleb128 0x5
 11112 0bb4 02        		.byte	0x2
 11113 0bb5 0000 0000 		.long	.LM352
 11114 0bb9 12        		.byte	0x12
 11115 0bba 00        		.byte	0x0
 11116 0bbb 05        		.uleb128 0x5
 11117 0bbc 02        		.byte	0x2
 11118 0bbd 0000 0000 		.long	.LM353
 11119 0bc1 15        		.byte	0x15
 11120 0bc2 00        		.byte	0x0
 11121 0bc3 05        		.uleb128 0x5
 11122 0bc4 02        		.byte	0x2
 11123 0bc5 0000 0000 		.long	.LM354
 11124 0bc9 15        		.byte	0x15
 11125 0bca 00        		.byte	0x0
 11126 0bcb 05        		.uleb128 0x5
 11127 0bcc 02        		.byte	0x2
 11128 0bcd 0000 0000 		.long	.LM355
 11129 0bd1 12        		.byte	0x12
 11130 0bd2 00        		.byte	0x0
 11131 0bd3 05        		.uleb128 0x5
 11132 0bd4 02        		.byte	0x2
 11133 0bd5 0000 0000 		.long	.LM356
 11134 0bd9 15        		.byte	0x15
 11135 0bda 00        		.byte	0x0
 11136 0bdb 05        		.uleb128 0x5
 11137 0bdc 02        		.byte	0x2
 11138 0bdd 0000 0000 		.long	.LM357
 11139 0be1 15        		.byte	0x15
 11140 0be2 00        		.byte	0x0
 11141 0be3 05        		.uleb128 0x5
 11142 0be4 02        		.byte	0x2
GAS LISTING C:\DOCUME~1\KEUNSO~1\LOCALS~1\Temp/ccIyMOV1.s 			page 198


 11143 0be5 0000 0000 		.long	.LM358
 11144 0be9 1A        		.byte	0x1a
 11145 0bea 00        		.byte	0x0
 11146 0beb 05        		.uleb128 0x5
 11147 0bec 02        		.byte	0x2
 11148 0bed 0000 0000 		.long	.LM359
 11149 0bf1 03        		.byte	0x3
 11150 0bf2 73        		.sleb128 -13
 11151 0bf3 01        		.byte	0x1
 11152 0bf4 00        		.byte	0x0
 11153 0bf5 05        		.uleb128 0x5
 11154 0bf6 02        		.byte	0x2
 11155 0bf7 0000 0000 		.long	.LM360
 11156 0bfb 15        		.byte	0x15
 11157 0bfc 00        		.byte	0x0
 11158 0bfd 05        		.uleb128 0x5
 11159 0bfe 02        		.byte	0x2
 11160 0bff 0000 0000 		.long	.LM361
 11161 0c03 18        		.byte	0x18
 11162 0c04 00        		.byte	0x0
 11163 0c05 05        		.uleb128 0x5
 11164 0c06 02        		.byte	0x2
 11165 0c07 0000 0000 		.long	.LM362
 11166 0c0b 15        		.byte	0x15
 11167 0c0c 00        		.byte	0x0
 11168 0c0d 05        		.uleb128 0x5
 11169 0c0e 02        		.byte	0x2
 11170 0c0f 0000 0000 		.long	.LM363
 11171 0c13 15        		.byte	0x15
 11172 0c14 00        		.byte	0x0
 11173 0c15 05        		.uleb128 0x5
 11174 0c16 02        		.byte	0x2
 11175 0c17 0000 0000 		.long	.LM364
 11176 0c1b 1A        		.byte	0x1a
 11177 0c1c 00        		.byte	0x0
 11178 0c1d 05        		.uleb128 0x5
 11179 0c1e 02        		.byte	0x2
 11180 0c1f 0000 0000 		.long	.LM365
 11181 0c23 03        		.byte	0x3
 11182 0c24 73        		.sleb128 -13
 11183 0c25 01        		.byte	0x1
 11184 0c26 00        		.byte	0x0
 11185 0c27 05        		.uleb128 0x5
 11186 0c28 02        		.byte	0x2
 11187 0c29 0000 0000 		.long	.LM366
 11188 0c2d 15        		.byte	0x15
 11189 0c2e 00        		.byte	0x0
 11190 0c2f 05        		.uleb128 0x5
 11191 0c30 02        		.byte	0x2
 11192 0c31 0000 0000 		.long	.LM367
 11193 0c35 18        		.byte	0x18
 11194 0c36 00        		.byte	0x0
 11195 0c37 05        		.uleb128 0x5
 11196 0c38 02        		.byte	0x2
 11197 0c39 0000 0000 		.long	.LM368
 11198 0c3d 15        		.byte	0x15
 11199 0c3e 00        		.byte	0x0
GAS LISTING C:\DOCUME~1\KEUNSO~1\LOCALS~1\Temp/ccIyMOV1.s 			page 199


 11200 0c3f 05        		.uleb128 0x5
 11201 0c40 02        		.byte	0x2
 11202 0c41 0000 0000 		.long	.LM369
 11203 0c45 15        		.byte	0x15
 11204 0c46 00        		.byte	0x0
 11205 0c47 05        		.uleb128 0x5
 11206 0c48 02        		.byte	0x2
 11207 0c49 0000 0000 		.long	.LM370
 11208 0c4d 0E        		.byte	0xe
 11209 0c4e 00        		.byte	0x0
 11210 0c4f 05        		.uleb128 0x5
 11211 0c50 02        		.byte	0x2
 11212 0c51 0000 0000 		.long	.LM371
 11213 0c55 6E        		.byte	0x6e
 11214 0c56 00        		.byte	0x0
 11215 0c57 05        		.uleb128 0x5
 11216 0c58 02        		.byte	0x2
 11217 0c59 0000 0000 		.long	.LM372
 11218 0c5d 17        		.byte	0x17
 11219 0c5e 00        		.byte	0x0
 11220 0c5f 05        		.uleb128 0x5
 11221 0c60 02        		.byte	0x2
 11222 0c61 0000 0000 		.long	.LM373
 11223 0c65 03        		.byte	0x3
 11224 0c66 A27F      		.sleb128 -94
 11225 0c68 01        		.byte	0x1
 11226 0c69 00        		.byte	0x0
 11227 0c6a 05        		.uleb128 0x5
 11228 0c6b 02        		.byte	0x2
 11229 0c6c 0000 0000 		.long	.LM374
 11230 0c70 17        		.byte	0x17
 11231 0c71 00        		.byte	0x0
 11232 0c72 05        		.uleb128 0x5
 11233 0c73 02        		.byte	0x2
 11234 0c74 0000 0000 		.long	.LM375
 11235 0c78 15        		.byte	0x15
 11236 0c79 00        		.byte	0x0
 11237 0c7a 05        		.uleb128 0x5
 11238 0c7b 02        		.byte	0x2
 11239 0c7c 0000 0000 		.long	.LM376
 11240 0c80 19        		.byte	0x19
 11241 0c81 00        		.byte	0x0
 11242 0c82 05        		.uleb128 0x5
 11243 0c83 02        		.byte	0x2
 11244 0c84 0000 0000 		.long	.LM377
 11245 0c88 15        		.byte	0x15
 11246 0c89 00        		.byte	0x0
 11247 0c8a 05        		.uleb128 0x5
 11248 0c8b 02        		.byte	0x2
 11249 0c8c 0000 0000 		.long	.LM378
 11250 0c90 15        		.byte	0x15
 11251 0c91 00        		.byte	0x0
 11252 0c92 05        		.uleb128 0x5
 11253 0c93 02        		.byte	0x2
 11254 0c94 0000 0000 		.long	.LM379
 11255 0c98 16        		.byte	0x16
 11256 0c99 00        		.byte	0x0
GAS LISTING C:\DOCUME~1\KEUNSO~1\LOCALS~1\Temp/ccIyMOV1.s 			page 200


 11257 0c9a 05        		.uleb128 0x5
 11258 0c9b 02        		.byte	0x2
 11259 0c9c 0000 0000 		.long	.LM380
 11260 0ca0 03        		.byte	0x3
 11261 0ca1 73        		.sleb128 -13
 11262 0ca2 01        		.byte	0x1
 11263 0ca3 00        		.byte	0x0
 11264 0ca4 05        		.uleb128 0x5
 11265 0ca5 02        		.byte	0x2
 11266 0ca6 0000 0000 		.long	.LM381
 11267 0caa 17        		.byte	0x17
 11268 0cab 00        		.byte	0x0
 11269 0cac 05        		.uleb128 0x5
 11270 0cad 02        		.byte	0x2
 11271 0cae 0000 0000 		.long	.LM382
 11272 0cb2 15        		.byte	0x15
 11273 0cb3 00        		.byte	0x0
 11274 0cb4 05        		.uleb128 0x5
 11275 0cb5 02        		.byte	0x2
 11276 0cb6 0000 0000 		.long	.LM383
 11277 0cba 19        		.byte	0x19
 11278 0cbb 00        		.byte	0x0
 11279 0cbc 05        		.uleb128 0x5
 11280 0cbd 02        		.byte	0x2
 11281 0cbe 0000 0000 		.long	.LM384
 11282 0cc2 15        		.byte	0x15
 11283 0cc3 00        		.byte	0x0
 11284 0cc4 05        		.uleb128 0x5
 11285 0cc5 02        		.byte	0x2
 11286 0cc6 0000 0000 		.long	.LM385
 11287 0cca 15        		.byte	0x15
 11288 0ccb 00        		.byte	0x0
 11289 0ccc 05        		.uleb128 0x5
 11290 0ccd 02        		.byte	0x2
 11291 0cce 0000 0000 		.long	.LM386
 11292 0cd2 16        		.byte	0x16
 11293 0cd3 00        		.byte	0x0
 11294 0cd4 05        		.uleb128 0x5
 11295 0cd5 02        		.byte	0x2
 11296 0cd6 0000 0000 		.long	.LM387
 11297 0cda 53        		.byte	0x53
 11298 0cdb 00        		.byte	0x0
 11299 0cdc 05        		.uleb128 0x5
 11300 0cdd 02        		.byte	0x2
 11301 0cde 0000 0000 		.long	.LM388
 11302 0ce2 03        		.byte	0x3
 11303 0ce3 B47F      		.sleb128 -76
 11304 0ce5 01        		.byte	0x1
 11305 0ce6 00        		.byte	0x0
 11306 0ce7 05        		.uleb128 0x5
 11307 0ce8 02        		.byte	0x2
 11308 0ce9 0000 0000 		.long	.LM389
 11309 0ced 17        		.byte	0x17
 11310 0cee 00        		.byte	0x0
 11311 0cef 05        		.uleb128 0x5
 11312 0cf0 02        		.byte	0x2
 11313 0cf1 0000 0000 		.long	.LM390
GAS LISTING C:\DOCUME~1\KEUNSO~1\LOCALS~1\Temp/ccIyMOV1.s 			page 201


 11314 0cf5 15        		.byte	0x15
 11315 0cf6 00        		.byte	0x0
 11316 0cf7 05        		.uleb128 0x5
 11317 0cf8 02        		.byte	0x2
 11318 0cf9 0000 0000 		.long	.LM391
 11319 0cfd 19        		.byte	0x19
 11320 0cfe 00        		.byte	0x0
 11321 0cff 05        		.uleb128 0x5
 11322 0d00 02        		.byte	0x2
 11323 0d01 0000 0000 		.long	.LM392
 11324 0d05 15        		.byte	0x15
 11325 0d06 00        		.byte	0x0
 11326 0d07 05        		.uleb128 0x5
 11327 0d08 02        		.byte	0x2
 11328 0d09 0000 0000 		.long	.LM393
 11329 0d0d 15        		.byte	0x15
 11330 0d0e 00        		.byte	0x0
 11331 0d0f 05        		.uleb128 0x5
 11332 0d10 02        		.byte	0x2
 11333 0d11 0000 0000 		.long	.LM394
 11334 0d15 16        		.byte	0x16
 11335 0d16 00        		.byte	0x0
 11336 0d17 05        		.uleb128 0x5
 11337 0d18 02        		.byte	0x2
 11338 0d19 0000 0000 		.long	.LM395
 11339 0d1d 55        		.byte	0x55
 11340 0d1e 00        		.byte	0x0
 11341 0d1f 05        		.uleb128 0x5
 11342 0d20 02        		.byte	0x2
 11343 0d21 0000 0000 		.long	.LM396
 11344 0d25 03        		.byte	0x3
 11345 0d26 B27F      		.sleb128 -78
 11346 0d28 01        		.byte	0x1
 11347 0d29 00        		.byte	0x0
 11348 0d2a 05        		.uleb128 0x5
 11349 0d2b 02        		.byte	0x2
 11350 0d2c 0000 0000 		.long	.LM397
 11351 0d30 17        		.byte	0x17
 11352 0d31 00        		.byte	0x0
 11353 0d32 05        		.uleb128 0x5
 11354 0d33 02        		.byte	0x2
 11355 0d34 0000 0000 		.long	.LM398
 11356 0d38 15        		.byte	0x15
 11357 0d39 00        		.byte	0x0
 11358 0d3a 05        		.uleb128 0x5
 11359 0d3b 02        		.byte	0x2
 11360 0d3c 0000 0000 		.long	.LM399
 11361 0d40 19        		.byte	0x19
 11362 0d41 00        		.byte	0x0
 11363 0d42 05        		.uleb128 0x5
 11364 0d43 02        		.byte	0x2
 11365 0d44 0000 0000 		.long	.LM400
 11366 0d48 15        		.byte	0x15
 11367 0d49 00        		.byte	0x0
 11368 0d4a 05        		.uleb128 0x5
 11369 0d4b 02        		.byte	0x2
 11370 0d4c 0000 0000 		.long	.LM401
GAS LISTING C:\DOCUME~1\KEUNSO~1\LOCALS~1\Temp/ccIyMOV1.s 			page 202


 11371 0d50 15        		.byte	0x15
 11372 0d51 00        		.byte	0x0
 11373 0d52 05        		.uleb128 0x5
 11374 0d53 02        		.byte	0x2
 11375 0d54 0000 0000 		.long	.LM402
 11376 0d58 16        		.byte	0x16
 11377 0d59 00        		.byte	0x0
 11378 0d5a 05        		.uleb128 0x5
 11379 0d5b 02        		.byte	0x2
 11380 0d5c 0000 0000 		.long	.LM403
 11381 0d60 03        		.byte	0x3
 11382 0d61 73        		.sleb128 -13
 11383 0d62 01        		.byte	0x1
 11384 0d63 00        		.byte	0x0
 11385 0d64 05        		.uleb128 0x5
 11386 0d65 02        		.byte	0x2
 11387 0d66 0000 0000 		.long	.LM404
 11388 0d6a 17        		.byte	0x17
 11389 0d6b 00        		.byte	0x0
 11390 0d6c 05        		.uleb128 0x5
 11391 0d6d 02        		.byte	0x2
 11392 0d6e 0000 0000 		.long	.LM405
 11393 0d72 15        		.byte	0x15
 11394 0d73 00        		.byte	0x0
 11395 0d74 05        		.uleb128 0x5
 11396 0d75 02        		.byte	0x2
 11397 0d76 0000 0000 		.long	.LM406
 11398 0d7a 19        		.byte	0x19
 11399 0d7b 00        		.byte	0x0
 11400 0d7c 05        		.uleb128 0x5
 11401 0d7d 02        		.byte	0x2
 11402 0d7e 0000 0000 		.long	.LM407
 11403 0d82 15        		.byte	0x15
 11404 0d83 00        		.byte	0x0
 11405 0d84 05        		.uleb128 0x5
 11406 0d85 02        		.byte	0x2
 11407 0d86 0000 0000 		.long	.LM408
 11408 0d8a 15        		.byte	0x15
 11409 0d8b 00        		.byte	0x0
 11410 0d8c 05        		.uleb128 0x5
 11411 0d8d 02        		.byte	0x2
 11412 0d8e 0000 0000 		.long	.LM409
 11413 0d92 16        		.byte	0x16
 11414 0d93 00        		.byte	0x0
 11415 0d94 05        		.uleb128 0x5
 11416 0d95 02        		.byte	0x2
 11417 0d96 0000 0000 		.long	.LM410
 11418 0d9a 03        		.byte	0x3
 11419 0d9b 73        		.sleb128 -13
 11420 0d9c 01        		.byte	0x1
 11421 0d9d 00        		.byte	0x0
 11422 0d9e 05        		.uleb128 0x5
 11423 0d9f 02        		.byte	0x2
 11424 0da0 0000 0000 		.long	.LM411
 11425 0da4 17        		.byte	0x17
 11426 0da5 00        		.byte	0x0
 11427 0da6 05        		.uleb128 0x5
GAS LISTING C:\DOCUME~1\KEUNSO~1\LOCALS~1\Temp/ccIyMOV1.s 			page 203


 11428 0da7 02        		.byte	0x2
 11429 0da8 0000 0000 		.long	.LM412
 11430 0dac 15        		.byte	0x15
 11431 0dad 00        		.byte	0x0
 11432 0dae 05        		.uleb128 0x5
 11433 0daf 02        		.byte	0x2
 11434 0db0 0000 0000 		.long	.LM413
 11435 0db4 19        		.byte	0x19
 11436 0db5 00        		.byte	0x0
 11437 0db6 05        		.uleb128 0x5
 11438 0db7 02        		.byte	0x2
 11439 0db8 0000 0000 		.long	.LM414
 11440 0dbc 15        		.byte	0x15
 11441 0dbd 00        		.byte	0x0
 11442 0dbe 05        		.uleb128 0x5
 11443 0dbf 02        		.byte	0x2
 11444 0dc0 0000 0000 		.long	.LM415
 11445 0dc4 15        		.byte	0x15
 11446 0dc5 00        		.byte	0x0
 11447 0dc6 05        		.uleb128 0x5
 11448 0dc7 02        		.byte	0x2
 11449 0dc8 0000 0000 		.long	.LM416
 11450 0dcc 16        		.byte	0x16
 11451 0dcd 00        		.byte	0x0
 11452 0dce 05        		.uleb128 0x5
 11453 0dcf 02        		.byte	0x2
 11454 0dd0 0000 0000 		.long	.LM417
 11455 0dd4 69        		.byte	0x69
 11456 0dd5 00        		.byte	0x0
 11457 0dd6 05        		.uleb128 0x5
 11458 0dd7 02        		.byte	0x2
 11459 0dd8 0000 0000 		.long	.LM418
 11460 0ddc 03        		.byte	0x3
 11461 0ddd 9E7F      		.sleb128 -98
 11462 0ddf 01        		.byte	0x1
 11463 0de0 00        		.byte	0x0
 11464 0de1 05        		.uleb128 0x5
 11465 0de2 02        		.byte	0x2
 11466 0de3 0000 0000 		.long	.LM419
 11467 0de7 17        		.byte	0x17
 11468 0de8 00        		.byte	0x0
 11469 0de9 05        		.uleb128 0x5
 11470 0dea 02        		.byte	0x2
 11471 0deb 0000 0000 		.long	.LM420
 11472 0def 15        		.byte	0x15
 11473 0df0 00        		.byte	0x0
 11474 0df1 05        		.uleb128 0x5
 11475 0df2 02        		.byte	0x2
 11476 0df3 0000 0000 		.long	.LM421
 11477 0df7 19        		.byte	0x19
 11478 0df8 00        		.byte	0x0
 11479 0df9 05        		.uleb128 0x5
 11480 0dfa 02        		.byte	0x2
 11481 0dfb 0000 0000 		.long	.LM422
 11482 0dff 15        		.byte	0x15
 11483 0e00 00        		.byte	0x0
 11484 0e01 05        		.uleb128 0x5
GAS LISTING C:\DOCUME~1\KEUNSO~1\LOCALS~1\Temp/ccIyMOV1.s 			page 204


 11485 0e02 02        		.byte	0x2
 11486 0e03 0000 0000 		.long	.LM423
 11487 0e07 15        		.byte	0x15
 11488 0e08 00        		.byte	0x0
 11489 0e09 05        		.uleb128 0x5
 11490 0e0a 02        		.byte	0x2
 11491 0e0b 0000 0000 		.long	.LM424
 11492 0e0f 16        		.byte	0x16
 11493 0e10 00        		.byte	0x0
 11494 0e11 05        		.uleb128 0x5
 11495 0e12 02        		.byte	0x2
 11496 0e13 0000 0000 		.long	.LM425
 11497 0e17 6B        		.byte	0x6b
 11498 0e18 00        		.byte	0x0
 11499 0e19 05        		.uleb128 0x5
 11500 0e1a 02        		.byte	0x2
 11501 0e1b 0000 0000 		.long	.LM426
 11502 0e1f 03        		.byte	0x3
 11503 0e20 9C7F      		.sleb128 -100
 11504 0e22 01        		.byte	0x1
 11505 0e23 00        		.byte	0x0
 11506 0e24 05        		.uleb128 0x5
 11507 0e25 02        		.byte	0x2
 11508 0e26 0000 0000 		.long	.LM427
 11509 0e2a 17        		.byte	0x17
 11510 0e2b 00        		.byte	0x0
 11511 0e2c 05        		.uleb128 0x5
 11512 0e2d 02        		.byte	0x2
 11513 0e2e 0000 0000 		.long	.LM428
 11514 0e32 15        		.byte	0x15
 11515 0e33 00        		.byte	0x0
 11516 0e34 05        		.uleb128 0x5
 11517 0e35 02        		.byte	0x2
 11518 0e36 0000 0000 		.long	.LM429
 11519 0e3a 19        		.byte	0x19
 11520 0e3b 00        		.byte	0x0
 11521 0e3c 05        		.uleb128 0x5
 11522 0e3d 02        		.byte	0x2
 11523 0e3e 0000 0000 		.long	.LM430
 11524 0e42 15        		.byte	0x15
 11525 0e43 00        		.byte	0x0
 11526 0e44 05        		.uleb128 0x5
 11527 0e45 02        		.byte	0x2
 11528 0e46 0000 0000 		.long	.LM431
 11529 0e4a 15        		.byte	0x15
 11530 0e4b 00        		.byte	0x0
 11531 0e4c 05        		.uleb128 0x5
 11532 0e4d 02        		.byte	0x2
 11533 0e4e 0000 0000 		.long	.LM432
 11534 0e52 16        		.byte	0x16
 11535 0e53 00        		.byte	0x0
 11536 0e54 05        		.uleb128 0x5
 11537 0e55 02        		.byte	0x2
 11538 0e56 0000 0000 		.long	.LM433
 11539 0e5a 03        		.byte	0x3
 11540 0e5b 73        		.sleb128 -13
 11541 0e5c 01        		.byte	0x1
GAS LISTING C:\DOCUME~1\KEUNSO~1\LOCALS~1\Temp/ccIyMOV1.s 			page 205


 11542 0e5d 00        		.byte	0x0
 11543 0e5e 05        		.uleb128 0x5
 11544 0e5f 02        		.byte	0x2
 11545 0e60 0000 0000 		.long	.LM434
 11546 0e64 17        		.byte	0x17
 11547 0e65 00        		.byte	0x0
 11548 0e66 05        		.uleb128 0x5
 11549 0e67 02        		.byte	0x2
 11550 0e68 0000 0000 		.long	.LM435
 11551 0e6c 15        		.byte	0x15
 11552 0e6d 00        		.byte	0x0
 11553 0e6e 05        		.uleb128 0x5
 11554 0e6f 02        		.byte	0x2
 11555 0e70 0000 0000 		.long	.LM436
 11556 0e74 19        		.byte	0x19
 11557 0e75 00        		.byte	0x0
 11558 0e76 05        		.uleb128 0x5
 11559 0e77 02        		.byte	0x2
 11560 0e78 0000 0000 		.long	.LM437
 11561 0e7c 15        		.byte	0x15
 11562 0e7d 00        		.byte	0x0
 11563 0e7e 05        		.uleb128 0x5
 11564 0e7f 02        		.byte	0x2
 11565 0e80 0000 0000 		.long	.LM438
 11566 0e84 15        		.byte	0x15
 11567 0e85 00        		.byte	0x0
 11568 0e86 05        		.uleb128 0x5
 11569 0e87 02        		.byte	0x2
 11570 0e88 0000 0000 		.long	.LM439
 11571 0e8c 16        		.byte	0x16
 11572 0e8d 00        		.byte	0x0
 11573 0e8e 05        		.uleb128 0x5
 11574 0e8f 02        		.byte	0x2
 11575 0e90 0000 0000 		.long	.LM440
 11576 0e94 6E        		.byte	0x6e
 11577 0e95 00        		.byte	0x0
 11578 0e96 05        		.uleb128 0x5
 11579 0e97 02        		.byte	0x2
 11580 0e98 0000 0000 		.long	.LM441
 11581 0e9c 15        		.byte	0x15
 11582 0e9d 00        		.byte	0x0
 11583 0e9e 05        		.uleb128 0x5
 11584 0e9f 02        		.byte	0x2
 11585 0ea0 0000 0000 		.long	.LM442
 11586 0ea4 03        		.byte	0x3
 11587 0ea5 9D7F      		.sleb128 -99
 11588 0ea7 01        		.byte	0x1
 11589 0ea8 00        		.byte	0x0
 11590 0ea9 05        		.uleb128 0x5
 11591 0eaa 02        		.byte	0x2
 11592 0eab 0000 0000 		.long	.LM443
 11593 0eaf 15        		.byte	0x15
 11594 0eb0 00        		.byte	0x0
 11595 0eb1 05        		.uleb128 0x5
 11596 0eb2 02        		.byte	0x2
 11597 0eb3 0000 0000 		.long	.LM444
 11598 0eb7 15        		.byte	0x15
GAS LISTING C:\DOCUME~1\KEUNSO~1\LOCALS~1\Temp/ccIyMOV1.s 			page 206


 11599 0eb8 00        		.byte	0x0
 11600 0eb9 05        		.uleb128 0x5
 11601 0eba 02        		.byte	0x2
 11602 0ebb 0000 0000 		.long	.LM445
 11603 0ebf 1A        		.byte	0x1a
 11604 0ec0 00        		.byte	0x0
 11605 0ec1 05        		.uleb128 0x5
 11606 0ec2 02        		.byte	0x2
 11607 0ec3 0000 0000 		.long	.LM446
 11608 0ec7 03        		.byte	0x3
 11609 0ec8 73        		.sleb128 -13
 11610 0ec9 01        		.byte	0x1
 11611 0eca 00        		.byte	0x0
 11612 0ecb 05        		.uleb128 0x5
 11613 0ecc 02        		.byte	0x2
 11614 0ecd 0000 0000 		.long	.LM447
 11615 0ed1 15        		.byte	0x15
 11616 0ed2 00        		.byte	0x0
 11617 0ed3 05        		.uleb128 0x5
 11618 0ed4 02        		.byte	0x2
 11619 0ed5 0000 0000 		.long	.LM448
 11620 0ed9 16        		.byte	0x16
 11621 0eda 00        		.byte	0x0
 11622 0edb 05        		.uleb128 0x5
 11623 0edc 02        		.byte	0x2
 11624 0edd 0000 0000 		.long	.LM449
 11625 0ee1 15        		.byte	0x15
 11626 0ee2 00        		.byte	0x0
 11627 0ee3 05        		.uleb128 0x5
 11628 0ee4 02        		.byte	0x2
 11629 0ee5 0000 0000 		.long	.LM450
 11630 0ee9 15        		.byte	0x15
 11631 0eea 00        		.byte	0x0
 11632 0eeb 05        		.uleb128 0x5
 11633 0eec 02        		.byte	0x2
 11634 0eed 0000 0000 		.long	.LM451
 11635 0ef1 15        		.byte	0x15
 11636 0ef2 00        		.byte	0x0
 11637 0ef3 05        		.uleb128 0x5
 11638 0ef4 02        		.byte	0x2
 11639 0ef5 0000 0000 		.long	.LM452
 11640 0ef9 15        		.byte	0x15
 11641 0efa 00        		.byte	0x0
 11642 0efb 05        		.uleb128 0x5
 11643 0efc 02        		.byte	0x2
 11644 0efd 0000 0000 		.long	.LM453
 11645 0f01 12        		.byte	0x12
 11646 0f02 00        		.byte	0x0
 11647 0f03 05        		.uleb128 0x5
 11648 0f04 02        		.byte	0x2
 11649 0f05 0000 0000 		.long	.LM454
 11650 0f09 15        		.byte	0x15
 11651 0f0a 00        		.byte	0x0
 11652 0f0b 05        		.uleb128 0x5
 11653 0f0c 02        		.byte	0x2
 11654 0f0d 0000 0000 		.long	.LM455
 11655 0f11 15        		.byte	0x15
GAS LISTING C:\DOCUME~1\KEUNSO~1\LOCALS~1\Temp/ccIyMOV1.s 			page 207


 11656 0f12 00        		.byte	0x0
 11657 0f13 05        		.uleb128 0x5
 11658 0f14 02        		.byte	0x2
 11659 0f15 0000 0000 		.long	.LM456
 11660 0f19 12        		.byte	0x12
 11661 0f1a 00        		.byte	0x0
 11662 0f1b 05        		.uleb128 0x5
 11663 0f1c 02        		.byte	0x2
 11664 0f1d 0000 0000 		.long	.LM457
 11665 0f21 15        		.byte	0x15
 11666 0f22 00        		.byte	0x0
 11667 0f23 05        		.uleb128 0x5
 11668 0f24 02        		.byte	0x2
 11669 0f25 0000 0000 		.long	.LM458
 11670 0f29 15        		.byte	0x15
 11671 0f2a 00        		.byte	0x0
 11672 0f2b 05        		.uleb128 0x5
 11673 0f2c 02        		.byte	0x2
 11674 0f2d 0000 0000 		.long	.LM459
 11675 0f31 1A        		.byte	0x1a
 11676 0f32 00        		.byte	0x0
 11677 0f33 05        		.uleb128 0x5
 11678 0f34 02        		.byte	0x2
 11679 0f35 0000 0000 		.long	.LM460
 11680 0f39 03        		.byte	0x3
 11681 0f3a 73        		.sleb128 -13
 11682 0f3b 01        		.byte	0x1
 11683 0f3c 00        		.byte	0x0
 11684 0f3d 05        		.uleb128 0x5
 11685 0f3e 02        		.byte	0x2
 11686 0f3f 0000 0000 		.long	.LM461
 11687 0f43 15        		.byte	0x15
 11688 0f44 00        		.byte	0x0
 11689 0f45 05        		.uleb128 0x5
 11690 0f46 02        		.byte	0x2
 11691 0f47 0000 0000 		.long	.LM462
 11692 0f4b 18        		.byte	0x18
 11693 0f4c 00        		.byte	0x0
 11694 0f4d 05        		.uleb128 0x5
 11695 0f4e 02        		.byte	0x2
 11696 0f4f 0000 0000 		.long	.LM463
 11697 0f53 15        		.byte	0x15
 11698 0f54 00        		.byte	0x0
 11699 0f55 05        		.uleb128 0x5
 11700 0f56 02        		.byte	0x2
 11701 0f57 0000 0000 		.long	.LM464
 11702 0f5b 15        		.byte	0x15
 11703 0f5c 00        		.byte	0x0
 11704 0f5d 05        		.uleb128 0x5
 11705 0f5e 02        		.byte	0x2
 11706 0f5f 0000 0000 		.long	.LM465
 11707 0f63 12        		.byte	0x12
 11708 0f64 00        		.byte	0x0
 11709 0f65 05        		.uleb128 0x5
 11710 0f66 02        		.byte	0x2
 11711 0f67 0000 0000 		.long	.LM466
 11712 0f6b 15        		.byte	0x15
GAS LISTING C:\DOCUME~1\KEUNSO~1\LOCALS~1\Temp/ccIyMOV1.s 			page 208


 11713 0f6c 00        		.byte	0x0
 11714 0f6d 05        		.uleb128 0x5
 11715 0f6e 02        		.byte	0x2
 11716 0f6f 0000 0000 		.long	.LM467
 11717 0f73 15        		.byte	0x15
 11718 0f74 00        		.byte	0x0
 11719 0f75 05        		.uleb128 0x5
 11720 0f76 02        		.byte	0x2
 11721 0f77 0000 0000 		.long	.LM468
 11722 0f7b 12        		.byte	0x12
 11723 0f7c 00        		.byte	0x0
 11724 0f7d 05        		.uleb128 0x5
 11725 0f7e 02        		.byte	0x2
 11726 0f7f 0000 0000 		.long	.LM469
 11727 0f83 15        		.byte	0x15
 11728 0f84 00        		.byte	0x0
 11729 0f85 05        		.uleb128 0x5
 11730 0f86 02        		.byte	0x2
 11731 0f87 0000 0000 		.long	.LM470
 11732 0f8b 15        		.byte	0x15
 11733 0f8c 00        		.byte	0x0
 11734 0f8d 05        		.uleb128 0x5
 11735 0f8e 02        		.byte	0x2
 11736 0f8f 0000 0000 		.long	.LM471
 11737 0f93 1A        		.byte	0x1a
 11738 0f94 00        		.byte	0x0
 11739 0f95 05        		.uleb128 0x5
 11740 0f96 02        		.byte	0x2
 11741 0f97 0000 0000 		.long	.LM472
 11742 0f9b 03        		.byte	0x3
 11743 0f9c 73        		.sleb128 -13
 11744 0f9d 01        		.byte	0x1
 11745 0f9e 00        		.byte	0x0
 11746 0f9f 05        		.uleb128 0x5
 11747 0fa0 02        		.byte	0x2
 11748 0fa1 0000 0000 		.long	.LM473
 11749 0fa5 15        		.byte	0x15
 11750 0fa6 00        		.byte	0x0
 11751 0fa7 05        		.uleb128 0x5
 11752 0fa8 02        		.byte	0x2
 11753 0fa9 0000 0000 		.long	.LM474
 11754 0fad 18        		.byte	0x18
 11755 0fae 00        		.byte	0x0
 11756 0faf 05        		.uleb128 0x5
 11757 0fb0 02        		.byte	0x2
 11758 0fb1 0000 0000 		.long	.LM475
 11759 0fb5 15        		.byte	0x15
 11760 0fb6 00        		.byte	0x0
 11761 0fb7 05        		.uleb128 0x5
 11762 0fb8 02        		.byte	0x2
 11763 0fb9 0000 0000 		.long	.LM476
 11764 0fbd 15        		.byte	0x15
 11765 0fbe 00        		.byte	0x0
 11766 0fbf 05        		.uleb128 0x5
 11767 0fc0 02        		.byte	0x2
 11768 0fc1 0000 0000 		.long	.LM477
 11769 0fc5 1A        		.byte	0x1a
GAS LISTING C:\DOCUME~1\KEUNSO~1\LOCALS~1\Temp/ccIyMOV1.s 			page 209


 11770 0fc6 00        		.byte	0x0
 11771 0fc7 05        		.uleb128 0x5
 11772 0fc8 02        		.byte	0x2
 11773 0fc9 0000 0000 		.long	.LM478
 11774 0fcd 03        		.byte	0x3
 11775 0fce 73        		.sleb128 -13
 11776 0fcf 01        		.byte	0x1
 11777 0fd0 00        		.byte	0x0
 11778 0fd1 05        		.uleb128 0x5
 11779 0fd2 02        		.byte	0x2
 11780 0fd3 0000 0000 		.long	.LM479
 11781 0fd7 15        		.byte	0x15
 11782 0fd8 00        		.byte	0x0
 11783 0fd9 05        		.uleb128 0x5
 11784 0fda 02        		.byte	0x2
 11785 0fdb 0000 0000 		.long	.LM480
 11786 0fdf 18        		.byte	0x18
 11787 0fe0 00        		.byte	0x0
 11788 0fe1 05        		.uleb128 0x5
 11789 0fe2 02        		.byte	0x2
 11790 0fe3 0000 0000 		.long	.LM481
 11791 0fe7 15        		.byte	0x15
 11792 0fe8 00        		.byte	0x0
 11793 0fe9 05        		.uleb128 0x5
 11794 0fea 02        		.byte	0x2
 11795 0feb 0000 0000 		.long	.LM482
 11796 0fef 15        		.byte	0x15
 11797 0ff0 00        		.byte	0x0
 11798 0ff1 05        		.uleb128 0x5
 11799 0ff2 02        		.byte	0x2
 11800 0ff3 0000 0000 		.long	.LM483
 11801 0ff7 0E        		.byte	0xe
 11802 0ff8 00        		.byte	0x0
 11803 0ff9 05        		.uleb128 0x5
 11804 0ffa 02        		.byte	0x2
 11805 0ffb 0000 0000 		.long	.LM484
 11806 0fff 03        		.byte	0x3
 11807 1000 48        		.sleb128 -56
 11808 1001 01        		.byte	0x1
 11809 1002 00        		.byte	0x0
 11810 1003 05        		.uleb128 0x5
 11811 1004 02        		.byte	0x2
 11812 1005 0000 0000 		.long	.LM485
 11813 1009 54        		.byte	0x54
 11814 100a 00        		.byte	0x0
 11815 100b 05        		.uleb128 0x5
 11816 100c 02        		.byte	0x2
 11817 100d 0000 0000 		.long	.LM486
 11818 1011 15        		.byte	0x15
 11819 1012 00        		.byte	0x0
 11820 1013 05        		.uleb128 0x5
 11821 1014 02        		.byte	0x2
 11822 1015 0000 0000 		.long	.LM487
 11823 1019 13        		.byte	0x13
 11824 101a 00        		.byte	0x0
 11825 101b 05        		.uleb128 0x5
 11826 101c 02        		.byte	0x2
GAS LISTING C:\DOCUME~1\KEUNSO~1\LOCALS~1\Temp/ccIyMOV1.s 			page 210


 11827 101d 0000 0000 		.long	.LM488
 11828 1021 15        		.byte	0x15
 11829 1022 00        		.byte	0x0
 11830 1023 05        		.uleb128 0x5
 11831 1024 02        		.byte	0x2
 11832 1025 0000 0000 		.long	.LM489
 11833 1029 15        		.byte	0x15
 11834 102a 00        		.byte	0x0
 11835 102b 05        		.uleb128 0x5
 11836 102c 02        		.byte	0x2
 11837 102d 0000 0000 		.long	.LM490
 11838 1031 16        		.byte	0x16
 11839 1032 00        		.byte	0x0
 11840 1033 05        		.uleb128 0x5
 11841 1034 02        		.byte	0x2
 11842 1035 0000 0000 		.long	.LM491
 11843 1039 03        		.byte	0x3
 11844 103a 73        		.sleb128 -13
 11845 103b 01        		.byte	0x1
 11846 103c 00        		.byte	0x0
 11847 103d 05        		.uleb128 0x5
 11848 103e 02        		.byte	0x2
 11849 103f 0000 0000 		.long	.LM492
 11850 1043 17        		.byte	0x17
 11851 1044 00        		.byte	0x0
 11852 1045 05        		.uleb128 0x5
 11853 1046 02        		.byte	0x2
 11854 1047 0000 0000 		.long	.LM493
 11855 104b 15        		.byte	0x15
 11856 104c 00        		.byte	0x0
 11857 104d 05        		.uleb128 0x5
 11858 104e 02        		.byte	0x2
 11859 104f 0000 0000 		.long	.LM494
 11860 1053 19        		.byte	0x19
 11861 1054 00        		.byte	0x0
 11862 1055 05        		.uleb128 0x5
 11863 1056 02        		.byte	0x2
 11864 1057 0000 0000 		.long	.LM495
 11865 105b 15        		.byte	0x15
 11866 105c 00        		.byte	0x0
 11867 105d 05        		.uleb128 0x5
 11868 105e 02        		.byte	0x2
 11869 105f 0000 0000 		.long	.LM496
 11870 1063 15        		.byte	0x15
 11871 1064 00        		.byte	0x0
 11872 1065 05        		.uleb128 0x5
 11873 1066 02        		.byte	0x2
 11874 1067 0000 0000 		.long	.LM497
 11875 106b 16        		.byte	0x16
 11876 106c 00        		.byte	0x0
 11877 106d 05        		.uleb128 0x5
 11878 106e 02        		.byte	0x2
 11879 106f 0000 0000 		.long	.LM498
 11880 1073 53        		.byte	0x53
 11881 1074 00        		.byte	0x0
 11882 1075 05        		.uleb128 0x5
 11883 1076 02        		.byte	0x2
GAS LISTING C:\DOCUME~1\KEUNSO~1\LOCALS~1\Temp/ccIyMOV1.s 			page 211


 11884 1077 0000 0000 		.long	.LM499
 11885 107b 03        		.byte	0x3
 11886 107c B47F      		.sleb128 -76
 11887 107e 01        		.byte	0x1
 11888 107f 00        		.byte	0x0
 11889 1080 05        		.uleb128 0x5
 11890 1081 02        		.byte	0x2
 11891 1082 0000 0000 		.long	.LM500
 11892 1086 17        		.byte	0x17
 11893 1087 00        		.byte	0x0
 11894 1088 05        		.uleb128 0x5
 11895 1089 02        		.byte	0x2
 11896 108a 0000 0000 		.long	.LM501
 11897 108e 15        		.byte	0x15
 11898 108f 00        		.byte	0x0
 11899 1090 05        		.uleb128 0x5
 11900 1091 02        		.byte	0x2
 11901 1092 0000 0000 		.long	.LM502
 11902 1096 19        		.byte	0x19
 11903 1097 00        		.byte	0x0
 11904 1098 05        		.uleb128 0x5
 11905 1099 02        		.byte	0x2
 11906 109a 0000 0000 		.long	.LM503
 11907 109e 15        		.byte	0x15
 11908 109f 00        		.byte	0x0
 11909 10a0 05        		.uleb128 0x5
 11910 10a1 02        		.byte	0x2
 11911 10a2 0000 0000 		.long	.LM504
 11912 10a6 15        		.byte	0x15
 11913 10a7 00        		.byte	0x0
 11914 10a8 05        		.uleb128 0x5
 11915 10a9 02        		.byte	0x2
 11916 10aa 0000 0000 		.long	.LM505
 11917 10ae 16        		.byte	0x16
 11918 10af 00        		.byte	0x0
 11919 10b0 05        		.uleb128 0x5
 11920 10b1 02        		.byte	0x2
 11921 10b2 0000 0000 		.long	.LM506
 11922 10b6 55        		.byte	0x55
 11923 10b7 00        		.byte	0x0
 11924 10b8 05        		.uleb128 0x5
 11925 10b9 02        		.byte	0x2
 11926 10ba 0000 0000 		.long	.LM507
 11927 10be 03        		.byte	0x3
 11928 10bf B27F      		.sleb128 -78
 11929 10c1 01        		.byte	0x1
 11930 10c2 00        		.byte	0x0
 11931 10c3 05        		.uleb128 0x5
 11932 10c4 02        		.byte	0x2
 11933 10c5 0000 0000 		.long	.LM508
 11934 10c9 17        		.byte	0x17
 11935 10ca 00        		.byte	0x0
 11936 10cb 05        		.uleb128 0x5
 11937 10cc 02        		.byte	0x2
 11938 10cd 0000 0000 		.long	.LM509
 11939 10d1 15        		.byte	0x15
 11940 10d2 00        		.byte	0x0
GAS LISTING C:\DOCUME~1\KEUNSO~1\LOCALS~1\Temp/ccIyMOV1.s 			page 212


 11941 10d3 05        		.uleb128 0x5
 11942 10d4 02        		.byte	0x2
 11943 10d5 0000 0000 		.long	.LM510
 11944 10d9 19        		.byte	0x19
 11945 10da 00        		.byte	0x0
 11946 10db 05        		.uleb128 0x5
 11947 10dc 02        		.byte	0x2
 11948 10dd 0000 0000 		.long	.LM511
 11949 10e1 15        		.byte	0x15
 11950 10e2 00        		.byte	0x0
 11951 10e3 05        		.uleb128 0x5
 11952 10e4 02        		.byte	0x2
 11953 10e5 0000 0000 		.long	.LM512
 11954 10e9 15        		.byte	0x15
 11955 10ea 00        		.byte	0x0
 11956 10eb 05        		.uleb128 0x5
 11957 10ec 02        		.byte	0x2
 11958 10ed 0000 0000 		.long	.LM513
 11959 10f1 16        		.byte	0x16
 11960 10f2 00        		.byte	0x0
 11961 10f3 05        		.uleb128 0x5
 11962 10f4 02        		.byte	0x2
 11963 10f5 0000 0000 		.long	.LM514
 11964 10f9 03        		.byte	0x3
 11965 10fa 73        		.sleb128 -13
 11966 10fb 01        		.byte	0x1
 11967 10fc 00        		.byte	0x0
 11968 10fd 05        		.uleb128 0x5
 11969 10fe 02        		.byte	0x2
 11970 10ff 0000 0000 		.long	.LM515
 11971 1103 17        		.byte	0x17
 11972 1104 00        		.byte	0x0
 11973 1105 05        		.uleb128 0x5
 11974 1106 02        		.byte	0x2
 11975 1107 0000 0000 		.long	.LM516
 11976 110b 15        		.byte	0x15
 11977 110c 00        		.byte	0x0
 11978 110d 05        		.uleb128 0x5
 11979 110e 02        		.byte	0x2
 11980 110f 0000 0000 		.long	.LM517
 11981 1113 19        		.byte	0x19
 11982 1114 00        		.byte	0x0
 11983 1115 05        		.uleb128 0x5
 11984 1116 02        		.byte	0x2
 11985 1117 0000 0000 		.long	.LM518
 11986 111b 15        		.byte	0x15
 11987 111c 00        		.byte	0x0
 11988 111d 05        		.uleb128 0x5
 11989 111e 02        		.byte	0x2
 11990 111f 0000 0000 		.long	.LM519
 11991 1123 15        		.byte	0x15
 11992 1124 00        		.byte	0x0
 11993 1125 05        		.uleb128 0x5
 11994 1126 02        		.byte	0x2
 11995 1127 0000 0000 		.long	.LM520
 11996 112b 16        		.byte	0x16
 11997 112c 00        		.byte	0x0
GAS LISTING C:\DOCUME~1\KEUNSO~1\LOCALS~1\Temp/ccIyMOV1.s 			page 213


 11998 112d 05        		.uleb128 0x5
 11999 112e 02        		.byte	0x2
 12000 112f 0000 0000 		.long	.LM521
 12001 1133 03        		.byte	0x3
 12002 1134 73        		.sleb128 -13
 12003 1135 01        		.byte	0x1
 12004 1136 00        		.byte	0x0
 12005 1137 05        		.uleb128 0x5
 12006 1138 02        		.byte	0x2
 12007 1139 0000 0000 		.long	.LM522
 12008 113d 17        		.byte	0x17
 12009 113e 00        		.byte	0x0
 12010 113f 05        		.uleb128 0x5
 12011 1140 02        		.byte	0x2
 12012 1141 0000 0000 		.long	.LM523
 12013 1145 15        		.byte	0x15
 12014 1146 00        		.byte	0x0
 12015 1147 05        		.uleb128 0x5
 12016 1148 02        		.byte	0x2
 12017 1149 0000 0000 		.long	.LM524
 12018 114d 19        		.byte	0x19
 12019 114e 00        		.byte	0x0
 12020 114f 05        		.uleb128 0x5
 12021 1150 02        		.byte	0x2
 12022 1151 0000 0000 		.long	.LM525
 12023 1155 15        		.byte	0x15
 12024 1156 00        		.byte	0x0
 12025 1157 05        		.uleb128 0x5
 12026 1158 02        		.byte	0x2
 12027 1159 0000 0000 		.long	.LM526
 12028 115d 15        		.byte	0x15
 12029 115e 00        		.byte	0x0
 12030 115f 05        		.uleb128 0x5
 12031 1160 02        		.byte	0x2
 12032 1161 0000 0000 		.long	.LM527
 12033 1165 16        		.byte	0x16
 12034 1166 00        		.byte	0x0
 12035 1167 05        		.uleb128 0x5
 12036 1168 02        		.byte	0x2
 12037 1169 0000 0000 		.long	.LM528
 12038 116d 69        		.byte	0x69
 12039 116e 00        		.byte	0x0
 12040 116f 05        		.uleb128 0x5
 12041 1170 02        		.byte	0x2
 12042 1171 0000 0000 		.long	.LM529
 12043 1175 03        		.byte	0x3
 12044 1176 9E7F      		.sleb128 -98
 12045 1178 01        		.byte	0x1
 12046 1179 00        		.byte	0x0
 12047 117a 05        		.uleb128 0x5
 12048 117b 02        		.byte	0x2
 12049 117c 0000 0000 		.long	.LM530
 12050 1180 17        		.byte	0x17
 12051 1181 00        		.byte	0x0
 12052 1182 05        		.uleb128 0x5
 12053 1183 02        		.byte	0x2
 12054 1184 0000 0000 		.long	.LM531
GAS LISTING C:\DOCUME~1\KEUNSO~1\LOCALS~1\Temp/ccIyMOV1.s 			page 214


 12055 1188 15        		.byte	0x15
 12056 1189 00        		.byte	0x0
 12057 118a 05        		.uleb128 0x5
 12058 118b 02        		.byte	0x2
 12059 118c 0000 0000 		.long	.LM532
 12060 1190 19        		.byte	0x19
 12061 1191 00        		.byte	0x0
 12062 1192 05        		.uleb128 0x5
 12063 1193 02        		.byte	0x2
 12064 1194 0000 0000 		.long	.LM533
 12065 1198 15        		.byte	0x15
 12066 1199 00        		.byte	0x0
 12067 119a 05        		.uleb128 0x5
 12068 119b 02        		.byte	0x2
 12069 119c 0000 0000 		.long	.LM534
 12070 11a0 15        		.byte	0x15
 12071 11a1 00        		.byte	0x0
 12072 11a2 05        		.uleb128 0x5
 12073 11a3 02        		.byte	0x2
 12074 11a4 0000 0000 		.long	.LM535
 12075 11a8 16        		.byte	0x16
 12076 11a9 00        		.byte	0x0
 12077 11aa 05        		.uleb128 0x5
 12078 11ab 02        		.byte	0x2
 12079 11ac 0000 0000 		.long	.LM536
 12080 11b0 6B        		.byte	0x6b
 12081 11b1 00        		.byte	0x0
 12082 11b2 05        		.uleb128 0x5
 12083 11b3 02        		.byte	0x2
 12084 11b4 0000 0000 		.long	.LM537
 12085 11b8 03        		.byte	0x3
 12086 11b9 9C7F      		.sleb128 -100
 12087 11bb 01        		.byte	0x1
 12088 11bc 00        		.byte	0x0
 12089 11bd 05        		.uleb128 0x5
 12090 11be 02        		.byte	0x2
 12091 11bf 0000 0000 		.long	.LM538
 12092 11c3 17        		.byte	0x17
 12093 11c4 00        		.byte	0x0
 12094 11c5 05        		.uleb128 0x5
 12095 11c6 02        		.byte	0x2
 12096 11c7 0000 0000 		.long	.LM539
 12097 11cb 15        		.byte	0x15
 12098 11cc 00        		.byte	0x0
 12099 11cd 05        		.uleb128 0x5
 12100 11ce 02        		.byte	0x2
 12101 11cf 0000 0000 		.long	.LM540
 12102 11d3 19        		.byte	0x19
 12103 11d4 00        		.byte	0x0
 12104 11d5 05        		.uleb128 0x5
 12105 11d6 02        		.byte	0x2
 12106 11d7 0000 0000 		.long	.LM541
 12107 11db 15        		.byte	0x15
 12108 11dc 00        		.byte	0x0
 12109 11dd 05        		.uleb128 0x5
 12110 11de 02        		.byte	0x2
 12111 11df 0000 0000 		.long	.LM542
GAS LISTING C:\DOCUME~1\KEUNSO~1\LOCALS~1\Temp/ccIyMOV1.s 			page 215


 12112 11e3 15        		.byte	0x15
 12113 11e4 00        		.byte	0x0
 12114 11e5 05        		.uleb128 0x5
 12115 11e6 02        		.byte	0x2
 12116 11e7 0000 0000 		.long	.LM543
 12117 11eb 16        		.byte	0x16
 12118 11ec 00        		.byte	0x0
 12119 11ed 05        		.uleb128 0x5
 12120 11ee 02        		.byte	0x2
 12121 11ef 0000 0000 		.long	.LM544
 12122 11f3 03        		.byte	0x3
 12123 11f4 73        		.sleb128 -13
 12124 11f5 01        		.byte	0x1
 12125 11f6 00        		.byte	0x0
 12126 11f7 05        		.uleb128 0x5
 12127 11f8 02        		.byte	0x2
 12128 11f9 0000 0000 		.long	.LM545
 12129 11fd 17        		.byte	0x17
 12130 11fe 00        		.byte	0x0
 12131 11ff 05        		.uleb128 0x5
 12132 1200 02        		.byte	0x2
 12133 1201 0000 0000 		.long	.LM546
 12134 1205 15        		.byte	0x15
 12135 1206 00        		.byte	0x0
 12136 1207 05        		.uleb128 0x5
 12137 1208 02        		.byte	0x2
 12138 1209 0000 0000 		.long	.LM547
 12139 120d 19        		.byte	0x19
 12140 120e 00        		.byte	0x0
 12141 120f 05        		.uleb128 0x5
 12142 1210 02        		.byte	0x2
 12143 1211 0000 0000 		.long	.LM548
 12144 1215 15        		.byte	0x15
 12145 1216 00        		.byte	0x0
 12146 1217 05        		.uleb128 0x5
 12147 1218 02        		.byte	0x2
 12148 1219 0000 0000 		.long	.LM549
 12149 121d 15        		.byte	0x15
 12150 121e 00        		.byte	0x0
 12151 121f 05        		.uleb128 0x5
 12152 1220 02        		.byte	0x2
 12153 1221 0000 0000 		.long	.LM550
 12154 1225 16        		.byte	0x16
 12155 1226 00        		.byte	0x0
 12156 1227 05        		.uleb128 0x5
 12157 1228 02        		.byte	0x2
 12158 1229 0000 0000 		.long	.LM551
 12159 122d 6E        		.byte	0x6e
 12160 122e 00        		.byte	0x0
 12161 122f 05        		.uleb128 0x5
 12162 1230 02        		.byte	0x2
 12163 1231 0000 0000 		.long	.LM552
 12164 1235 03        		.byte	0x3
 12165 1236 EE7E      		.sleb128 -146
 12166 1238 01        		.byte	0x1
 12167 1239 00        		.byte	0x0
 12168 123a 05        		.uleb128 0x5
GAS LISTING C:\DOCUME~1\KEUNSO~1\LOCALS~1\Temp/ccIyMOV1.s 			page 216


 12169 123b 02        		.byte	0x2
 12170 123c 0000 0000 		.long	.LM553
 12171 1240 0E        		.byte	0xe
 12172 1241 00        		.byte	0x0
 12173 1242 05        		.uleb128 0x5
 12174 1243 02        		.byte	0x2
 12175 1244 0000 0000 		.long	.LM554
 12176 1248 74        		.byte	0x74
 12177 1249 00        		.byte	0x0
 12178 124a 05        		.uleb128 0x5
 12179 124b 02        		.byte	0x2
 12180 124c 0000 0000 		.long	.LM555
 12181 1250 03        		.byte	0x3
 12182 1251 A37F      		.sleb128 -93
 12183 1253 01        		.byte	0x1
 12184 1254 00        		.byte	0x0
 12185 1255 05        		.uleb128 0x5
 12186 1256 02        		.byte	0x2
 12187 1257 0000 0000 		.long	.LM556
 12188 125b 16        		.byte	0x16
 12189 125c 00        		.byte	0x0
 12190 125d 05        		.uleb128 0x5
 12191 125e 02        		.byte	0x2
 12192 125f 0000 0000 		.long	.LM557
 12193 1263 9E        		.byte	0x9e
 12194 1264 00        		.byte	0x0
 12195 1265 05        		.uleb128 0x5
 12196 1266 02        		.byte	0x2
 12197 1267 0000 0000 		.long	.LM558
 12198 126b 03        		.byte	0x3
 12199 126c A27F      		.sleb128 -94
 12200 126e 01        		.byte	0x1
 12201 126f 00        		.byte	0x0
 12202 1270 05        		.uleb128 0x5
 12203 1271 02        		.byte	0x2
 12204 1272 0000 0000 		.long	.LM559
 12205 1276 17        		.byte	0x17
 12206 1277 00        		.byte	0x0
 12207 1278 05        		.uleb128 0x5
 12208 1279 02        		.byte	0x2
 12209 127a 0000 0000 		.long	.LM560
 12210 127e 15        		.byte	0x15
 12211 127f 00        		.byte	0x0
 12212 1280 05        		.uleb128 0x5
 12213 1281 02        		.byte	0x2
 12214 1282 0000 0000 		.long	.LM561
 12215 1286 15        		.byte	0x15
 12216 1287 00        		.byte	0x0
 12217 1288 05        		.uleb128 0x5
 12218 1289 02        		.byte	0x2
 12219 128a 0000 0000 		.long	.LM562
 12220 128e 15        		.byte	0x15
 12221 128f 00        		.byte	0x0
 12222 1290 05        		.uleb128 0x5
 12223 1291 02        		.byte	0x2
 12224 1292 0000 0000 		.long	.LM563
 12225 1296 15        		.byte	0x15
GAS LISTING C:\DOCUME~1\KEUNSO~1\LOCALS~1\Temp/ccIyMOV1.s 			page 217


 12226 1297 00        		.byte	0x0
 12227 1298 05        		.uleb128 0x5
 12228 1299 02        		.byte	0x2
 12229 129a 0000 0000 		.long	.LM564
 12230 129e 1A        		.byte	0x1a
 12231 129f 00        		.byte	0x0
 12232 12a0 05        		.uleb128 0x5
 12233 12a1 02        		.byte	0x2
 12234 12a2 0000 0000 		.long	.LM565
 12235 12a6 03        		.byte	0x3
 12236 12a7 73        		.sleb128 -13
 12237 12a8 01        		.byte	0x1
 12238 12a9 00        		.byte	0x0
 12239 12aa 05        		.uleb128 0x5
 12240 12ab 02        		.byte	0x2
 12241 12ac 0000 0000 		.long	.LM566
 12242 12b0 15        		.byte	0x15
 12243 12b1 00        		.byte	0x0
 12244 12b2 05        		.uleb128 0x5
 12245 12b3 02        		.byte	0x2
 12246 12b4 0000 0000 		.long	.LM567
 12247 12b8 16        		.byte	0x16
 12248 12b9 00        		.byte	0x0
 12249 12ba 05        		.uleb128 0x5
 12250 12bb 02        		.byte	0x2
 12251 12bc 0000 0000 		.long	.LM568
 12252 12c0 15        		.byte	0x15
 12253 12c1 00        		.byte	0x0
 12254 12c2 05        		.uleb128 0x5
 12255 12c3 02        		.byte	0x2
 12256 12c4 0000 0000 		.long	.LM569
 12257 12c8 15        		.byte	0x15
 12258 12c9 00        		.byte	0x0
 12259 12ca 05        		.uleb128 0x5
 12260 12cb 02        		.byte	0x2
 12261 12cc 0000 0000 		.long	.LM570
 12262 12d0 15        		.byte	0x15
 12263 12d1 00        		.byte	0x0
 12264 12d2 05        		.uleb128 0x5
 12265 12d3 02        		.byte	0x2
 12266 12d4 0000 0000 		.long	.LM571
 12267 12d8 15        		.byte	0x15
 12268 12d9 00        		.byte	0x0
 12269 12da 05        		.uleb128 0x5
 12270 12db 02        		.byte	0x2
 12271 12dc 0000 0000 		.long	.LM572
 12272 12e0 12        		.byte	0x12
 12273 12e1 00        		.byte	0x0
 12274 12e2 05        		.uleb128 0x5
 12275 12e3 02        		.byte	0x2
 12276 12e4 0000 0000 		.long	.LM573
 12277 12e8 15        		.byte	0x15
 12278 12e9 00        		.byte	0x0
 12279 12ea 05        		.uleb128 0x5
 12280 12eb 02        		.byte	0x2
 12281 12ec 0000 0000 		.long	.LM574
 12282 12f0 15        		.byte	0x15
GAS LISTING C:\DOCUME~1\KEUNSO~1\LOCALS~1\Temp/ccIyMOV1.s 			page 218


 12283 12f1 00        		.byte	0x0
 12284 12f2 05        		.uleb128 0x5
 12285 12f3 02        		.byte	0x2
 12286 12f4 0000 0000 		.long	.LM575
 12287 12f8 12        		.byte	0x12
 12288 12f9 00        		.byte	0x0
 12289 12fa 05        		.uleb128 0x5
 12290 12fb 02        		.byte	0x2
 12291 12fc 0000 0000 		.long	.LM576
 12292 1300 15        		.byte	0x15
 12293 1301 00        		.byte	0x0
 12294 1302 05        		.uleb128 0x5
 12295 1303 02        		.byte	0x2
 12296 1304 0000 0000 		.long	.LM577
 12297 1308 15        		.byte	0x15
 12298 1309 00        		.byte	0x0
 12299 130a 05        		.uleb128 0x5
 12300 130b 02        		.byte	0x2
 12301 130c 0000 0000 		.long	.LM578
 12302 1310 1A        		.byte	0x1a
 12303 1311 00        		.byte	0x0
 12304 1312 05        		.uleb128 0x5
 12305 1313 02        		.byte	0x2
 12306 1314 0000 0000 		.long	.LM579
 12307 1318 03        		.byte	0x3
 12308 1319 73        		.sleb128 -13
 12309 131a 01        		.byte	0x1
 12310 131b 00        		.byte	0x0
 12311 131c 05        		.uleb128 0x5
 12312 131d 02        		.byte	0x2
 12313 131e 0000 0000 		.long	.LM580
 12314 1322 15        		.byte	0x15
 12315 1323 00        		.byte	0x0
 12316 1324 05        		.uleb128 0x5
 12317 1325 02        		.byte	0x2
 12318 1326 0000 0000 		.long	.LM581
 12319 132a 18        		.byte	0x18
 12320 132b 00        		.byte	0x0
 12321 132c 05        		.uleb128 0x5
 12322 132d 02        		.byte	0x2
 12323 132e 0000 0000 		.long	.LM582
 12324 1332 15        		.byte	0x15
 12325 1333 00        		.byte	0x0
 12326 1334 05        		.uleb128 0x5
 12327 1335 02        		.byte	0x2
 12328 1336 0000 0000 		.long	.LM583
 12329 133a 15        		.byte	0x15
 12330 133b 00        		.byte	0x0
 12331 133c 05        		.uleb128 0x5
 12332 133d 02        		.byte	0x2
 12333 133e 0000 0000 		.long	.LM584
 12334 1342 12        		.byte	0x12
 12335 1343 00        		.byte	0x0
 12336 1344 05        		.uleb128 0x5
 12337 1345 02        		.byte	0x2
 12338 1346 0000 0000 		.long	.LM585
 12339 134a 15        		.byte	0x15
GAS LISTING C:\DOCUME~1\KEUNSO~1\LOCALS~1\Temp/ccIyMOV1.s 			page 219


 12340 134b 00        		.byte	0x0
 12341 134c 05        		.uleb128 0x5
 12342 134d 02        		.byte	0x2
 12343 134e 0000 0000 		.long	.LM586
 12344 1352 15        		.byte	0x15
 12345 1353 00        		.byte	0x0
 12346 1354 05        		.uleb128 0x5
 12347 1355 02        		.byte	0x2
 12348 1356 0000 0000 		.long	.LM587
 12349 135a 12        		.byte	0x12
 12350 135b 00        		.byte	0x0
 12351 135c 05        		.uleb128 0x5
 12352 135d 02        		.byte	0x2
 12353 135e 0000 0000 		.long	.LM588
 12354 1362 15        		.byte	0x15
 12355 1363 00        		.byte	0x0
 12356 1364 05        		.uleb128 0x5
 12357 1365 02        		.byte	0x2
 12358 1366 0000 0000 		.long	.LM589
 12359 136a 15        		.byte	0x15
 12360 136b 00        		.byte	0x0
 12361 136c 05        		.uleb128 0x5
 12362 136d 02        		.byte	0x2
 12363 136e 0000 0000 		.long	.LM590
 12364 1372 1A        		.byte	0x1a
 12365 1373 00        		.byte	0x0
 12366 1374 05        		.uleb128 0x5
 12367 1375 02        		.byte	0x2
 12368 1376 0000 0000 		.long	.LM591
 12369 137a 03        		.byte	0x3
 12370 137b 73        		.sleb128 -13
 12371 137c 01        		.byte	0x1
 12372 137d 00        		.byte	0x0
 12373 137e 05        		.uleb128 0x5
 12374 137f 02        		.byte	0x2
 12375 1380 0000 0000 		.long	.LM592
 12376 1384 15        		.byte	0x15
 12377 1385 00        		.byte	0x0
 12378 1386 05        		.uleb128 0x5
 12379 1387 02        		.byte	0x2
 12380 1388 0000 0000 		.long	.LM593
 12381 138c 18        		.byte	0x18
 12382 138d 00        		.byte	0x0
 12383 138e 05        		.uleb128 0x5
 12384 138f 02        		.byte	0x2
 12385 1390 0000 0000 		.long	.LM594
 12386 1394 15        		.byte	0x15
 12387 1395 00        		.byte	0x0
 12388 1396 05        		.uleb128 0x5
 12389 1397 02        		.byte	0x2
 12390 1398 0000 0000 		.long	.LM595
 12391 139c 15        		.byte	0x15
 12392 139d 00        		.byte	0x0
 12393 139e 05        		.uleb128 0x5
 12394 139f 02        		.byte	0x2
 12395 13a0 0000 0000 		.long	.LM596
 12396 13a4 1A        		.byte	0x1a
GAS LISTING C:\DOCUME~1\KEUNSO~1\LOCALS~1\Temp/ccIyMOV1.s 			page 220


 12397 13a5 00        		.byte	0x0
 12398 13a6 05        		.uleb128 0x5
 12399 13a7 02        		.byte	0x2
 12400 13a8 0000 0000 		.long	.LM597
 12401 13ac 03        		.byte	0x3
 12402 13ad 73        		.sleb128 -13
 12403 13ae 01        		.byte	0x1
 12404 13af 00        		.byte	0x0
 12405 13b0 05        		.uleb128 0x5
 12406 13b1 02        		.byte	0x2
 12407 13b2 0000 0000 		.long	.LM598
 12408 13b6 15        		.byte	0x15
 12409 13b7 00        		.byte	0x0
 12410 13b8 05        		.uleb128 0x5
 12411 13b9 02        		.byte	0x2
 12412 13ba 0000 0000 		.long	.LM599
 12413 13be 18        		.byte	0x18
 12414 13bf 00        		.byte	0x0
 12415 13c0 05        		.uleb128 0x5
 12416 13c1 02        		.byte	0x2
 12417 13c2 0000 0000 		.long	.LM600
 12418 13c6 15        		.byte	0x15
 12419 13c7 00        		.byte	0x0
 12420 13c8 05        		.uleb128 0x5
 12421 13c9 02        		.byte	0x2
 12422 13ca 0000 0000 		.long	.LM601
 12423 13ce 15        		.byte	0x15
 12424 13cf 00        		.byte	0x0
 12425 13d0 05        		.uleb128 0x5
 12426 13d1 02        		.byte	0x2
 12427 13d2 0000 0000 		.long	.LM602
 12428 13d6 0E        		.byte	0xe
 12429 13d7 00        		.byte	0x0
 12430 13d8 05        		.uleb128 0x5
 12431 13d9 02        		.byte	0x2
 12432 13da 0000 0000 		.long	.LM603
 12433 13de 03        		.byte	0x3
 12434 13df A07F      		.sleb128 -96
 12435 13e1 01        		.byte	0x1
 12436 13e2 00        		.byte	0x0
 12437 13e3 05        		.uleb128 0x5
 12438 13e4 02        		.byte	0x2
 12439 13e5 0000 0000 		.long	.LM604
 12440 13e9 73        		.byte	0x73
 12441 13ea 00        		.byte	0x0
 12442 13eb 05        		.uleb128 0x5
 12443 13ec 02        		.byte	0x2
 12444 13ed 0000 0000 		.long	.LM605
 12445 13f1 17        		.byte	0x17
 12446 13f2 00        		.byte	0x0
 12447 13f3 05        		.uleb128 0x5
 12448 13f4 02        		.byte	0x2
 12449 13f5 0000 0000 		.long	.LM606
 12450 13f9 15        		.byte	0x15
 12451 13fa 00        		.byte	0x0
 12452 13fb 05        		.uleb128 0x5
 12453 13fc 02        		.byte	0x2
GAS LISTING C:\DOCUME~1\KEUNSO~1\LOCALS~1\Temp/ccIyMOV1.s 			page 221


 12454 13fd 0000 0000 		.long	.LM607
 12455 1401 19        		.byte	0x19
 12456 1402 00        		.byte	0x0
 12457 1403 05        		.uleb128 0x5
 12458 1404 02        		.byte	0x2
 12459 1405 0000 0000 		.long	.LM608
 12460 1409 15        		.byte	0x15
 12461 140a 00        		.byte	0x0
 12462 140b 05        		.uleb128 0x5
 12463 140c 02        		.byte	0x2
 12464 140d 0000 0000 		.long	.LM609
 12465 1411 15        		.byte	0x15
 12466 1412 00        		.byte	0x0
 12467 1413 05        		.uleb128 0x5
 12468 1414 02        		.byte	0x2
 12469 1415 0000 0000 		.long	.LM610
 12470 1419 16        		.byte	0x16
 12471 141a 00        		.byte	0x0
 12472 141b 05        		.uleb128 0x5
 12473 141c 02        		.byte	0x2
 12474 141d 0000 0000 		.long	.LM611
 12475 1421 03        		.byte	0x3
 12476 1422 73        		.sleb128 -13
 12477 1423 01        		.byte	0x1
 12478 1424 00        		.byte	0x0
 12479 1425 05        		.uleb128 0x5
 12480 1426 02        		.byte	0x2
 12481 1427 0000 0000 		.long	.LM612
 12482 142b 15        		.byte	0x15
 12483 142c 00        		.byte	0x0
 12484 142d 05        		.uleb128 0x5
 12485 142e 02        		.byte	0x2
 12486 142f 0000 0000 		.long	.LM613
 12487 1433 16        		.byte	0x16
 12488 1434 00        		.byte	0x0
 12489 1435 05        		.uleb128 0x5
 12490 1436 02        		.byte	0x2
 12491 1437 0000 0000 		.long	.LM614
 12492 143b 15        		.byte	0x15
 12493 143c 00        		.byte	0x0
 12494 143d 05        		.uleb128 0x5
 12495 143e 02        		.byte	0x2
 12496 143f 0000 0000 		.long	.LM615
 12497 1443 19        		.byte	0x19
 12498 1444 00        		.byte	0x0
 12499 1445 05        		.uleb128 0x5
 12500 1446 02        		.byte	0x2
 12501 1447 0000 0000 		.long	.LM616
 12502 144b 15        		.byte	0x15
 12503 144c 00        		.byte	0x0
 12504 144d 05        		.uleb128 0x5
 12505 144e 02        		.byte	0x2
 12506 144f 0000 0000 		.long	.LM617
 12507 1453 15        		.byte	0x15
 12508 1454 00        		.byte	0x0
 12509 1455 05        		.uleb128 0x5
 12510 1456 02        		.byte	0x2
GAS LISTING C:\DOCUME~1\KEUNSO~1\LOCALS~1\Temp/ccIyMOV1.s 			page 222


 12511 1457 0000 0000 		.long	.LM618
 12512 145b 16        		.byte	0x16
 12513 145c 00        		.byte	0x0
 12514 145d 05        		.uleb128 0x5
 12515 145e 02        		.byte	0x2
 12516 145f 0000 0000 		.long	.LM619
 12517 1463 53        		.byte	0x53
 12518 1464 00        		.byte	0x0
 12519 1465 05        		.uleb128 0x5
 12520 1466 02        		.byte	0x2
 12521 1467 0000 0000 		.long	.LM620
 12522 146b 03        		.byte	0x3
 12523 146c B47F      		.sleb128 -76
 12524 146e 01        		.byte	0x1
 12525 146f 00        		.byte	0x0
 12526 1470 05        		.uleb128 0x5
 12527 1471 02        		.byte	0x2
 12528 1472 0000 0000 		.long	.LM621
 12529 1476 15        		.byte	0x15
 12530 1477 00        		.byte	0x0
 12531 1478 05        		.uleb128 0x5
 12532 1479 02        		.byte	0x2
 12533 147a 0000 0000 		.long	.LM622
 12534 147e 16        		.byte	0x16
 12535 147f 00        		.byte	0x0
 12536 1480 05        		.uleb128 0x5
 12537 1481 02        		.byte	0x2
 12538 1482 0000 0000 		.long	.LM623
 12539 1486 15        		.byte	0x15
 12540 1487 00        		.byte	0x0
 12541 1488 05        		.uleb128 0x5
 12542 1489 02        		.byte	0x2
 12543 148a 0000 0000 		.long	.LM624
 12544 148e 19        		.byte	0x19
 12545 148f 00        		.byte	0x0
 12546 1490 05        		.uleb128 0x5
 12547 1491 02        		.byte	0x2
 12548 1492 0000 0000 		.long	.LM625
 12549 1496 15        		.byte	0x15
 12550 1497 00        		.byte	0x0
 12551 1498 05        		.uleb128 0x5
 12552 1499 02        		.byte	0x2
 12553 149a 0000 0000 		.long	.LM626
 12554 149e 15        		.byte	0x15
 12555 149f 00        		.byte	0x0
 12556 14a0 05        		.uleb128 0x5
 12557 14a1 02        		.byte	0x2
 12558 14a2 0000 0000 		.long	.LM627
 12559 14a6 16        		.byte	0x16
 12560 14a7 00        		.byte	0x0
 12561 14a8 05        		.uleb128 0x5
 12562 14a9 02        		.byte	0x2
 12563 14aa 0000 0000 		.long	.LM628
 12564 14ae 55        		.byte	0x55
 12565 14af 00        		.byte	0x0
 12566 14b0 05        		.uleb128 0x5
 12567 14b1 02        		.byte	0x2
GAS LISTING C:\DOCUME~1\KEUNSO~1\LOCALS~1\Temp/ccIyMOV1.s 			page 223


 12568 14b2 0000 0000 		.long	.LM629
 12569 14b6 03        		.byte	0x3
 12570 14b7 B27F      		.sleb128 -78
 12571 14b9 01        		.byte	0x1
 12572 14ba 00        		.byte	0x0
 12573 14bb 05        		.uleb128 0x5
 12574 14bc 02        		.byte	0x2
 12575 14bd 0000 0000 		.long	.LM630
 12576 14c1 15        		.byte	0x15
 12577 14c2 00        		.byte	0x0
 12578 14c3 05        		.uleb128 0x5
 12579 14c4 02        		.byte	0x2
 12580 14c5 0000 0000 		.long	.LM631
 12581 14c9 16        		.byte	0x16
 12582 14ca 00        		.byte	0x0
 12583 14cb 05        		.uleb128 0x5
 12584 14cc 02        		.byte	0x2
 12585 14cd 0000 0000 		.long	.LM632
 12586 14d1 15        		.byte	0x15
 12587 14d2 00        		.byte	0x0
 12588 14d3 05        		.uleb128 0x5
 12589 14d4 02        		.byte	0x2
 12590 14d5 0000 0000 		.long	.LM633
 12591 14d9 19        		.byte	0x19
 12592 14da 00        		.byte	0x0
 12593 14db 05        		.uleb128 0x5
 12594 14dc 02        		.byte	0x2
 12595 14dd 0000 0000 		.long	.LM634
 12596 14e1 15        		.byte	0x15
 12597 14e2 00        		.byte	0x0
 12598 14e3 05        		.uleb128 0x5
 12599 14e4 02        		.byte	0x2
 12600 14e5 0000 0000 		.long	.LM635
 12601 14e9 15        		.byte	0x15
 12602 14ea 00        		.byte	0x0
 12603 14eb 05        		.uleb128 0x5
 12604 14ec 02        		.byte	0x2
 12605 14ed 0000 0000 		.long	.LM636
 12606 14f1 16        		.byte	0x16
 12607 14f2 00        		.byte	0x0
 12608 14f3 05        		.uleb128 0x5
 12609 14f4 02        		.byte	0x2
 12610 14f5 0000 0000 		.long	.LM637
 12611 14f9 11        		.byte	0x11
 12612 14fa 00        		.byte	0x0
 12613 14fb 05        		.uleb128 0x5
 12614 14fc 02        		.byte	0x2
 12615 14fd 0000 0000 		.long	.LM638
 12616 1501 0D        		.byte	0xd
 12617 1502 00        		.byte	0x0
 12618 1503 05        		.uleb128 0x5
 12619 1504 02        		.byte	0x2
 12620 1505 0000 0000 		.long	.LM639
 12621 1509 15        		.byte	0x15
 12622 150a 00        		.byte	0x0
 12623 150b 05        		.uleb128 0x5
 12624 150c 02        		.byte	0x2
GAS LISTING C:\DOCUME~1\KEUNSO~1\LOCALS~1\Temp/ccIyMOV1.s 			page 224


 12625 150d 0000 0000 		.long	.LM640
 12626 1511 19        		.byte	0x19
 12627 1512 00        		.byte	0x0
 12628 1513 05        		.uleb128 0x5
 12629 1514 02        		.byte	0x2
 12630 1515 0000 0000 		.long	.LM641
 12631 1519 15        		.byte	0x15
 12632 151a 00        		.byte	0x0
 12633 151b 05        		.uleb128 0x5
 12634 151c 02        		.byte	0x2
 12635 151d 0000 0000 		.long	.LM642
 12636 1521 15        		.byte	0x15
 12637 1522 00        		.byte	0x0
 12638 1523 05        		.uleb128 0x5
 12639 1524 02        		.byte	0x2
 12640 1525 0000 0000 		.long	.LM643
 12641 1529 16        		.byte	0x16
 12642 152a 00        		.byte	0x0
 12643 152b 05        		.uleb128 0x5
 12644 152c 02        		.byte	0x2
 12645 152d 0000 0000 		.long	.LM644
 12646 1531 1A        		.byte	0x1a
 12647 1532 00        		.byte	0x0
 12648 1533 05        		.uleb128 0x5
 12649 1534 02        		.byte	0x2
 12650 1535 0000 0000 		.long	.LM645
 12651 1539 15        		.byte	0x15
 12652 153a 00        		.byte	0x0
 12653 153b 05        		.uleb128 0x5
 12654 153c 02        		.byte	0x2
 12655 153d 0000 0000 		.long	.LM646
 12656 1541 03        		.byte	0x3
 12657 1542 6C        		.sleb128 -20
 12658 1543 01        		.byte	0x1
 12659 1544 00        		.byte	0x0
 12660 1545 05        		.uleb128 0x5
 12661 1546 02        		.byte	0x2
 12662 1547 0000 0000 		.long	.LM647
 12663 154b 15        		.byte	0x15
 12664 154c 00        		.byte	0x0
 12665 154d 05        		.uleb128 0x5
 12666 154e 02        		.byte	0x2
 12667 154f 0000 0000 		.long	.LM648
 12668 1553 18        		.byte	0x18
 12669 1554 00        		.byte	0x0
 12670 1555 05        		.uleb128 0x5
 12671 1556 02        		.byte	0x2
 12672 1557 0000 0000 		.long	.LM649
 12673 155b 15        		.byte	0x15
 12674 155c 00        		.byte	0x0
 12675 155d 05        		.uleb128 0x5
 12676 155e 02        		.byte	0x2
 12677 155f 0000 0000 		.long	.LM650
 12678 1563 15        		.byte	0x15
 12679 1564 00        		.byte	0x0
 12680 1565 05        		.uleb128 0x5
 12681 1566 02        		.byte	0x2
GAS LISTING C:\DOCUME~1\KEUNSO~1\LOCALS~1\Temp/ccIyMOV1.s 			page 225


 12682 1567 0000 0000 		.long	.LM651
 12683 156b 12        		.byte	0x12
 12684 156c 00        		.byte	0x0
 12685 156d 05        		.uleb128 0x5
 12686 156e 02        		.byte	0x2
 12687 156f 0000 0000 		.long	.LM652
 12688 1573 15        		.byte	0x15
 12689 1574 00        		.byte	0x0
 12690 1575 05        		.uleb128 0x5
 12691 1576 02        		.byte	0x2
 12692 1577 0000 0000 		.long	.LM653
 12693 157b 15        		.byte	0x15
 12694 157c 00        		.byte	0x0
 12695 157d 05        		.uleb128 0x5
 12696 157e 02        		.byte	0x2
 12697 157f 0000 0000 		.long	.LM654
 12698 1583 12        		.byte	0x12
 12699 1584 00        		.byte	0x0
 12700 1585 05        		.uleb128 0x5
 12701 1586 02        		.byte	0x2
 12702 1587 0000 0000 		.long	.LM655
 12703 158b 15        		.byte	0x15
 12704 158c 00        		.byte	0x0
 12705 158d 05        		.uleb128 0x5
 12706 158e 02        		.byte	0x2
 12707 158f 0000 0000 		.long	.LM656
 12708 1593 15        		.byte	0x15
 12709 1594 00        		.byte	0x0
 12710 1595 05        		.uleb128 0x5
 12711 1596 02        		.byte	0x2
 12712 1597 0000 0000 		.long	.LM657
 12713 159b 0E        		.byte	0xe
 12714 159c 00        		.byte	0x0
 12715 159d 05        		.uleb128 0x5
 12716 159e 02        		.byte	0x2
 12717 159f 0000 0000 		.long	.LM658
 12718 15a3 03        		.byte	0x3
 12719 15a4 A87F      		.sleb128 -88
 12720 15a6 01        		.byte	0x1
 12721 15a7 00        		.byte	0x0
 12722 15a8 05        		.uleb128 0x5
 12723 15a9 02        		.byte	0x2
 12724 15aa 0000 0000 		.long	.LM659
 12725 15ae 15        		.byte	0x15
 12726 15af 00        		.byte	0x0
 12727 15b0 05        		.uleb128 0x5
 12728 15b1 02        		.byte	0x2
 12729 15b2 0000 0000 		.long	.LM660
 12730 15b6 15        		.byte	0x15
 12731 15b7 00        		.byte	0x0
 12732 15b8 05        		.uleb128 0x5
 12733 15b9 02        		.byte	0x2
 12734 15ba 0000 0000 		.long	.LM661
 12735 15be 15        		.byte	0x15
 12736 15bf 00        		.byte	0x0
 12737 15c0 05        		.uleb128 0x5
 12738 15c1 02        		.byte	0x2
GAS LISTING C:\DOCUME~1\KEUNSO~1\LOCALS~1\Temp/ccIyMOV1.s 			page 226


 12739 15c2 0000 0000 		.long	.LM662
 12740 15c6 15        		.byte	0x15
 12741 15c7 00        		.byte	0x0
 12742 15c8 05        		.uleb128 0x5
 12743 15c9 02        		.byte	0x2
 12744 15ca 0000 0000 		.long	.LM663
 12745 15ce 16        		.byte	0x16
 12746 15cf 00        		.byte	0x0
 12747 15d0 05        		.uleb128 0x5
 12748 15d1 02        		.byte	0x2
 12749 15d2 0000 0000 		.long	.LM664
 12750 15d6 17        		.byte	0x17
 12751 15d7 00        		.byte	0x0
 12752 15d8 05        		.uleb128 0x5
 12753 15d9 02        		.byte	0x2
 12754 15da 0000 0000 		.long	.LM665
 12755 15de 15        		.byte	0x15
 12756 15df 00        		.byte	0x0
 12757 15e0 05        		.uleb128 0x5
 12758 15e1 02        		.byte	0x2
 12759 15e2 0000 0000 		.long	.LM666
 12760 15e6 12        		.byte	0x12
 12761 15e7 00        		.byte	0x0
 12762 15e8 05        		.uleb128 0x5
 12763 15e9 02        		.byte	0x2
 12764 15ea 0000 0000 		.long	.LM667
 12765 15ee 18        		.byte	0x18
 12766 15ef 00        		.byte	0x0
 12767 15f0 05        		.uleb128 0x5
 12768 15f1 02        		.byte	0x2
 12769 15f2 0000 0000 		.long	.LM668
 12770 15f6 15        		.byte	0x15
 12771 15f7 00        		.byte	0x0
 12772 15f8 05        		.uleb128 0x5
 12773 15f9 02        		.byte	0x2
 12774 15fa 0000 0000 		.long	.LM669
 12775 15fe 83        		.byte	0x83
 12776 15ff 00        		.byte	0x0
 12777 1600 05        		.uleb128 0x5
 12778 1601 02        		.byte	0x2
 12779 1602 0000 0000 		.long	.LM670
 12780 1606 03        		.byte	0x3
 12781 1607 937F      		.sleb128 -109
 12782 1609 01        		.byte	0x1
 12783 160a 00        		.byte	0x0
 12784 160b 05        		.uleb128 0x5
 12785 160c 02        		.byte	0x2
 12786 160d 0000 0000 		.long	.LM671
 12787 1611 7A        		.byte	0x7a
 12788 1612 00        		.byte	0x0
 12789 1613 05        		.uleb128 0x5
 12790 1614 02        		.byte	0x2
 12791 1615 0000 0000 		.long	.LM672
 12792 1619 16        		.byte	0x16
 12793 161a 00        		.byte	0x0
 12794 161b 05        		.uleb128 0x5
 12795 161c 02        		.byte	0x2
GAS LISTING C:\DOCUME~1\KEUNSO~1\LOCALS~1\Temp/ccIyMOV1.s 			page 227


 12796 161d 0000 0000 		.long	.LM673
 12797 1621 15        		.byte	0x15
 12798 1622 00        		.byte	0x0
 12799 1623 05        		.uleb128 0x5
 12800 1624 02        		.byte	0x2
 12801 1625 0000 0000 		.long	.LM674
 12802 1629 13        		.byte	0x13
 12803 162a 00        		.byte	0x0
 12804 162b 05        		.uleb128 0x5
 12805 162c 02        		.byte	0x2
 12806 162d 0000 0000 		.long	.LM675
 12807 1631 19        		.byte	0x19
 12808 1632 00        		.byte	0x0
 12809 1633 05        		.uleb128 0x5
 12810 1634 02        		.byte	0x2
 12811 1635 0000 0000 		.long	.LM676
 12812 1639 13        		.byte	0x13
 12813 163a 00        		.byte	0x0
 12814 163b 05        		.uleb128 0x5
 12815 163c 02        		.byte	0x2
 12816 163d 0000 0000 		.long	.LM677
 12817 1641 15        		.byte	0x15
 12818 1642 00        		.byte	0x0
 12819 1643 05        		.uleb128 0x5
 12820 1644 02        		.byte	0x2
 12821 1645 0000 0000 		.long	.LM678
 12822 1649 13        		.byte	0x13
 12823 164a 00        		.byte	0x0
 12824 164b 05        		.uleb128 0x5
 12825 164c 02        		.byte	0x2
 12826 164d 0000 0000 		.long	.LM679
 12827 1651 15        		.byte	0x15
 12828 1652 00        		.byte	0x0
 12829 1653 05        		.uleb128 0x5
 12830 1654 02        		.byte	0x2
 12831 1655 0000 0000 		.long	.LM680
 12832 1659 03        		.byte	0x3
 12833 165a 947F      		.sleb128 -108
 12834 165c 01        		.byte	0x1
 12835 165d 00        		.byte	0x0
 12836 165e 05        		.uleb128 0x5
 12837 165f 02        		.byte	0x2
 12838 1660 0000 0000 		.long	.LM681
 12839 1664 15        		.byte	0x15
 12840 1665 00        		.byte	0x0
 12841 1666 05        		.uleb128 0x5
 12842 1667 02        		.byte	0x2
 12843 1668 0000 0000 		.long	.LM682
 12844 166c 78        		.byte	0x78
 12845 166d 00        		.byte	0x0
 12846 166e 05        		.uleb128 0x5
 12847 166f 02        		.byte	0x2
 12848 1670 0000 0000 		.long	.LM683
 12849 1674 16        		.byte	0x16
 12850 1675 00        		.byte	0x0
 12851 1676 05        		.uleb128 0x5
 12852 1677 02        		.byte	0x2
GAS LISTING C:\DOCUME~1\KEUNSO~1\LOCALS~1\Temp/ccIyMOV1.s 			page 228


 12853 1678 0000 0000 		.long	.LM684
 12854 167c 15        		.byte	0x15
 12855 167d 00        		.byte	0x0
 12856 167e 05        		.uleb128 0x5
 12857 167f 02        		.byte	0x2
 12858 1680 0000 0000 		.long	.LM685
 12859 1684 13        		.byte	0x13
 12860 1685 00        		.byte	0x0
 12861 1686 05        		.uleb128 0x5
 12862 1687 02        		.byte	0x2
 12863 1688 0000 0000 		.long	.LM686
 12864 168c 18        		.byte	0x18
 12865 168d 00        		.byte	0x0
 12866 168e 05        		.uleb128 0x5
 12867 168f 02        		.byte	0x2
 12868 1690 0000 0000 		.long	.LM687
 12869 1694 15        		.byte	0x15
 12870 1695 00        		.byte	0x0
 12871 1696 05        		.uleb128 0x5
 12872 1697 02        		.byte	0x2
 12873 1698 0000 0000 		.long	.LM688
 12874 169c 13        		.byte	0x13
 12875 169d 00        		.byte	0x0
 12876 169e 05        		.uleb128 0x5
 12877 169f 02        		.byte	0x2
 12878 16a0 0000 0000 		.long	.LM689
 12879 16a4 15        		.byte	0x15
 12880 16a5 00        		.byte	0x0
 12881 16a6 05        		.uleb128 0x5
 12882 16a7 02        		.byte	0x2
 12883 16a8 0000 0000 		.long	.LM690
 12884 16ac 03        		.byte	0x3
 12885 16ad 967F      		.sleb128 -106
 12886 16af 01        		.byte	0x1
 12887 16b0 00        		.byte	0x0
 12888 16b1 05        		.uleb128 0x5
 12889 16b2 02        		.byte	0x2
 12890 16b3 0000 0000 		.long	.LM691
 12891 16b7 15        		.byte	0x15
 12892 16b8 00        		.byte	0x0
 12893 16b9 05        		.uleb128 0x5
 12894 16ba 02        		.byte	0x2
 12895 16bb 0000 0000 		.long	.LM692
 12896 16bf 76        		.byte	0x76
 12897 16c0 00        		.byte	0x0
 12898 16c1 05        		.uleb128 0x5
 12899 16c2 02        		.byte	0x2
 12900 16c3 0000 0000 		.long	.LM693
 12901 16c7 16        		.byte	0x16
 12902 16c8 00        		.byte	0x0
 12903 16c9 05        		.uleb128 0x5
 12904 16ca 02        		.byte	0x2
 12905 16cb 0000 0000 		.long	.LM694
 12906 16cf 15        		.byte	0x15
 12907 16d0 00        		.byte	0x0
 12908 16d1 05        		.uleb128 0x5
 12909 16d2 02        		.byte	0x2
GAS LISTING C:\DOCUME~1\KEUNSO~1\LOCALS~1\Temp/ccIyMOV1.s 			page 229


 12910 16d3 0000 0000 		.long	.LM695
 12911 16d7 13        		.byte	0x13
 12912 16d8 00        		.byte	0x0
 12913 16d9 05        		.uleb128 0x5
 12914 16da 02        		.byte	0x2
 12915 16db 0000 0000 		.long	.LM696
 12916 16df 15        		.byte	0x15
 12917 16e0 00        		.byte	0x0
 12918 16e1 05        		.uleb128 0x5
 12919 16e2 02        		.byte	0x2
 12920 16e3 0000 0000 		.long	.LM697
 12921 16e7 13        		.byte	0x13
 12922 16e8 00        		.byte	0x0
 12923 16e9 05        		.uleb128 0x5
 12924 16ea 02        		.byte	0x2
 12925 16eb 0000 0000 		.long	.LM698
 12926 16ef 15        		.byte	0x15
 12927 16f0 00        		.byte	0x0
 12928 16f1 05        		.uleb128 0x5
 12929 16f2 02        		.byte	0x2
 12930 16f3 0000 0000 		.long	.LM699
 12931 16f7 13        		.byte	0x13
 12932 16f8 00        		.byte	0x0
 12933 16f9 05        		.uleb128 0x5
 12934 16fa 02        		.byte	0x2
 12935 16fb 0000 0000 		.long	.LM700
 12936 16ff 18        		.byte	0x18
 12937 1700 00        		.byte	0x0
 12938 1701 05        		.uleb128 0x5
 12939 1702 02        		.byte	0x2
 12940 1703 0000 0000 		.long	.LM701
 12941 1707 15        		.byte	0x15
 12942 1708 00        		.byte	0x0
 12943 1709 05        		.uleb128 0x5
 12944 170a 02        		.byte	0x2
 12945 170b 0000 0000 		.long	.LM702
 12946 170f 13        		.byte	0x13
 12947 1710 00        		.byte	0x0
 12948 1711 05        		.uleb128 0x5
 12949 1712 02        		.byte	0x2
 12950 1713 0000 0000 		.long	.LM703
 12951 1717 15        		.byte	0x15
 12952 1718 00        		.byte	0x0
 12953 1719 05        		.uleb128 0x5
 12954 171a 02        		.byte	0x2
 12955 171b 0000 0000 		.long	.LM704
 12956 171f 13        		.byte	0x13
 12957 1720 00        		.byte	0x0
 12958 1721 05        		.uleb128 0x5
 12959 1722 02        		.byte	0x2
 12960 1723 0000 0000 		.long	.LM705
 12961 1727 15        		.byte	0x15
 12962 1728 00        		.byte	0x0
 12963 1729 05        		.uleb128 0x5
 12964 172a 02        		.byte	0x2
 12965 172b 0000 0000 		.long	.LM706
 12966 172f 13        		.byte	0x13
GAS LISTING C:\DOCUME~1\KEUNSO~1\LOCALS~1\Temp/ccIyMOV1.s 			page 230


 12967 1730 00        		.byte	0x0
 12968 1731 05        		.uleb128 0x5
 12969 1732 02        		.byte	0x2
 12970 1733 0000 0000 		.long	.LM707
 12971 1737 15        		.byte	0x15
 12972 1738 00        		.byte	0x0
 12973 1739 05        		.uleb128 0x5
 12974 173a 02        		.byte	0x2
 12975 173b 0000 0000 		.long	.LM708
 12976 173f 03        		.byte	0x3
 12977 1740 987F      		.sleb128 -104
 12978 1742 01        		.byte	0x1
 12979 1743 00        		.byte	0x0
 12980 1744 05        		.uleb128 0x5
 12981 1745 02        		.byte	0x2
 12982 1746 0000 0000 		.long	.LM709
 12983 174a 15        		.byte	0x15
 12984 174b 00        		.byte	0x0
 12985 174c 05        		.uleb128 0x5
 12986 174d 02        		.byte	0x2
 12987 174e 0000 0000 		.long	.LM710
 12988 1752 15        		.byte	0x15
 12989 1753 00        		.byte	0x0
 12990 1754 05        		.uleb128 0x5
 12991 1755 02        		.byte	0x2
 12992 1756 0000 0000 		.long	.LM711
 12993 175a 5A        		.byte	0x5a
 12994 175b 00        		.byte	0x0
 12995 175c 05        		.uleb128 0x5
 12996 175d 02        		.byte	0x2
 12997 175e 0000 0000 		.long	.LM712
 12998 1762 15        		.byte	0x15
 12999 1763 00        		.byte	0x0
 13000 1764 05        		.uleb128 0x5
 13001 1765 02        		.byte	0x2
 13002 1766 0000 0000 		.long	.LM713
 13003 176a 15        		.byte	0x15
 13004 176b 00        		.byte	0x0
 13005 176c 05        		.uleb128 0x5
 13006 176d 02        		.byte	0x2
 13007 176e 0000 0000 		.long	.LM714
 13008 1772 12        		.byte	0x12
 13009 1773 00        		.byte	0x0
 13010 1774 05        		.uleb128 0x5
 13011 1775 02        		.byte	0x2
 13012 1776 0000 0000 		.long	.LM715
 13013 177a 15        		.byte	0x15
 13014 177b 00        		.byte	0x0
 13015 177c 05        		.uleb128 0x5
 13016 177d 02        		.byte	0x2
 13017 177e 0000 0000 		.long	.LM716
 13018 1782 15        		.byte	0x15
 13019 1783 00        		.byte	0x0
 13020 1784 05        		.uleb128 0x5
 13021 1785 02        		.byte	0x2
 13022 1786 0000 0000 		.long	.Letext0
 13023 178a 00        		.byte	0x0
GAS LISTING C:\DOCUME~1\KEUNSO~1\LOCALS~1\Temp/ccIyMOV1.s 			page 231


 13024 178b 01        		.uleb128 0x1
 13025 178c 01        		.byte	0x1
 13026               	.LELT0:
 13027 178d 1600 0000 		.section	.debug_str,"MS",@progbits,1
 13027      0200 1000 
 13027      0000 0101 
 13027      FB0E 0A00 
 13027      0101 0101 
 13028               	.LASF54:
 13029 0000 5F5F 7665 		.string	"__vector_20"
 13029      6374 6F72 
 13029      5F32 3000 
 13030               	.LASF49:
 13031 000c 474E 5520 		.string	"GNU C 4.3.3"
 13031      4320 342E 
 13031      332E 3300 
 13032               	.LASF24:
 13033 0018 5654 3130 		.string	"VT102Attribute"
 13033      3241 7474 
 13033      7269 6275 
 13033      7465 00
 13034               	.LASF26:
 13035 0027 6267 636F 		.string	"bgcolor"
 13035      6C6F 7200 
 13036               	.LASF29:
 13037 002f 5654 3130 		.string	"VT102DispStr"
 13037      3244 6973 
 13037      7053 7472 
 13037      00
 13038               	.LASF53:
 13039 003c 7261 6E64 		.string	"random"
 13039      6F6D 00
 13040               	.LASF52:
 13041 0043 4176 7249 		.string	"AvrInit"
 13041      6E69 7400 
 13042               	.LASF18:
 13043 004b 4F53 4576 		.string	"OSEventName"
 13043      656E 744E 
 13043      616D 6500 
 13044               	.LASF12:
 13045 0057 4F53 5F53 		.string	"OS_STK"
 13045      544B 00
 13046               	.LASF55:
 13047 005e 6D61 696E 		.string	"main"
 13047      00
 13048               	.LASF39:
 13049 0063 5461 736B 		.string	"TaskData"
 13049      4461 7461 
 13049      00
 13050               	.LASF15:
 13051 006c 4F53 4576 		.string	"OSEventCnt"
 13051      656E 7443 
 13051      6E74 00
 13052               	.LASF34:
 13053 0077 4F53 4374 		.string	"OSCtxSwCtr"
 13053      7853 7743 
 13053      7472 00
GAS LISTING C:\DOCUME~1\KEUNSO~1\LOCALS~1\Temp/ccIyMOV1.s 			page 232


 13054               	.LASF9:
 13055 0082 494E 5431 		.string	"INT16U"
 13055      3655 00
 13056               	.LASF48:
 13057 0089 6B75 7274 		.string	"kurt"
 13057      00
 13058               	.LASF10:
 13059 008e 494E 5433 		.string	"INT32U"
 13059      3255 00
 13060               	.LASF37:
 13061 0095 5461 736B 		.string	"TaskStk"
 13061      5374 6B00 
 13062               	.LASF51:
 13063 009d 463A 5C70 		.string	"F:\\projects\\truth\\truth\\os\\ucos_ii\\uCOS-II\\AT-AVR\\gcc\\test"
 13063      726F 6A65 
 13063      6374 735C 
 13063      7472 7574 
 13063      685C 7472 
 13064               	.LASF16:
 13065 00d8 4F53 4576 		.string	"OSEventPtr"
 13065      656E 7450 
 13065      7472 00
 13066               	.LASF11:
 13067 00e3 666C 6F61 		.string	"float"
 13067      7400 
 13068               	.LASF30:
 13069 00e9 5654 3130 		.string	"VT102DispChar"
 13069      3244 6973 
 13069      7043 6861 
 13069      7200 
 13070               	.LASF45:
 13071 00f7 5561 7274 		.string	"UartTxWrPtr"
 13071      5478 5772 
 13071      5074 7200 
 13072               	.LASF5:
 13073 0103 6C6F 6E67 		.string	"long long int"
 13073      206C 6F6E 
 13073      6720 696E 
 13073      7400 
 13074               	.LASF21:
 13075 0111 5350 7269 		.string	"SPrintDec"
 13075      6E74 4465 
 13075      6300 
 13076               	.LASF28:
 13077 011b 5075 7444 		.string	"PutDec"
 13077      6563 00
 13078               	.LASF40:
 13079 0122 5261 6E64 		.string	"RandomSem"
 13079      6F6D 5365 
 13079      6D00 
 13080               	.LASF20:
 13081 012c 4F53 5F45 		.string	"OS_EVENT"
 13081      5645 4E54 
 13081      00
 13082               	.LASF3:
 13083 0135 6C6F 6E67 		.string	"long int"
 13083      2069 6E74 
GAS LISTING C:\DOCUME~1\KEUNSO~1\LOCALS~1\Temp/ccIyMOV1.s 			page 233


 13083      00
 13084               	.LASF47:
 13085 013e 5561 7274 		.string	"UartTxSem"
 13085      5478 5365 
 13085      6D00 
 13086               	.LASF8:
 13087 0148 494E 5438 		.string	"INT8S"
 13087      5300 
 13088               	.LASF7:
 13089 014e 494E 5438 		.string	"INT8U"
 13089      5500 
 13090               	.LASF22:
 13091 0154 5075 7443 		.string	"PutChar"
 13091      6861 7200 
 13092               	.LASF1:
 13093 015c 756E 7369 		.string	"unsigned char"
 13093      676E 6564 
 13093      2063 6861 
 13093      7200 
 13094               	.LASF50:
 13095 016a 7465 7374 		.string	"test.c"
 13095      2E63 00
 13096               	.LASF31:
 13097 0171 5461 736B 		.string	"Task"
 13097      00
 13098               	.LASF0:
 13099 0176 7369 676E 		.string	"signed char"
 13099      6564 2063 
 13099      6861 7200 
 13100               	.LASF6:
 13101 0182 6C6F 6E67 		.string	"long long unsigned int"
 13101      206C 6F6E 
 13101      6720 756E 
 13101      7369 676E 
 13101      6564 2069 
 13102               	.LASF41:
 13103 0199 4469 7370 		.string	"DispStrSem"
 13103      5374 7253 
 13103      656D 00
 13104               	.LASF2:
 13105 01a4 756E 7369 		.string	"unsigned int"
 13105      676E 6564 
 13105      2069 6E74 
 13105      00
 13106               	.LASF35:
 13107 01b1 4F53 4350 		.string	"OSCPUUsage"
 13107      5555 7361 
 13107      6765 00
 13108               	.LASF43:
 13109 01bc 5561 7274 		.string	"UartTxBuf"
 13109      5478 4275 
 13109      6600 
 13110               	.LASF36:
 13111 01c6 4F53 5461 		.string	"OSTaskCtr"
 13111      736B 4374 
 13111      7200 
 13112               	.LASF19:
GAS LISTING C:\DOCUME~1\KEUNSO~1\LOCALS~1\Temp/ccIyMOV1.s 			page 234


 13113 01d0 6368 6172 		.string	"char"
 13113      00
 13114               	.LASF46:
 13115 01d5 5561 7274 		.string	"UartTxCount"
 13115      5478 436F 
 13115      756E 7400 
 13116               	.LASF13:
 13117 01e1 4F53 4576 		.string	"OSEventType"
 13117      656E 7454 
 13117      7970 6500 
 13118               	.LASF32:
 13119 01ed 6461 7461 		.string	"data"
 13119      00
 13120               	.LASF25:
 13121 01f2 6667 636F 		.string	"fgcolor"
 13121      6C6F 7200 
 13122               	.LASF4:
 13123 01fa 6C6F 6E67 		.string	"long unsigned int"
 13123      2075 6E73 
 13123      6967 6E65 
 13123      6420 696E 
 13123      7400 
 13124               	.LASF14:
 13125 020c 4F53 4576 		.string	"OSEventGrp"
 13125      656E 7447 
 13125      7270 00
 13126               	.LASF42:
 13127 0217 526E 644E 		.string	"RndNext"
 13127      6578 7400 
 13128               	.LASF23:
 13129 021f 5075 7453 		.string	"PutString"
 13129      7472 696E 
 13129      6700 
 13130               	.LASF38:
 13131 0229 5461 736B 		.string	"TaskStartStk"
 13131      5374 6172 
 13131      7453 746B 
 13131      00
 13132               	.LASF44:
 13133 0236 5561 7274 		.string	"UartTxRdPtr"
 13133      5478 5264 
 13133      5074 7200 
 13134               	.LASF33:
 13135 0242 5461 736B 		.string	"TaskStart"
 13135      5374 6172 
 13135      7400 
 13136               	.LASF17:
 13137 024c 4F53 4576 		.string	"OSEventTbl"
 13137      656E 7454 
 13137      626C 00
 13138               	.LASF27:
 13139 0257 5654 3130 		.string	"VT102DispClrScr"
 13139      3244 6973 
 13139      7043 6C72 
 13139      5363 7200 
 13140               	.global __do_copy_data
 13141               	.global __do_clear_bss
GAS LISTING C:\DOCUME~1\KEUNSO~1\LOCALS~1\Temp/ccIyMOV1.s 			page 235


GAS LISTING C:\DOCUME~1\KEUNSO~1\LOCALS~1\Temp/ccIyMOV1.s 			page 236


DEFINED SYMBOLS
                            *ABS*:00000000 test.c
C:\DOCUME~1\KEUNSO~1\LOCALS~1\Temp/ccIyMOV1.s:2      *ABS*:0000003f __SREG__
C:\DOCUME~1\KEUNSO~1\LOCALS~1\Temp/ccIyMOV1.s:3      *ABS*:0000003e __SP_H__
C:\DOCUME~1\KEUNSO~1\LOCALS~1\Temp/ccIyMOV1.s:4      *ABS*:0000003d __SP_L__
C:\DOCUME~1\KEUNSO~1\LOCALS~1\Temp/ccIyMOV1.s:5      *ABS*:00000034 __CCP__
C:\DOCUME~1\KEUNSO~1\LOCALS~1\Temp/ccIyMOV1.s:6      *ABS*:00000000 __tmp_reg__
C:\DOCUME~1\KEUNSO~1\LOCALS~1\Temp/ccIyMOV1.s:7      *ABS*:00000001 __zero_reg__
C:\DOCUME~1\KEUNSO~1\LOCALS~1\Temp/ccIyMOV1.s:18     .text:00000000 AvrInit
                            *COM*:00000001 UartTxCount
                            *COM*:00000001 UartTxRdPtr
                            *COM*:00000001 UartTxWrPtr
C:\DOCUME~1\KEUNSO~1\LOCALS~1\Temp/ccIyMOV1.s:53     .text:00000024 SPrintDec
C:\DOCUME~1\KEUNSO~1\LOCALS~1\Temp/ccIyMOV1.s:166    .text:000000be random
                            *COM*:00000004 RndNext
C:\DOCUME~1\KEUNSO~1\LOCALS~1\Temp/ccIyMOV1.s:222    .text:0000011e PutChar
                            *COM*:00000100 UartTxBuf
                            *COM*:00000002 UartTxSem
C:\DOCUME~1\KEUNSO~1\LOCALS~1\Temp/ccIyMOV1.s:317    .text:00000194 __vector_20
C:\DOCUME~1\KEUNSO~1\LOCALS~1\Temp/ccIyMOV1.s:389    .text:0000020c main
                            *COM*:00000002 RandomSem
                            *COM*:00000002 DispStrSem
C:\DOCUME~1\KEUNSO~1\LOCALS~1\Temp/ccIyMOV1.s:4180   .text:0000147e TaskStart
                            *COM*:00000200 TaskStartStk
C:\DOCUME~1\KEUNSO~1\LOCALS~1\Temp/ccIyMOV1.s:470    .text:00000296 PutString
C:\DOCUME~1\KEUNSO~1\LOCALS~1\Temp/ccIyMOV1.s:612    .text:00000344 PutDec
C:\DOCUME~1\KEUNSO~1\LOCALS~1\Temp/ccIyMOV1.s:907    .text:000004aa VT102Attribute
C:\DOCUME~1\KEUNSO~1\LOCALS~1\Temp/ccIyMOV1.s:1263   .text:0000065e VT102DispClrScr
C:\DOCUME~1\KEUNSO~1\LOCALS~1\Temp/ccIyMOV1.s:1717   .text:0000088c VT102DispStr
C:\DOCUME~1\KEUNSO~1\LOCALS~1\Temp/ccIyMOV1.s:2536   .text:00000c78 VT102DispChar
C:\DOCUME~1\KEUNSO~1\LOCALS~1\Temp/ccIyMOV1.s:3313   .text:00001036 Task
                            *COM*:0000000a TaskData
                            *COM*:00001400 TaskStk
                            *COM*:00000001 kurt

UNDEFINED SYMBOLS
__udivmodhi4
__mulsi3
__divmodhi4
OSSemPend
OSSemPost
OSInit
OSSemCreate
OSTaskCreate
OSStart
__udivmodqi4
OSTimeDly
OSStatInit
OSTaskCtr
OSCPUUsage
OSCtxSwCtr
OSTimeDlyHMSM
__do_copy_data
__do_clear_bss
