GAS LISTING C:\DOCUME~1\KEUNSO~1\LOCALS~1\Temp/ccWaaqlF.s 			page 1


   1               		.file	"ucos_ii.c"
   2               	__SREG__ = 0x3f
   3               	__SP_H__ = 0x3e
   4               	__SP_L__ = 0x3d
   5               	__CCP__  = 0x34
   6               	__tmp_reg__ = 0
   7               	__zero_reg__ = 1
   8               		.section	.debug_abbrev,"",@progbits
   9               	.Ldebug_abbrev0:
  10               		.section	.debug_info,"",@progbits
  11               	.Ldebug_info0:
  12               		.section	.debug_line,"",@progbits
  13               	.Ldebug_line0:
  14               		.text
  15               	.Ltext0:
  16               	.global	OSIntEnter
  17               		.type	OSIntEnter, @function
  18               	OSIntEnter:
  19               	.LFB5:
  20               	.LM1:
  21               	/* prologue: function */
  22               	/* frame size = 0 */
  23               	.LM2:
  24 0000 8091 0000 		lds r24,OSRunning
  25 0004 8130      		cpi r24,lo8(1)
  26 0006 01F0      		breq .L5
  27               	.L3:
  28 0008 0895      		ret
  29               	.L5:
  30               	.LM3:
  31 000a 8091 0000 		lds r24,OSIntNesting
  32 000e 8F3F      		cpi r24,lo8(-1)
  33 0010 01F0      		breq .L3
  34               	.LM4:
  35 0012 8F5F      		subi r24,lo8(-(1))
  36 0014 8093 0000 		sts OSIntNesting,r24
  37 0018 0895      		ret
  38               	.LFE5:
  39               		.size	OSIntEnter, .-OSIntEnter
  40               	.global	OSVersion
  41               		.type	OSVersion, @function
  42               	OSVersion:
  43               	.LFB10:
  44               	.LM5:
  45               	/* prologue: function */
  46               	/* frame size = 0 */
  47               	.LM6:
  48 001a 84E0      		ldi r24,lo8(260)
  49 001c 91E0      		ldi r25,hi8(260)
  50               	/* epilogue start */
  51 001e 0895      		ret
  52               	.LFE10:
  53               		.size	OSVersion, .-OSVersion
  54               	.global	OS_EventTaskRdy
  55               		.type	OS_EventTaskRdy, @function
  56               	OS_EventTaskRdy:
  57               	.LFB11:
GAS LISTING C:\DOCUME~1\KEUNSO~1\LOCALS~1\Temp/ccWaaqlF.s 			page 2


  58               	.LM7:
  59               	.LVL0:
  60 0020 1F93      		push r17
  61 0022 CF93      		push r28
  62 0024 DF93      		push r29
  63               	/* prologue: function */
  64               	/* frame size = 0 */
  65 0026 C82F      		mov r28,r24
  66 0028 D92F      		mov r29,r25
  67 002a 142F      		mov r17,r20
  68               	.LM8:
  69 002c 3981      		ldd r19,Y+1
  70 002e E32F      		mov r30,r19
  71 0030 F0E0      		ldi r31,lo8(0)
  72 0032 E050      		subi r30,lo8(-(OSUnMapTbl))
  73 0034 F040      		sbci r31,hi8(-(OSUnMapTbl))
  74 0036 2081      		ld r18,Z
  75               	.LVL1:
  76               	.LM9:
  77 0038 622F      		mov r22,r18
  78               	.LVL2:
  79 003a 70E0      		ldi r23,lo8(0)
  80 003c E62F      		mov r30,r22
  81 003e F72F      		mov r31,r23
  82 0040 E050      		subi r30,lo8(-(OSMapTbl))
  83 0042 F040      		sbci r31,hi8(-(OSMapTbl))
  84 0044 4081      		ld r20,Z
  85               	.LVL3:
  86               	.LM10:
  87 0046 A82F      		mov r26,r24
  88 0048 B92F      		mov r27,r25
  89 004a A60F      		add r26,r22
  90 004c B71F      		adc r27,r23
  91 004e 1696      		adiw r26,6
  92 0050 9C91      		ld r25,X
  93 0052 1697      		sbiw r26,6
  94 0054 E92F      		mov r30,r25
  95 0056 F0E0      		ldi r31,lo8(0)
  96 0058 E050      		subi r30,lo8(-(OSUnMapTbl))
  97 005a F040      		sbci r31,hi8(-(OSUnMapTbl))
  98 005c 8081      		ld r24,Z
  99               	.LVL4:
 100               	.LM11:
 101 005e E82F      		mov r30,r24
 102 0060 F0E0      		ldi r31,lo8(0)
 103               	.LVL5:
 104 0062 E050      		subi r30,lo8(-(OSMapTbl))
 105 0064 F040      		sbci r31,hi8(-(OSMapTbl))
 106               	.LVL6:
 107 0066 5081      		ld r21,Z
 108               	.LVL7:
 109               	.LM12:
 110 0068 220F      		lsl r18
 111 006a 220F      		lsl r18
 112 006c 220F      		lsl r18
 113               	.LVL8:
 114 006e 280F      		add r18,r24
GAS LISTING C:\DOCUME~1\KEUNSO~1\LOCALS~1\Temp/ccWaaqlF.s 			page 3


 115               	.LM13:
 116 0070 852F      		mov r24,r21
 117 0072 8095      		com r24
 118 0074 8923      		and r24,r25
 119 0076 1696      		adiw r26,6
 120 0078 8C93      		st X,r24
 121               	.LM14:
 122 007a 8823      		tst r24
 123 007c 01F4      		brne .L9
 124               	.LM15:
 125 007e 842F      		mov r24,r20
 126 0080 8095      		com r24
 127 0082 3823      		and r19,r24
 128 0084 3983      		std Y+1,r19
 129               	.L9:
 130               	.LM16:
 131 0086 E22F      		mov r30,r18
 132               	.LVL9:
 133 0088 F0E0      		ldi r31,lo8(0)
 134               	.LVL10:
 135 008a EE0F      		lsl r30
 136 008c FF1F      		rol r31
 137               	.LVL11:
 138 008e E050      		subi r30,lo8(-(OSTCBPrioTbl))
 139 0090 F040      		sbci r31,hi8(-(OSTCBPrioTbl))
 140               	.LVL12:
 141 0092 0190      		ld __tmp_reg__,Z+
 142 0094 F081      		ld r31,Z
 143 0096 E02D      		mov r30,__tmp_reg__
 144               	.LVL13:
 145               	.LM17:
 146 0098 158A      		std Z+21,__zero_reg__
 147 009a 148A      		std Z+20,__zero_reg__
 148               	.LM18:
 149 009c 138A      		std Z+19,__zero_reg__
 150 009e 128A      		std Z+18,__zero_reg__
 151               	.LM19:
 152 00a0 812F      		mov r24,r17
 153 00a2 8095      		com r24
 154 00a4 9689      		ldd r25,Z+22
 155 00a6 8923      		and r24,r25
 156 00a8 868B      		std Z+22,r24
 157               	.LM20:
 158 00aa 8823      		tst r24
 159 00ac 01F4      		brne .L10
 160               	.LM21:
 161 00ae 8091 0000 		lds r24,OSRdyGrp
 162 00b2 842B      		or r24,r20
 163 00b4 8093 0000 		sts OSRdyGrp,r24
 164               	.LM22:
 165 00b8 E62F      		mov r30,r22
 166 00ba F72F      		mov r31,r23
 167               	.LVL14:
 168 00bc E050      		subi r30,lo8(-(OSRdyTbl))
 169 00be F040      		sbci r31,hi8(-(OSRdyTbl))
 170 00c0 8081      		ld r24,Z
 171 00c2 582B      		or r21,r24
GAS LISTING C:\DOCUME~1\KEUNSO~1\LOCALS~1\Temp/ccWaaqlF.s 			page 4


 172 00c4 5083      		st Z,r21
 173               	.LVL15:
 174               	.L10:
 175               	.LM23:
 176 00c6 822F      		mov r24,r18
 177               	.LVL16:
 178               	/* epilogue start */
 179 00c8 DF91      		pop r29
 180 00ca CF91      		pop r28
 181               	.LVL17:
 182 00cc 1F91      		pop r17
 183               	.LVL18:
 184 00ce 0895      		ret
 185               	.LFE11:
 186               		.size	OS_EventTaskRdy, .-OS_EventTaskRdy
 187               	.global	OS_EventTaskWait
 188               		.type	OS_EventTaskWait, @function
 189               	OS_EventTaskWait:
 190               	.LFB12:
 191               	.LM24:
 192               	.LVL19:
 193 00d0 CF93      		push r28
 194 00d2 DF93      		push r29
 195               	/* prologue: function */
 196               	/* frame size = 0 */
 197 00d4 C82F      		mov r28,r24
 198 00d6 D92F      		mov r29,r25
 199               	.LM25:
 200 00d8 A091 0000 		lds r26,OSTCBCur
 201 00dc B091 0000 		lds r27,(OSTCBCur)+1
 202 00e0 5396      		adiw r26,18+1
 203 00e2 9C93      		st X,r25
 204 00e4 8E93      		st -X,r24
 205 00e6 5297      		sbiw r26,18
 206               	.LM26:
 207 00e8 5996      		adiw r26,25
 208 00ea 8C91      		ld r24,X
 209 00ec 5997      		sbiw r26,25
 210               	.LVL20:
 211 00ee 482F      		mov r20,r24
 212 00f0 50E0      		ldi r21,lo8(0)
 213 00f2 5A96      		adiw r26,26
 214 00f4 3C91      		ld r19,X
 215 00f6 5A97      		sbiw r26,26
 216 00f8 E42F      		mov r30,r20
 217 00fa F52F      		mov r31,r21
 218 00fc E050      		subi r30,lo8(-(OSRdyTbl))
 219 00fe F040      		sbci r31,hi8(-(OSRdyTbl))
 220 0100 832F      		mov r24,r19
 221 0102 8095      		com r24
 222 0104 9081      		ld r25,Z
 223 0106 8923      		and r24,r25
 224 0108 8083      		st Z,r24
 225               	.LM27:
 226 010a 8823      		tst r24
 227 010c 01F4      		brne .L16
 228               	.LM28:
GAS LISTING C:\DOCUME~1\KEUNSO~1\LOCALS~1\Temp/ccWaaqlF.s 			page 5


 229 010e 5B96      		adiw r26,27
 230 0110 2C91      		ld r18,X
 231 0112 922F      		mov r25,r18
 232 0114 9095      		com r25
 233 0116 8091 0000 		lds r24,OSRdyGrp
 234 011a 8923      		and r24,r25
 235 011c 8093 0000 		sts OSRdyGrp,r24
 236               	.L14:
 237               	.LM29:
 238 0120 EC2F      		mov r30,r28
 239 0122 FD2F      		mov r31,r29
 240 0124 E40F      		add r30,r20
 241 0126 F51F      		adc r31,r21
 242 0128 8681      		ldd r24,Z+6
 243 012a 832B      		or r24,r19
 244 012c 8683      		std Z+6,r24
 245               	.LM30:
 246 012e 8981      		ldd r24,Y+1
 247 0130 822B      		or r24,r18
 248 0132 8983      		std Y+1,r24
 249               	/* epilogue start */
 250               	.LM31:
 251 0134 DF91      		pop r29
 252 0136 CF91      		pop r28
 253               	.LVL21:
 254 0138 0895      		ret
 255               	.LVL22:
 256               	.L16:
 257               	.LM32:
 258 013a 5B96      		adiw r26,27
 259 013c 2C91      		ld r18,X
 260 013e 00C0      		rjmp .L14
 261               	.LFE12:
 262               		.size	OS_EventTaskWait, .-OS_EventTaskWait
 263               	.global	OS_EventTO
 264               		.type	OS_EventTO, @function
 265               	OS_EventTO:
 266               	.LFB13:
 267               	.LM33:
 268               	.LVL23:
 269 0140 CF93      		push r28
 270 0142 DF93      		push r29
 271               	/* prologue: function */
 272               	/* frame size = 0 */
 273 0144 C82F      		mov r28,r24
 274 0146 D92F      		mov r29,r25
 275               	.LM34:
 276 0148 A091 0000 		lds r26,OSTCBCur
 277 014c B091 0000 		lds r27,(OSTCBCur)+1
 278               	.LM35:
 279 0150 5996      		adiw r26,25
 280 0152 8C91      		ld r24,X
 281 0154 5997      		sbiw r26,25
 282               	.LVL24:
 283 0156 EC2F      		mov r30,r28
 284 0158 FD2F      		mov r31,r29
 285 015a E80F      		add r30,r24
GAS LISTING C:\DOCUME~1\KEUNSO~1\LOCALS~1\Temp/ccWaaqlF.s 			page 6


 286 015c F11D      		adc r31,__zero_reg__
 287 015e 5A96      		adiw r26,26
 288 0160 8C91      		ld r24,X
 289 0162 5A97      		sbiw r26,26
 290 0164 8095      		com r24
 291 0166 9681      		ldd r25,Z+6
 292 0168 8923      		and r24,r25
 293 016a 8683      		std Z+6,r24
 294               	.LM36:
 295 016c 8823      		tst r24
 296 016e 01F4      		brne .L18
 297               	.LM37:
 298 0170 5B96      		adiw r26,27
 299 0172 9C91      		ld r25,X
 300 0174 5B97      		sbiw r26,27
 301 0176 9095      		com r25
 302 0178 8981      		ldd r24,Y+1
 303 017a 8923      		and r24,r25
 304 017c 8983      		std Y+1,r24
 305               	.L18:
 306               	.LM38:
 307 017e 5696      		adiw r26,22
 308 0180 1C92      		st X,__zero_reg__
 309 0182 5697      		sbiw r26,22
 310               	.LM39:
 311 0184 5396      		adiw r26,18+1
 312 0186 1C92      		st X,__zero_reg__
 313 0188 1E92      		st -X,__zero_reg__
 314 018a 5297      		sbiw r26,18
 315               	/* epilogue start */
 316               	.LM40:
 317 018c DF91      		pop r29
 318 018e CF91      		pop r28
 319               	.LVL25:
 320 0190 0895      		ret
 321               	.LFE13:
 322               		.size	OS_EventTO, .-OS_EventTO
 323               	.global	OS_EventWaitListInit
 324               		.type	OS_EventWaitListInit, @function
 325               	OS_EventWaitListInit:
 326               	.LFB14:
 327               	.LM41:
 328               	.LVL26:
 329               	/* prologue: function */
 330               	/* frame size = 0 */
 331 0192 E82F      		mov r30,r24
 332 0194 F92F      		mov r31,r25
 333               	.LM42:
 334 0196 1182      		std Z+1,__zero_reg__
 335               	.LM43:
 336 0198 1682      		std Z+6,__zero_reg__
 337               	.LM44:
 338 019a 1782      		std Z+7,__zero_reg__
 339               	/* epilogue start */
 340               	.LM45:
 341 019c 0895      		ret
 342               	.LFE14:
GAS LISTING C:\DOCUME~1\KEUNSO~1\LOCALS~1\Temp/ccWaaqlF.s 			page 7


 343               		.size	OS_EventWaitListInit, .-OS_EventWaitListInit
 344               	.global	OSSemAccept
 345               		.type	OSSemAccept, @function
 346               	OSSemAccept:
 347               	.LFB26:
 348               	.LM46:
 349               	.LVL27:
 350               	/* prologue: function */
 351               	/* frame size = 0 */
 352 019e E82F      		mov r30,r24
 353 01a0 F92F      		mov r31,r25
 354               	.LM47:
 355 01a2 8081      		ld r24,Z
 356               	.LVL28:
 357 01a4 8330      		cpi r24,lo8(3)
 358 01a6 01F0      		breq .L23
 359 01a8 20E0      		ldi r18,lo8(0)
 360 01aa 30E0      		ldi r19,hi8(0)
 361               	.LVL29:
 362               	.LM48:
 363 01ac 822F      		mov r24,r18
 364 01ae 932F      		mov r25,r19
 365               	.LVL30:
 366               	/* epilogue start */
 367 01b0 0895      		ret
 368               	.LVL31:
 369               	.L23:
 370               	.LM49:
 371               	/* #APP */
 372               	 ;  55 "./..\..\..\source\os_sem.c" 1
 373 01b2 F894      		cli
 374               	 ;  0 "" 2
 375               	.LM50:
 376               	/* #NOAPP */
 377 01b4 2281      		ldd r18,Z+2
 378 01b6 3381      		ldd r19,Z+3
 379               	.LVL32:
 380               	.LM51:
 381 01b8 2115      		cp r18,__zero_reg__
 382 01ba 3105      		cpc r19,__zero_reg__
 383 01bc 01F0      		breq .L25
 384               	.LM52:
 385 01be 2150      		subi r18,lo8(-(-1))
 386 01c0 3040      		sbci r19,hi8(-(-1))
 387 01c2 3383      		std Z+3,r19
 388 01c4 2283      		std Z+2,r18
 389 01c6 2F5F      		subi r18,lo8(-(1))
 390 01c8 3F4F      		sbci r19,hi8(-(1))
 391               	.L25:
 392               	.LM53:
 393               	/* #APP */
 394               	 ;  60 "./..\..\..\source\os_sem.c" 1
 395 01ca 7894      		sei
 396               	 ;  0 "" 2
 397               	.LM54:
 398               	/* #NOAPP */
 399 01cc 822F      		mov r24,r18
GAS LISTING C:\DOCUME~1\KEUNSO~1\LOCALS~1\Temp/ccWaaqlF.s 			page 8


 400 01ce 932F      		mov r25,r19
 401               	.LVL33:
 402 01d0 0895      		ret
 403               	.LFE26:
 404               		.size	OSSemAccept, .-OSSemAccept
 405               	.global	OSSemQuery
 406               		.type	OSSemQuery, @function
 407               	OSSemQuery:
 408               	.LFB31:
 409               	.LM55:
 410               	.LVL34:
 411               	/* prologue: function */
 412               	/* frame size = 0 */
 413 01d2 E82F      		mov r30,r24
 414 01d4 F92F      		mov r31,r25
 415 01d6 A62F      		mov r26,r22
 416 01d8 B72F      		mov r27,r23
 417               	.LM56:
 418 01da 8081      		ld r24,Z
 419               	.LVL35:
 420 01dc 8330      		cpi r24,lo8(3)
 421 01de 01F0      		breq .L28
 422               	.LVL36:
 423 01e0 81E0      		ldi r24,lo8(1)
 424 01e2 0895      		ret
 425               	.L28:
 426               	.LM57:
 427               	/* #APP */
 428               	 ;  387 "./..\..\..\source\os_sem.c" 1
 429 01e4 F894      		cli
 430               	 ;  0 "" 2
 431               	.LM58:
 432               	/* #NOAPP */
 433 01e6 8181      		ldd r24,Z+1
 434 01e8 1496      		adiw r26,4
 435 01ea 8C93      		st X,r24
 436 01ec 1497      		sbiw r26,4
 437               	.LM59:
 438 01ee 8681      		ldd r24,Z+6
 439 01f0 1296      		adiw r26,2
 440 01f2 8C93      		st X,r24
 441 01f4 1297      		sbiw r26,2
 442               	.LM60:
 443 01f6 8781      		ldd r24,Z+7
 444 01f8 1396      		adiw r26,3
 445 01fa 8C93      		st X,r24
 446 01fc 1397      		sbiw r26,3
 447               	.LM61:
 448 01fe 8281      		ldd r24,Z+2
 449 0200 9381      		ldd r25,Z+3
 450 0202 8D93      		st X+,r24
 451 0204 9C93      		st X,r25
 452               	.LM62:
 453               	/* #APP */
 454               	 ;  423 "./..\..\..\source\os_sem.c" 1
 455 0206 7894      		sei
 456               	 ;  0 "" 2
GAS LISTING C:\DOCUME~1\KEUNSO~1\LOCALS~1\Temp/ccWaaqlF.s 			page 9


 457               	/* #NOAPP */
 458 0208 80E0      		ldi r24,lo8(0)
 459               	.LM63:
 460 020a 0895      		ret
 461               	.LFE31:
 462               		.size	OSSemQuery, .-OSSemQuery
 463               	.global	OSTaskStkChk
 464               		.type	OSTaskStkChk, @function
 465               	OSTaskStkChk:
 466               	.LFB36:
 467               	.LM64:
 468               	.LVL37:
 469 020c EF92      		push r14
 470 020e FF92      		push r15
 471 0210 0F93      		push r16
 472 0212 1F93      		push r17
 473 0214 CF93      		push r28
 474 0216 DF93      		push r29
 475               	/* prologue: function */
 476               	/* frame size = 0 */
 477 0218 C62F      		mov r28,r22
 478 021a D72F      		mov r29,r23
 479               	.LM65:
 480 021c 1882      		st Y,__zero_reg__
 481 021e 1982      		std Y+1,__zero_reg__
 482 0220 1A82      		std Y+2,__zero_reg__
 483 0222 1B82      		std Y+3,__zero_reg__
 484               	.LM66:
 485 0224 1C82      		std Y+4,__zero_reg__
 486 0226 1D82      		std Y+5,__zero_reg__
 487 0228 1E82      		std Y+6,__zero_reg__
 488 022a 1F82      		std Y+7,__zero_reg__
 489               	.LM67:
 490               	/* #APP */
 491               	 ;  757 "./..\..\..\source\os_task.c" 1
 492 022c F894      		cli
 493               	 ;  0 "" 2
 494               	.LM68:
 495               	/* #NOAPP */
 496 022e 8F3F      		cpi r24,lo8(-1)
 497 0230 01F0      		breq .L42
 498               	.LVL38:
 499               	.L32:
 500               	.LM69:
 501 0232 E82F      		mov r30,r24
 502 0234 F0E0      		ldi r31,lo8(0)
 503               	.LVL39:
 504 0236 EE0F      		lsl r30
 505 0238 FF1F      		rol r31
 506               	.LVL40:
 507 023a E050      		subi r30,lo8(-(OSTCBPrioTbl))
 508 023c F040      		sbci r31,hi8(-(OSTCBPrioTbl))
 509               	.LVL41:
 510 023e 0190      		ld __tmp_reg__,Z+
 511 0240 F081      		ld r31,Z
 512 0242 E02D      		mov r30,__tmp_reg__
 513               	.LVL42:
GAS LISTING C:\DOCUME~1\KEUNSO~1\LOCALS~1\Temp/ccWaaqlF.s 			page 10


 514               	.LM70:
 515 0244 3097      		sbiw r30,0
 516 0246 01F0      		breq .L43
 517               	.LM71:
 518 0248 E130      		cpi r30,1
 519 024a F105      		cpc r31,__zero_reg__
 520 024c 01F4      		brne .+2
 521 024e 00C0      		rjmp .L44
 522               	.LM72:
 523 0250 8285      		ldd r24,Z+10
 524 0252 80FD      		sbrc r24,0
 525 0254 00C0      		rjmp .L36
 526               	.LM73:
 527               	/* #APP */
 528               	 ;  771 "./..\..\..\source\os_task.c" 1
 529 0256 7894      		sei
 530               	 ;  0 "" 2
 531               	/* #NOAPP */
 532 0258 82E8      		ldi r24,lo8(-126)
 533               	/* epilogue start */
 534               	.LM74:
 535 025a DF91      		pop r29
 536 025c CF91      		pop r28
 537               	.LVL43:
 538 025e 1F91      		pop r17
 539 0260 0F91      		pop r16
 540 0262 FF90      		pop r15
 541 0264 EF90      		pop r14
 542 0266 0895      		ret
 543               	.LVL44:
 544               	.L42:
 545               	.LM75:
 546 0268 E091 0000 		lds r30,OSTCBCur
 547 026c F091 0000 		lds r31,(OSTCBCur)+1
 548 0270 8789      		ldd r24,Z+23
 549               	.LVL45:
 550 0272 00C0      		rjmp .L32
 551               	.LVL46:
 552               	.L43:
 553               	.LM76:
 554               	/* #APP */
 555               	 ;  763 "./..\..\..\source\os_task.c" 1
 556 0274 7894      		sei
 557               	 ;  0 "" 2
 558               	/* #NOAPP */
 559 0276 8BE0      		ldi r24,lo8(11)
 560               	.LM77:
 561 0278 DF91      		pop r29
 562 027a CF91      		pop r28
 563               	.LVL47:
 564 027c 1F91      		pop r17
 565 027e 0F91      		pop r16
 566 0280 FF90      		pop r15
 567 0282 EF90      		pop r14
 568 0284 0895      		ret
 569               	.LVL48:
 570               	.L36:
GAS LISTING C:\DOCUME~1\KEUNSO~1\LOCALS~1\Temp/ccWaaqlF.s 			page 11


 571               	.LM78:
 572 0286 E680      		ldd r14,Z+6
 573 0288 F780      		ldd r15,Z+7
 574 028a 0085      		ldd r16,Z+8
 575 028c 1185      		ldd r17,Z+9
 576               	.LVL49:
 577               	.LM79:
 578 028e A481      		ldd r26,Z+4
 579 0290 B581      		ldd r27,Z+5
 580               	.LVL50:
 581               	.LM80:
 582               	/* #APP */
 583               	 ;  777 "./..\..\..\source\os_task.c" 1
 584 0292 7894      		sei
 585               	 ;  0 "" 2
 586               	.LM81:
 587               	/* #NOAPP */
 588 0294 8C91      		ld r24,X
 589 0296 8823      		tst r24
 590 0298 01F4      		brne .L45
 591 029a 20E0      		ldi r18,lo8(0)
 592 029c 30E0      		ldi r19,hi8(0)
 593 029e 40E0      		ldi r20,hlo8(0)
 594 02a0 50E0      		ldi r21,hhi8(0)
 595               	.LVL51:
 596               	.L39:
 597               	.LM82:
 598 02a2 2F5F      		subi r18,lo8(-(1))
 599 02a4 3F4F      		sbci r19,hi8(-(1))
 600 02a6 4F4F      		sbci r20,hlo8(-(1))
 601 02a8 5F4F      		sbci r21,hhi8(-(1))
 602               	.LM83:
 603 02aa EA2F      		mov r30,r26
 604 02ac FB2F      		mov r31,r27
 605               	.LVL52:
 606 02ae E20F      		add r30,r18
 607 02b0 F31F      		adc r31,r19
 608 02b2 8081      		ld r24,Z
 609 02b4 8823      		tst r24
 610 02b6 01F0      		breq .L39
 611               	.LVL53:
 612               	.L38:
 613               	.LM84:
 614 02b8 2883      		st Y,r18
 615 02ba 3983      		std Y+1,r19
 616 02bc 4A83      		std Y+2,r20
 617 02be 5B83      		std Y+3,r21
 618               	.LM85:
 619 02c0 E21A      		sub r14,r18
 620 02c2 F30A      		sbc r15,r19
 621 02c4 040B      		sbc r16,r20
 622 02c6 150B      		sbc r17,r21
 623 02c8 EC82      		std Y+4,r14
 624 02ca FD82      		std Y+5,r15
 625 02cc 0E83      		std Y+6,r16
 626 02ce 1F83      		std Y+7,r17
 627 02d0 80E0      		ldi r24,lo8(0)
GAS LISTING C:\DOCUME~1\KEUNSO~1\LOCALS~1\Temp/ccWaaqlF.s 			page 12


 628               	.LM86:
 629 02d2 DF91      		pop r29
 630 02d4 CF91      		pop r28
 631               	.LVL54:
 632 02d6 1F91      		pop r17
 633 02d8 0F91      		pop r16
 634 02da FF90      		pop r15
 635 02dc EF90      		pop r14
 636               	.LVL55:
 637 02de 0895      		ret
 638               	.LVL56:
 639               	.L44:
 640               	.LM87:
 641               	/* #APP */
 642               	 ;  767 "./..\..\..\source\os_task.c" 1
 643 02e0 7894      		sei
 644               	 ;  0 "" 2
 645               	/* #NOAPP */
 646 02e2 8BE0      		ldi r24,lo8(11)
 647               	.LM88:
 648 02e4 DF91      		pop r29
 649 02e6 CF91      		pop r28
 650               	.LVL57:
 651 02e8 1F91      		pop r17
 652 02ea 0F91      		pop r16
 653 02ec FF90      		pop r15
 654 02ee EF90      		pop r14
 655 02f0 0895      		ret
 656               	.LVL58:
 657               	.L45:
 658               	.LM89:
 659 02f2 20E0      		ldi r18,lo8(0)
 660 02f4 30E0      		ldi r19,hi8(0)
 661 02f6 40E0      		ldi r20,hlo8(0)
 662 02f8 50E0      		ldi r21,hhi8(0)
 663               	.LVL59:
 664 02fa 00C0      		rjmp .L38
 665               	.LFE36:
 666               		.size	OSTaskStkChk, .-OSTaskStkChk
 667               	.global	OS_TaskStkClr
 668               		.type	OS_TaskStkClr, @function
 669               	OS_TaskStkClr:
 670               	.LFB38:
 671               	.LM90:
 672               	.LVL60:
 673               	/* prologue: function */
 674               	/* frame size = 0 */
 675 02fc E82F      		mov r30,r24
 676 02fe F92F      		mov r31,r25
 677               	.LM91:
 678 0300 20FF      		sbrs r18,0
 679 0302 00C0      		rjmp .L49
 680               	.LVL61:
 681               	.LM92:
 682 0304 21FD      		sbrc r18,1
 683 0306 00C0      		rjmp .L52
 684               	.L49:
GAS LISTING C:\DOCUME~1\KEUNSO~1\LOCALS~1\Temp/ccWaaqlF.s 			page 13


 685 0308 0895      		ret
 686               	.L50:
 687               	.LM93:
 688 030a 4150      		subi r20,lo8(-(-1))
 689 030c 5040      		sbci r21,hi8(-(-1))
 690 030e 6040      		sbci r22,hlo8(-(-1))
 691 0310 7040      		sbci r23,hhi8(-(-1))
 692               	.LVL62:
 693               	.LM94:
 694 0312 1192      		st Z+,__zero_reg__
 695               	.L52:
 696               	.LM95:
 697 0314 4115      		cp r20,__zero_reg__
 698 0316 5105      		cpc r21,__zero_reg__
 699 0318 6105      		cpc r22,__zero_reg__
 700 031a 7105      		cpc r23,__zero_reg__
 701 031c 01F4      		brne .L50
 702 031e 0895      		ret
 703               	.LFE38:
 704               		.size	OS_TaskStkClr, .-OS_TaskStkClr
 705               	.global	OSTimeGet
 706               		.type	OSTimeGet, @function
 707               	OSTimeGet:
 708               	.LFB42:
 709               	.LM96:
 710               	/* prologue: function */
 711               	/* frame size = 0 */
 712               	.LM97:
 713               	/* #APP */
 714               	 ;  204 "./..\..\..\source\os_time.c" 1
 715 0320 F894      		cli
 716               	 ;  0 "" 2
 717               	.LM98:
 718               	/* #NOAPP */
 719 0322 2091 0000 		lds r18,OSTime
 720 0326 3091 0000 		lds r19,(OSTime)+1
 721 032a 4091 0000 		lds r20,(OSTime)+2
 722 032e 5091 0000 		lds r21,(OSTime)+3
 723               	.LVL63:
 724               	.LM99:
 725               	/* #APP */
 726               	 ;  206 "./..\..\..\source\os_time.c" 1
 727 0332 7894      		sei
 728               	 ;  0 "" 2
 729               	.LM100:
 730               	/* #NOAPP */
 731 0334 622F      		mov r22,r18
 732 0336 732F      		mov r23,r19
 733               	.LVL64:
 734 0338 842F      		mov r24,r20
 735               	.LVL65:
 736 033a 952F      		mov r25,r21
 737               	.LVL66:
 738               	/* epilogue start */
 739 033c 0895      		ret
 740               	.LFE42:
 741               		.size	OSTimeGet, .-OSTimeGet
GAS LISTING C:\DOCUME~1\KEUNSO~1\LOCALS~1\Temp/ccWaaqlF.s 			page 14


 742               	.global	OSTimeSet
 743               		.type	OSTimeSet, @function
 744               	OSTimeSet:
 745               	.LFB43:
 746               	.LM101:
 747               	.LVL67:
 748               	/* prologue: function */
 749               	/* frame size = 0 */
 750               	.LM102:
 751               	/* #APP */
 752               	 ;  231 "./..\..\..\source\os_time.c" 1
 753 033e F894      		cli
 754               	 ;  0 "" 2
 755               	.LM103:
 756               	/* #NOAPP */
 757 0340 6093 0000 		sts OSTime,r22
 758 0344 7093 0000 		sts (OSTime)+1,r23
 759 0348 8093 0000 		sts (OSTime)+2,r24
 760 034c 9093 0000 		sts (OSTime)+3,r25
 761               	.LM104:
 762               	/* #APP */
 763               	 ;  233 "./..\..\..\source\os_time.c" 1
 764 0350 7894      		sei
 765               	 ;  0 "" 2
 766               	/* epilogue start */
 767               	.LM105:
 768               	/* #NOAPP */
 769 0352 0895      		ret
 770               	.LFE43:
 771               		.size	OSTimeSet, .-OSTimeSet
 772               	.global	OSTaskQuery
 773               		.type	OSTaskQuery, @function
 774               	OSTaskQuery:
 775               	.LFB37:
 776               	.LM106:
 777               	.LVL68:
 778               	/* prologue: function */
 779               	/* frame size = 0 */
 780               	.LM107:
 781               	/* #APP */
 782               	 ;  895 "./..\..\..\source\os_task.c" 1
 783 0354 F894      		cli
 784               	 ;  0 "" 2
 785               	.LM108:
 786               	/* #NOAPP */
 787 0356 8F3F      		cpi r24,lo8(-1)
 788 0358 01F0      		breq .L64
 789               	.L58:
 790               	.LM109:
 791 035a E82F      		mov r30,r24
 792 035c F0E0      		ldi r31,lo8(0)
 793               	.LVL69:
 794 035e EE0F      		lsl r30
 795 0360 FF1F      		rol r31
 796               	.LVL70:
 797 0362 E050      		subi r30,lo8(-(OSTCBPrioTbl))
 798 0364 F040      		sbci r31,hi8(-(OSTCBPrioTbl))
GAS LISTING C:\DOCUME~1\KEUNSO~1\LOCALS~1\Temp/ccWaaqlF.s 			page 15


 799               	.LVL71:
 800 0366 0190      		ld __tmp_reg__,Z+
 801 0368 F081      		ld r31,Z
 802 036a E02D      		mov r30,__tmp_reg__
 803               	.LVL72:
 804               	.LM110:
 805 036c 3097      		sbiw r30,0
 806 036e 01F0      		breq .L65
 807               	.LM111:
 808 0370 262F      		mov r18,r22
 809 0372 372F      		mov r19,r23
 810               	.LVL73:
 811 0374 A22F      		mov r26,r18
 812 0376 B32F      		mov r27,r19
 813 0378 8EE4      		ldi r24,lo8(78)
 814               	.LVL74:
 815               	.L61:
 816 037a 0190      		ld r0,Z+
 817 037c 0D92      		st X+,r0
 818 037e 8150      		subi r24,lo8(-(-1))
 819 0380 01F4      		brne .L61
 820               	.LM112:
 821               	/* #APP */
 822               	 ;  905 "./..\..\..\source\os_task.c" 1
 823 0382 7894      		sei
 824               	 ;  0 "" 2
 825               	.LM113:
 826               	/* #NOAPP */
 827 0384 0895      		ret
 828               	.LVL75:
 829               	.L65:
 830               	.LM114:
 831               	/* #APP */
 832               	 ;  901 "./..\..\..\source\os_task.c" 1
 833 0386 7894      		sei
 834               	 ;  0 "" 2
 835               	/* #NOAPP */
 836 0388 89E2      		ldi r24,lo8(41)
 837 038a 0895      		ret
 838               	.LVL76:
 839               	.L64:
 840               	.LM115:
 841 038c E091 0000 		lds r30,OSTCBCur
 842 0390 F091 0000 		lds r31,(OSTCBCur)+1
 843 0394 8789      		ldd r24,Z+23
 844               	.LVL77:
 845 0396 00C0      		rjmp .L58
 846               	.LFE37:
 847               		.size	OSTaskQuery, .-OSTaskQuery
 848               	.global	OSTaskNameSet
 849               		.type	OSTaskNameSet, @function
 850               	OSTaskNameSet:
 851               	.LFB35:
 852               	.LM116:
 853               	.LVL78:
 854 0398 CF93      		push r28
 855 039a DF93      		push r29
GAS LISTING C:\DOCUME~1\KEUNSO~1\LOCALS~1\Temp/ccWaaqlF.s 			page 16


 856               	/* prologue: function */
 857               	/* frame size = 0 */
 858 039c C42F      		mov r28,r20
 859 039e D52F      		mov r29,r21
 860               	.LM117:
 861               	/* #APP */
 862               	 ;  624 "./..\..\..\source\os_task.c" 1
 863 03a0 F894      		cli
 864               	 ;  0 "" 2
 865               	.LM118:
 866               	/* #NOAPP */
 867 03a2 8F3F      		cpi r24,lo8(-1)
 868 03a4 01F0      		breq .L72
 869               	.LVL79:
 870               	.L67:
 871               	.LM119:
 872 03a6 E82F      		mov r30,r24
 873 03a8 F0E0      		ldi r31,lo8(0)
 874               	.LVL80:
 875 03aa EE0F      		lsl r30
 876 03ac FF1F      		rol r31
 877               	.LVL81:
 878 03ae E050      		subi r30,lo8(-(OSTCBPrioTbl))
 879 03b0 F040      		sbci r31,hi8(-(OSTCBPrioTbl))
 880               	.LVL82:
 881 03b2 8081      		ld r24,Z
 882 03b4 9181      		ldd r25,Z+1
 883               	.LVL83:
 884               	.LM120:
 885 03b6 0097      		sbiw r24,0
 886 03b8 01F0      		breq .L73
 887               	.LM121:
 888 03ba A62F      		mov r26,r22
 889 03bc B72F      		mov r27,r23
 890               	.LVL84:
 891 03be EA2F      		mov r30,r26
 892 03c0 FB2F      		mov r31,r27
 893               	.LVL85:
 894 03c2 0190      		ld __tmp_reg__,Z+
 895 03c4 0020      		tst __tmp_reg__
 896 03c6 01F4      		brne .-6
 897 03c8 3197      		sbiw r30,1
 898 03ca EA1B      		sub r30,r26
 899 03cc FB0B      		sbc r31,r27
 900               	.LM122:
 901 03ce E032      		cpi r30,lo8(32)
 902 03d0 00F0      		brlo .L70
 903               	.LVL86:
 904               	.LM123:
 905               	/* #APP */
 906               	 ;  649 "./..\..\..\source\os_task.c" 1
 907 03d2 7894      		sei
 908               	 ;  0 "" 2
 909               	.LM124:
 910               	/* #NOAPP */
 911 03d4 8EE0      		ldi r24,lo8(14)
 912               	.LVL87:
GAS LISTING C:\DOCUME~1\KEUNSO~1\LOCALS~1\Temp/ccWaaqlF.s 			page 17


 913 03d6 8883      		st Y,r24
 914               	/* epilogue start */
 915               	.LM125:
 916 03d8 DF91      		pop r29
 917 03da CF91      		pop r28
 918               	.LVL88:
 919 03dc 0895      		ret
 920               	.LVL89:
 921               	.L70:
 922               	.LM126:
 923 03de 8E96      		adiw r24,46
 924               	.LVL90:
 925 03e0 0E94 0000 		call strcpy
 926               	.LVL91:
 927               	.LM127:
 928               	/* #APP */
 929               	 ;  654 "./..\..\..\source\os_task.c" 1
 930 03e4 7894      		sei
 931               	 ;  0 "" 2
 932               	.LM128:
 933               	/* #NOAPP */
 934 03e6 1882      		st Y,__zero_reg__
 935               	.LM129:
 936 03e8 DF91      		pop r29
 937 03ea CF91      		pop r28
 938               	.LVL92:
 939 03ec 0895      		ret
 940               	.LVL93:
 941               	.L72:
 942               	.LM130:
 943 03ee E091 0000 		lds r30,OSTCBCur
 944 03f2 F091 0000 		lds r31,(OSTCBCur)+1
 945 03f6 8789      		ldd r24,Z+23
 946               	.LVL94:
 947 03f8 00C0      		rjmp .L67
 948               	.LVL95:
 949               	.L73:
 950               	.LM131:
 951               	/* #APP */
 952               	 ;  643 "./..\..\..\source\os_task.c" 1
 953 03fa 7894      		sei
 954               	 ;  0 "" 2
 955               	.LM132:
 956               	/* #NOAPP */
 957 03fc 8BE0      		ldi r24,lo8(11)
 958               	.LVL96:
 959 03fe 8883      		st Y,r24
 960               	.LM133:
 961 0400 DF91      		pop r29
 962 0402 CF91      		pop r28
 963               	.LVL97:
 964 0404 0895      		ret
 965               	.LFE35:
 966               		.size	OSTaskNameSet, .-OSTaskNameSet
 967               	.global	OSTaskNameGet
 968               		.type	OSTaskNameGet, @function
 969               	OSTaskNameGet:
GAS LISTING C:\DOCUME~1\KEUNSO~1\LOCALS~1\Temp/ccWaaqlF.s 			page 18


 970               	.LFB34:
 971               	.LM134:
 972               	.LVL98:
 973 0406 0F93      		push r16
 974 0408 1F93      		push r17
 975 040a CF93      		push r28
 976 040c DF93      		push r29
 977               	/* prologue: function */
 978               	/* frame size = 0 */
 979 040e 162F      		mov r17,r22
 980 0410 072F      		mov r16,r23
 981               	.LVL99:
 982 0412 C42F      		mov r28,r20
 983 0414 D52F      		mov r29,r21
 984               	.LM135:
 985               	/* #APP */
 986               	 ;  559 "./..\..\..\source\os_task.c" 1
 987 0416 F894      		cli
 988               	 ;  0 "" 2
 989               	.LM136:
 990               	/* #NOAPP */
 991 0418 8F3F      		cpi r24,lo8(-1)
 992 041a 01F0      		breq .L79
 993               	.LVL100:
 994               	.L75:
 995               	.LM137:
 996 041c E82F      		mov r30,r24
 997 041e F0E0      		ldi r31,lo8(0)
 998               	.LVL101:
 999 0420 EE0F      		lsl r30
 1000 0422 FF1F      		rol r31
 1001               	.LVL102:
 1002 0424 E050      		subi r30,lo8(-(OSTCBPrioTbl))
 1003 0426 F040      		sbci r31,hi8(-(OSTCBPrioTbl))
 1004               	.LVL103:
 1005 0428 6081      		ld r22,Z
 1006 042a 7181      		ldd r23,Z+1
 1007               	.LVL104:
 1008               	.LM138:
 1009 042c 6115      		cp r22,__zero_reg__
 1010 042e 7105      		cpc r23,__zero_reg__
 1011 0430 01F0      		breq .L80
 1012               	.LM139:
 1013 0432 625D      		subi r22,lo8(-(46))
 1014 0434 7F4F      		sbci r23,hi8(-(46))
 1015 0436 812F      		mov r24,r17
 1016 0438 902F      		mov r25,r16
 1017 043a 0E94 0000 		call strcpy
 1018               	.LVL105:
 1019               	.LM140:
 1020 043e A12F      		mov r26,r17
 1021 0440 B02F      		mov r27,r16
 1022 0442 EA2F      		mov r30,r26
 1023 0444 FB2F      		mov r31,r27
 1024 0446 0190      		ld __tmp_reg__,Z+
 1025 0448 0020      		tst __tmp_reg__
 1026 044a 01F4      		brne .-6
GAS LISTING C:\DOCUME~1\KEUNSO~1\LOCALS~1\Temp/ccWaaqlF.s 			page 19


 1027 044c 3197      		sbiw r30,1
 1028 044e 8E2F      		mov r24,r30
 1029               	.LVL106:
 1030 0450 811B      		sub r24,r17
 1031               	.LM141:
 1032               	/* #APP */
 1033               	 ;  582 "./..\..\..\source\os_task.c" 1
 1034 0452 7894      		sei
 1035               	 ;  0 "" 2
 1036               	.LM142:
 1037               	/* #NOAPP */
 1038 0454 1882      		st Y,__zero_reg__
 1039               	.LVL107:
 1040               	/* epilogue start */
 1041               	.LM143:
 1042 0456 DF91      		pop r29
 1043 0458 CF91      		pop r28
 1044               	.LVL108:
 1045 045a 1F91      		pop r17
 1046               	.LVL109:
 1047 045c 0F91      		pop r16
 1048               	.LVL110:
 1049 045e 0895      		ret
 1050               	.LVL111:
 1051               	.L79:
 1052               	.LM144:
 1053 0460 E091 0000 		lds r30,OSTCBCur
 1054 0464 F091 0000 		lds r31,(OSTCBCur)+1
 1055 0468 8789      		ldd r24,Z+23
 1056               	.LVL112:
 1057 046a 00C0      		rjmp .L75
 1058               	.LVL113:
 1059               	.L80:
 1060               	.LM145:
 1061               	/* #APP */
 1062               	 ;  576 "./..\..\..\source\os_task.c" 1
 1063 046c 7894      		sei
 1064               	 ;  0 "" 2
 1065               	.LM146:
 1066               	/* #NOAPP */
 1067 046e 8BE0      		ldi r24,lo8(11)
 1068 0470 8883      		st Y,r24
 1069 0472 80E0      		ldi r24,lo8(0)
 1070               	.LVL114:
 1071               	.LVL115:
 1072               	.LM147:
 1073 0474 DF91      		pop r29
 1074 0476 CF91      		pop r28
 1075               	.LVL116:
 1076 0478 1F91      		pop r17
 1077               	.LVL117:
 1078 047a 0F91      		pop r16
 1079               	.LVL118:
 1080 047c 0895      		ret
 1081               	.LFE34:
 1082               		.size	OSTaskNameGet, .-OSTaskNameGet
 1083               	.global	OSEventNameSet
GAS LISTING C:\DOCUME~1\KEUNSO~1\LOCALS~1\Temp/ccWaaqlF.s 			page 20


 1084               		.type	OSEventNameSet, @function
 1085               	OSEventNameSet:
 1086               	.LFB3:
 1087               	.LM148:
 1088               	.LVL119:
 1089 047e CF93      		push r28
 1090 0480 DF93      		push r29
 1091               	/* prologue: function */
 1092               	/* frame size = 0 */
 1093 0482 282F      		mov r18,r24
 1094 0484 392F      		mov r19,r25
 1095 0486 C42F      		mov r28,r20
 1096 0488 D52F      		mov r29,r21
 1097               	.LM149:
 1098               	/* #APP */
 1099               	 ;  307 "./..\..\..\source\os_core.c" 1
 1100 048a F894      		cli
 1101               	 ;  0 "" 2
 1102               	.LM150:
 1103               	/* #NOAPP */
 1104 048c E82F      		mov r30,r24
 1105 048e F92F      		mov r31,r25
 1106 0490 8081      		ld r24,Z
 1107               	.LVL120:
 1108 0492 8150      		subi r24,lo8(-(-1))
 1109 0494 8430      		cpi r24,lo8(4)
 1110 0496 00F4      		brsh .L88
 1111               	.LVL121:
 1112               	.LM151:
 1113 0498 A62F      		mov r26,r22
 1114 049a B72F      		mov r27,r23
 1115               	.LVL122:
 1116 049c EA2F      		mov r30,r26
 1117 049e FB2F      		mov r31,r27
 1118 04a0 0190      		ld __tmp_reg__,Z+
 1119 04a2 0020      		tst __tmp_reg__
 1120 04a4 01F4      		brne .-6
 1121 04a6 3197      		sbiw r30,1
 1122 04a8 EA1B      		sub r30,r26
 1123 04aa FB0B      		sbc r31,r27
 1124               	.LM152:
 1125 04ac E032      		cpi r30,lo8(32)
 1126 04ae 00F0      		brlo .L85
 1127               	.LVL123:
 1128               	.LM153:
 1129               	/* #APP */
 1130               	 ;  334 "./..\..\..\source\os_core.c" 1
 1131 04b0 7894      		sei
 1132               	 ;  0 "" 2
 1133               	.LM154:
 1134               	/* #NOAPP */
 1135 04b2 8CE0      		ldi r24,lo8(12)
 1136 04b4 8883      		st Y,r24
 1137               	.LM155:
 1138 04b6 DF91      		pop r29
 1139 04b8 CF91      		pop r28
 1140               	.LVL124:
GAS LISTING C:\DOCUME~1\KEUNSO~1\LOCALS~1\Temp/ccWaaqlF.s 			page 21


 1141 04ba 0895      		ret
 1142               	.LVL125:
 1143               	.L88:
 1144               	.LM156:
 1145               	/* #APP */
 1146               	 ;  328 "./..\..\..\source\os_core.c" 1
 1147 04bc 7894      		sei
 1148               	 ;  0 "" 2
 1149               	.LM157:
 1150               	/* #NOAPP */
 1151 04be 81E0      		ldi r24,lo8(1)
 1152 04c0 8883      		st Y,r24
 1153               	/* epilogue start */
 1154               	.LM158:
 1155 04c2 DF91      		pop r29
 1156 04c4 CF91      		pop r28
 1157               	.LVL126:
 1158 04c6 0895      		ret
 1159               	.LVL127:
 1160               	.L85:
 1161               	.LM159:
 1162 04c8 822F      		mov r24,r18
 1163 04ca 932F      		mov r25,r19
 1164 04cc 0896      		adiw r24,8
 1165 04ce 0E94 0000 		call strcpy
 1166               	.LVL128:
 1167               	.LM160:
 1168               	/* #APP */
 1169               	 ;  339 "./..\..\..\source\os_core.c" 1
 1170 04d2 7894      		sei
 1171               	 ;  0 "" 2
 1172               	.LM161:
 1173               	/* #NOAPP */
 1174 04d4 1882      		st Y,__zero_reg__
 1175               	.LM162:
 1176 04d6 DF91      		pop r29
 1177 04d8 CF91      		pop r28
 1178               	.LVL129:
 1179 04da 0895      		ret
 1180               	.LFE3:
 1181               		.size	OSEventNameSet, .-OSEventNameSet
 1182               	.global	OSEventNameGet
 1183               		.type	OSEventNameGet, @function
 1184               	OSEventNameGet:
 1185               	.LFB2:
 1186               	.LM163:
 1187               	.LVL130:
 1188 04dc 0F93      		push r16
 1189 04de 1F93      		push r17
 1190 04e0 CF93      		push r28
 1191 04e2 DF93      		push r29
 1192               	/* prologue: function */
 1193               	/* frame size = 0 */
 1194 04e4 E82F      		mov r30,r24
 1195 04e6 F92F      		mov r31,r25
 1196 04e8 162F      		mov r17,r22
 1197 04ea 072F      		mov r16,r23
GAS LISTING C:\DOCUME~1\KEUNSO~1\LOCALS~1\Temp/ccWaaqlF.s 			page 22


 1198               	.LVL131:
 1199 04ec C42F      		mov r28,r20
 1200 04ee D52F      		mov r29,r21
 1201               	.LM164:
 1202               	/* #APP */
 1203               	 ;  238 "./..\..\..\source\os_core.c" 1
 1204 04f0 F894      		cli
 1205               	 ;  0 "" 2
 1206               	.LM165:
 1207               	/* #NOAPP */
 1208 04f2 8081      		ld r24,Z
 1209               	.LVL132:
 1210 04f4 8150      		subi r24,lo8(-(-1))
 1211 04f6 8430      		cpi r24,lo8(4)
 1212 04f8 00F4      		brsh .L95
 1213               	.LVL133:
 1214               	.LM166:
 1215 04fa 3896      		adiw r30,8
 1216 04fc 862F      		mov r24,r22
 1217 04fe 972F      		mov r25,r23
 1218 0500 6E2F      		mov r22,r30
 1219 0502 7F2F      		mov r23,r31
 1220 0504 0E94 0000 		call strcpy
 1221               	.LVL134:
 1222               	.LM167:
 1223 0508 A12F      		mov r26,r17
 1224 050a B02F      		mov r27,r16
 1225 050c EA2F      		mov r30,r26
 1226 050e FB2F      		mov r31,r27
 1227 0510 0190      		ld __tmp_reg__,Z+
 1228 0512 0020      		tst __tmp_reg__
 1229 0514 01F4      		brne .-6
 1230 0516 3197      		sbiw r30,1
 1231 0518 8E2F      		mov r24,r30
 1232               	.LVL135:
 1233 051a 811B      		sub r24,r17
 1234               	.LM168:
 1235               	/* #APP */
 1236               	 ;  265 "./..\..\..\source\os_core.c" 1
 1237 051c 7894      		sei
 1238               	 ;  0 "" 2
 1239               	.LM169:
 1240               	/* #NOAPP */
 1241 051e 1882      		st Y,__zero_reg__
 1242               	.LVL136:
 1243               	/* epilogue start */
 1244               	.LM170:
 1245 0520 DF91      		pop r29
 1246 0522 CF91      		pop r28
 1247               	.LVL137:
 1248 0524 1F91      		pop r17
 1249               	.LVL138:
 1250 0526 0F91      		pop r16
 1251               	.LVL139:
 1252 0528 0895      		ret
 1253               	.LVL140:
 1254               	.L95:
GAS LISTING C:\DOCUME~1\KEUNSO~1\LOCALS~1\Temp/ccWaaqlF.s 			page 23


 1255               	.LM171:
 1256               	/* #APP */
 1257               	 ;  259 "./..\..\..\source\os_core.c" 1
 1258 052a 7894      		sei
 1259               	 ;  0 "" 2
 1260               	.LM172:
 1261               	/* #NOAPP */
 1262 052c 81E0      		ldi r24,lo8(1)
 1263 052e 8883      		st Y,r24
 1264 0530 80E0      		ldi r24,lo8(0)
 1265               	.LVL141:
 1266               	.LVL142:
 1267               	.LM173:
 1268 0532 DF91      		pop r29
 1269 0534 CF91      		pop r28
 1270               	.LVL143:
 1271 0536 1F91      		pop r17
 1272               	.LVL144:
 1273 0538 0F91      		pop r16
 1274               	.LVL145:
 1275 053a 0895      		ret
 1276               	.LFE2:
 1277               		.size	OSEventNameGet, .-OSEventNameGet
 1278               	.global	OSSemCreate
 1279               		.type	OSSemCreate, @function
 1280               	OSSemCreate:
 1281               	.LFB27:
 1282               	.LM174:
 1283               	.LVL146:
 1284               	/* prologue: function */
 1285               	/* frame size = 0 */
 1286 053c 282F      		mov r18,r24
 1287 053e 392F      		mov r19,r25
 1288               	.LM175:
 1289 0540 8091 0000 		lds r24,OSIntNesting
 1290               	.LVL147:
 1291 0544 8823      		tst r24
 1292 0546 01F4      		brne .L101
 1293               	.LM176:
 1294               	/* #APP */
 1295               	 ;  94 "./..\..\..\source\os_sem.c" 1
 1296 0548 F894      		cli
 1297               	 ;  0 "" 2
 1298               	.LM177:
 1299               	/* #NOAPP */
 1300 054a E091 0000 		lds r30,OSEventFreeList
 1301 054e F091 0000 		lds r31,(OSEventFreeList)+1
 1302               	.LVL148:
 1303               	.LM178:
 1304 0552 3097      		sbiw r30,0
 1305 0554 01F0      		breq .L99
 1306               	.LM179:
 1307 0556 8481      		ldd r24,Z+4
 1308 0558 9581      		ldd r25,Z+5
 1309 055a 9093 0000 		sts (OSEventFreeList)+1,r25
 1310 055e 8093 0000 		sts OSEventFreeList,r24
 1311               	.L99:
GAS LISTING C:\DOCUME~1\KEUNSO~1\LOCALS~1\Temp/ccWaaqlF.s 			page 24


 1312               	.LM180:
 1313               	/* #APP */
 1314               	 ;  99 "./..\..\..\source\os_sem.c" 1
 1315 0562 7894      		sei
 1316               	 ;  0 "" 2
 1317               	.LM181:
 1318               	/* #NOAPP */
 1319 0564 3097      		sbiw r30,0
 1320 0566 01F0      		breq .L98
 1321               	.LM182:
 1322 0568 83E0      		ldi r24,lo8(3)
 1323 056a 8083      		st Z,r24
 1324               	.LM183:
 1325 056c 3383      		std Z+3,r19
 1326 056e 2283      		std Z+2,r18
 1327               	.LM184:
 1328 0570 1582      		std Z+5,__zero_reg__
 1329 0572 1482      		std Z+4,__zero_reg__
 1330               	.LM185:
 1331 0574 8FE3      		ldi r24,lo8(63)
 1332 0576 90E0      		ldi r25,hi8(63)
 1333 0578 9187      		std Z+9,r25
 1334 057a 8087      		std Z+8,r24
 1335               	.LBB18:
 1336               	.LBB19:
 1337               	.LM186:
 1338 057c 1182      		std Z+1,__zero_reg__
 1339               	.LM187:
 1340 057e 1682      		std Z+6,__zero_reg__
 1341               	.LM188:
 1342 0580 1782      		std Z+7,__zero_reg__
 1343               	.L98:
 1344               	.LBE19:
 1345               	.LBE18:
 1346               	.LM189:
 1347 0582 8E2F      		mov r24,r30
 1348 0584 9F2F      		mov r25,r31
 1349               	.LVL149:
 1350               	/* epilogue start */
 1351 0586 0895      		ret
 1352               	.LVL150:
 1353               	.L101:
 1354               	.LM190:
 1355 0588 E0E0      		ldi r30,lo8(0)
 1356 058a F0E0      		ldi r31,hi8(0)
 1357               	.LVL151:
 1358               	.LM191:
 1359 058c 8E2F      		mov r24,r30
 1360 058e 9F2F      		mov r25,r31
 1361               	.LVL152:
 1362 0590 0895      		ret
 1363               	.LFE27:
 1364               		.size	OSSemCreate, .-OSSemCreate
 1365               	.global	OS_TCBInit
 1366               		.type	OS_TCBInit, @function
 1367               	OS_TCBInit:
 1368               	.LFB25:
GAS LISTING C:\DOCUME~1\KEUNSO~1\LOCALS~1\Temp/ccWaaqlF.s 			page 25


 1369               	.LM192:
 1370               	.LVL153:
 1371 0592 9F92      		push r9
 1372 0594 AF92      		push r10
 1373               	.LVL154:
 1374 0596 BF92      		push r11
 1375 0598 CF92      		push r12
 1376               	.LVL155:
 1377 059a DF92      		push r13
 1378 059c EF92      		push r14
 1379               	.LVL156:
 1380 059e FF92      		push r15
 1381 05a0 0F93      		push r16
 1382 05a2 1F93      		push r17
 1383 05a4 CF93      		push r28
 1384 05a6 DF93      		push r29
 1385               	/* prologue: function */
 1386               	/* frame size = 0 */
 1387 05a8 982E      		mov r9,r24
 1388               	.LM193:
 1389               	/* #APP */
 1390               	 ;  1432 "./..\..\..\source\os_core.c" 1
 1391 05aa F894      		cli
 1392               	 ;  0 "" 2
 1393               	.LM194:
 1394               	/* #NOAPP */
 1395 05ac C091 0000 		lds r28,OSTCBFreeList
 1396 05b0 D091 0000 		lds r29,(OSTCBFreeList)+1
 1397               	.LVL157:
 1398               	.LM195:
 1399 05b4 2097      		sbiw r28,0
 1400 05b6 01F4      		brne .+2
 1401 05b8 00C0      		rjmp .L103
 1402               	.LVL158:
 1403               	.LM196:
 1404 05ba 8E85      		ldd r24,Y+14
 1405 05bc 9F85      		ldd r25,Y+15
 1406 05be 9093 0000 		sts (OSTCBFreeList)+1,r25
 1407 05c2 8093 0000 		sts OSTCBFreeList,r24
 1408               	.LM197:
 1409               	/* #APP */
 1410               	 ;  1436 "./..\..\..\source\os_core.c" 1
 1411 05c6 7894      		sei
 1412               	 ;  0 "" 2
 1413               	.LM198:
 1414               	/* #NOAPP */
 1415 05c8 7983      		std Y+1,r23
 1416 05ca 6883      		st Y,r22
 1417               	.LM199:
 1418 05cc 9F8A      		std Y+23,r9
 1419               	.LM200:
 1420 05ce 1E8A      		std Y+22,__zero_reg__
 1421               	.LM201:
 1422 05d0 1D8A      		std Y+21,__zero_reg__
 1423 05d2 1C8A      		std Y+20,__zero_reg__
 1424               	.LM202:
 1425 05d4 DB82      		std Y+3,r13
GAS LISTING C:\DOCUME~1\KEUNSO~1\LOCALS~1\Temp/ccWaaqlF.s 			page 26


 1426 05d6 CA82      		std Y+2,r12
 1427               	.LVL159:
 1428               	.LM203:
 1429 05d8 EE82      		std Y+6,r14
 1430 05da FF82      		std Y+7,r15
 1431 05dc 0887      		std Y+8,r16
 1432 05de 1987      		std Y+9,r17
 1433               	.LVL160:
 1434               	.LM204:
 1435 05e0 5D83      		std Y+5,r21
 1436 05e2 4C83      		std Y+4,r20
 1437               	.LM205:
 1438 05e4 BB86      		std Y+11,r11
 1439 05e6 AA86      		std Y+10,r10
 1440               	.LVL161:
 1441               	.LM206:
 1442 05e8 3D87      		std Y+13,r19
 1443 05ea 2C87      		std Y+12,r18
 1444               	.LM207:
 1445 05ec E92D      		mov r30,r9
 1446 05ee E695      		lsr r30
 1447 05f0 E695      		lsr r30
 1448 05f2 E695      		lsr r30
 1449 05f4 E98F      		std Y+25,r30
 1450               	.LM208:
 1451 05f6 F0E0      		ldi r31,lo8(0)
 1452 05f8 E050      		subi r30,lo8(-(OSMapTbl))
 1453 05fa F040      		sbci r31,hi8(-(OSMapTbl))
 1454 05fc 8081      		ld r24,Z
 1455 05fe 8B8F      		std Y+27,r24
 1456               	.LM209:
 1457 0600 E92D      		mov r30,r9
 1458 0602 E770      		andi r30,lo8(7)
 1459 0604 E88F      		std Y+24,r30
 1460               	.LM210:
 1461 0606 F0E0      		ldi r31,lo8(0)
 1462 0608 E050      		subi r30,lo8(-(OSMapTbl))
 1463 060a F040      		sbci r31,hi8(-(OSMapTbl))
 1464 060c 8081      		ld r24,Z
 1465 060e 8A8F      		std Y+26,r24
 1466               	.LM211:
 1467 0610 1B8A      		std Y+19,__zero_reg__
 1468 0612 1A8A      		std Y+18,__zero_reg__
 1469               	.LM212:
 1470 0614 1C8E      		std Y+28,__zero_reg__
 1471 0616 1D8E      		std Y+29,__zero_reg__
 1472 0618 1E8E      		std Y+30,__zero_reg__
 1473 061a 1F8E      		std Y+31,__zero_reg__
 1474               	.LM213:
 1475 061c 1CA2      		std Y+36,__zero_reg__
 1476 061e 1DA2      		std Y+37,__zero_reg__
 1477 0620 1EA2      		std Y+38,__zero_reg__
 1478 0622 1FA2      		std Y+39,__zero_reg__
 1479               	.LM214:
 1480 0624 18A2      		std Y+32,__zero_reg__
 1481 0626 19A2      		std Y+33,__zero_reg__
 1482 0628 1AA2      		std Y+34,__zero_reg__
GAS LISTING C:\DOCUME~1\KEUNSO~1\LOCALS~1\Temp/ccWaaqlF.s 			page 27


 1483 062a 1BA2      		std Y+35,__zero_reg__
 1484               	.LM215:
 1485 062c 19A6      		std Y+41,__zero_reg__
 1486 062e 18A6      		std Y+40,__zero_reg__
 1487               	.LM216:
 1488 0630 1AA6      		std Y+42,__zero_reg__
 1489 0632 1BA6      		std Y+43,__zero_reg__
 1490 0634 1CA6      		std Y+44,__zero_reg__
 1491 0636 1DA6      		std Y+45,__zero_reg__
 1492               	.LM217:
 1493 0638 8FE3      		ldi r24,lo8(63)
 1494 063a 90E0      		ldi r25,hi8(63)
 1495 063c 9FA7      		std Y+47,r25
 1496 063e 8EA7      		std Y+46,r24
 1497               	.LM218:
 1498 0640 8C2F      		mov r24,r28
 1499 0642 9D2F      		mov r25,r29
 1500 0644 0E94 0000 		call OSTCBInitHook
 1501               	.LVL162:
 1502               	.LM219:
 1503 0648 8C2F      		mov r24,r28
 1504 064a 9D2F      		mov r25,r29
 1505 064c 0E94 0000 		call OSTaskCreateHook
 1506               	.LM220:
 1507               	/* #APP */
 1508               	 ;  1495 "./..\..\..\source\os_core.c" 1
 1509 0650 F894      		cli
 1510               	 ;  0 "" 2
 1511               	.LM221:
 1512               	/* #NOAPP */
 1513 0652 E92D      		mov r30,r9
 1514 0654 F0E0      		ldi r31,lo8(0)
 1515               	.LVL163:
 1516 0656 EE0F      		lsl r30
 1517 0658 FF1F      		rol r31
 1518               	.LVL164:
 1519 065a E050      		subi r30,lo8(-(OSTCBPrioTbl))
 1520 065c F040      		sbci r31,hi8(-(OSTCBPrioTbl))
 1521               	.LVL165:
 1522 065e D183      		std Z+1,r29
 1523 0660 C083      		st Z,r28
 1524               	.LM222:
 1525 0662 E091 0000 		lds r30,OSTCBList
 1526 0666 F091 0000 		lds r31,(OSTCBList)+1
 1527               	.LVL166:
 1528 066a FF87      		std Y+15,r31
 1529 066c EE87      		std Y+14,r30
 1530               	.LM223:
 1531 066e 198A      		std Y+17,__zero_reg__
 1532 0670 188A      		std Y+16,__zero_reg__
 1533               	.LM224:
 1534 0672 3097      		sbiw r30,0
 1535 0674 01F0      		breq .L104
 1536               	.LM225:
 1537 0676 D18B      		std Z+17,r29
 1538 0678 C08B      		std Z+16,r28
 1539               	.L104:
GAS LISTING C:\DOCUME~1\KEUNSO~1\LOCALS~1\Temp/ccWaaqlF.s 			page 28


 1540               	.LM226:
 1541 067a D093 0000 		sts (OSTCBList)+1,r29
 1542 067e C093 0000 		sts OSTCBList,r28
 1543               	.LM227:
 1544 0682 8091 0000 		lds r24,OSRdyGrp
 1545 0686 9B8D      		ldd r25,Y+27
 1546 0688 892B      		or r24,r25
 1547 068a 8093 0000 		sts OSRdyGrp,r24
 1548               	.LM228:
 1549 068e E98D      		ldd r30,Y+25
 1550 0690 F0E0      		ldi r31,lo8(0)
 1551               	.LVL167:
 1552 0692 E050      		subi r30,lo8(-(OSRdyTbl))
 1553 0694 F040      		sbci r31,hi8(-(OSRdyTbl))
 1554 0696 8081      		ld r24,Z
 1555 0698 9A8D      		ldd r25,Y+26
 1556 069a 892B      		or r24,r25
 1557 069c 8083      		st Z,r24
 1558               	.LM229:
 1559               	/* #APP */
 1560               	 ;  1505 "./..\..\..\source\os_core.c" 1
 1561 069e 7894      		sei
 1562               	 ;  0 "" 2
 1563               	/* #NOAPP */
 1564 06a0 80E0      		ldi r24,lo8(0)
 1565               	.LVL168:
 1566               	.L105:
 1567               	/* epilogue start */
 1568               	.LM230:
 1569 06a2 DF91      		pop r29
 1570 06a4 CF91      		pop r28
 1571               	.LVL169:
 1572 06a6 1F91      		pop r17
 1573 06a8 0F91      		pop r16
 1574 06aa FF90      		pop r15
 1575 06ac EF90      		pop r14
 1576               	.LVL170:
 1577 06ae DF90      		pop r13
 1578 06b0 CF90      		pop r12
 1579               	.LVL171:
 1580 06b2 BF90      		pop r11
 1581 06b4 AF90      		pop r10
 1582               	.LVL172:
 1583 06b6 9F90      		pop r9
 1584               	.LVL173:
 1585 06b8 0895      		ret
 1586               	.LVL174:
 1587               	.L103:
 1588               	.LM231:
 1589               	/* #APP */
 1590               	 ;  1508 "./..\..\..\source\os_core.c" 1
 1591 06ba 7894      		sei
 1592               	 ;  0 "" 2
 1593               	/* #NOAPP */
 1594 06bc 86E4      		ldi r24,lo8(70)
 1595 06be 00C0      		rjmp .L105
 1596               	.LFE25:
GAS LISTING C:\DOCUME~1\KEUNSO~1\LOCALS~1\Temp/ccWaaqlF.s 			page 29


 1597               		.size	OS_TCBInit, .-OS_TCBInit
 1598               	.global	OS_TaskIdle
 1599               		.type	OS_TaskIdle, @function
 1600               	OS_TaskIdle:
 1601               	.LFB22:
 1602               	.LM232:
 1603               	/* prologue: function */
 1604               	/* frame size = 0 */
 1605               	.LVL175:
 1606               	.L108:
 1607               	.LM233:
 1608               	/* #APP */
 1609               	 ;  1263 "./..\..\..\source\os_core.c" 1
 1610 06c0 F894      		cli
 1611               	 ;  0 "" 2
 1612               	.LM234:
 1613               	/* #NOAPP */
 1614 06c2 8091 0000 		lds r24,OSIdleCtr
 1615 06c6 9091 0000 		lds r25,(OSIdleCtr)+1
 1616 06ca A091 0000 		lds r26,(OSIdleCtr)+2
 1617 06ce B091 0000 		lds r27,(OSIdleCtr)+3
 1618               	.LVL176:
 1619 06d2 0196      		adiw r24,1
 1620 06d4 A11D      		adc r26,__zero_reg__
 1621 06d6 B11D      		adc r27,__zero_reg__
 1622 06d8 8093 0000 		sts OSIdleCtr,r24
 1623 06dc 9093 0000 		sts (OSIdleCtr)+1,r25
 1624 06e0 A093 0000 		sts (OSIdleCtr)+2,r26
 1625 06e4 B093 0000 		sts (OSIdleCtr)+3,r27
 1626               	.LM235:
 1627               	/* #APP */
 1628               	 ;  1265 "./..\..\..\source\os_core.c" 1
 1629 06e8 7894      		sei
 1630               	 ;  0 "" 2
 1631               	.LM236:
 1632               	/* #NOAPP */
 1633 06ea 0E94 0000 		call OSTaskIdleHook
 1634 06ee 00C0      		rjmp .L108
 1635               	.LFE22:
 1636               		.size	OS_TaskIdle, .-OS_TaskIdle
 1637               	.global	OS_Sched
 1638               		.type	OS_Sched, @function
 1639               	OS_Sched:
 1640               	.LFB21:
 1641               	.LM237:
 1642               	/* prologue: function */
 1643               	/* frame size = 0 */
 1644               	.LM238:
 1645               	/* #APP */
 1646               	 ;  1215 "./..\..\..\source\os_core.c" 1
 1647 06f0 F894      		cli
 1648               	 ;  0 "" 2
 1649               	.LM239:
 1650               	/* #NOAPP */
 1651 06f2 8091 0000 		lds r24,OSIntNesting
 1652 06f6 8823      		tst r24
 1653 06f8 01F0      		breq .+2
GAS LISTING C:\DOCUME~1\KEUNSO~1\LOCALS~1\Temp/ccWaaqlF.s 			page 30


 1654 06fa 00C0      		rjmp .L111
 1655               	.LM240:
 1656 06fc 8091 0000 		lds r24,OSLockNesting
 1657 0700 8823      		tst r24
 1658 0702 01F0      		breq .+2
 1659 0704 00C0      		rjmp .L111
 1660               	.LM241:
 1661 0706 E091 0000 		lds r30,OSRdyGrp
 1662 070a F0E0      		ldi r31,lo8(0)
 1663 070c E050      		subi r30,lo8(-(OSUnMapTbl))
 1664 070e F040      		sbci r31,hi8(-(OSUnMapTbl))
 1665 0710 8081      		ld r24,Z
 1666               	.LVL177:
 1667               	.LM242:
 1668 0712 E82F      		mov r30,r24
 1669 0714 F0E0      		ldi r31,lo8(0)
 1670               	.LVL178:
 1671 0716 E050      		subi r30,lo8(-(OSRdyTbl))
 1672 0718 F040      		sbci r31,hi8(-(OSRdyTbl))
 1673               	.LVL179:
 1674 071a E081      		ld r30,Z
 1675               	.LVL180:
 1676 071c F0E0      		ldi r31,lo8(0)
 1677               	.LVL181:
 1678 071e E050      		subi r30,lo8(-(OSUnMapTbl))
 1679 0720 F040      		sbci r31,hi8(-(OSUnMapTbl))
 1680 0722 982F      		mov r25,r24
 1681               	.LVL182:
 1682 0724 990F      		lsl r25
 1683 0726 990F      		lsl r25
 1684 0728 990F      		lsl r25
 1685 072a 8081      		ld r24,Z
 1686               	.LVL183:
 1687 072c 980F      		add r25,r24
 1688 072e 9093 0000 		sts OSPrioHighRdy,r25
 1689               	.LM243:
 1690 0732 8091 0000 		lds r24,OSPrioCur
 1691 0736 9817      		cp r25,r24
 1692 0738 01F0      		breq .L111
 1693               	.LM244:
 1694 073a E92F      		mov r30,r25
 1695 073c F0E0      		ldi r31,lo8(0)
 1696 073e EE0F      		lsl r30
 1697 0740 FF1F      		rol r31
 1698 0742 E050      		subi r30,lo8(-(OSTCBPrioTbl))
 1699 0744 F040      		sbci r31,hi8(-(OSTCBPrioTbl))
 1700 0746 0190      		ld __tmp_reg__,Z+
 1701 0748 F081      		ld r31,Z
 1702 074a E02D      		mov r30,__tmp_reg__
 1703 074c F093 0000 		sts (OSTCBHighRdy)+1,r31
 1704 0750 E093 0000 		sts OSTCBHighRdy,r30
 1705               	.LM245:
 1706 0754 848D      		ldd r24,Z+28
 1707 0756 958D      		ldd r25,Z+29
 1708 0758 A68D      		ldd r26,Z+30
 1709 075a B78D      		ldd r27,Z+31
 1710 075c 0196      		adiw r24,1
GAS LISTING C:\DOCUME~1\KEUNSO~1\LOCALS~1\Temp/ccWaaqlF.s 			page 31


 1711 075e A11D      		adc r26,__zero_reg__
 1712 0760 B11D      		adc r27,__zero_reg__
 1713 0762 848F      		std Z+28,r24
 1714 0764 958F      		std Z+29,r25
 1715 0766 A68F      		std Z+30,r26
 1716 0768 B78F      		std Z+31,r27
 1717               	.LM246:
 1718 076a 8091 0000 		lds r24,OSCtxSwCtr
 1719 076e 9091 0000 		lds r25,(OSCtxSwCtr)+1
 1720 0772 A091 0000 		lds r26,(OSCtxSwCtr)+2
 1721 0776 B091 0000 		lds r27,(OSCtxSwCtr)+3
 1722 077a 0196      		adiw r24,1
 1723 077c A11D      		adc r26,__zero_reg__
 1724 077e B11D      		adc r27,__zero_reg__
 1725 0780 8093 0000 		sts OSCtxSwCtr,r24
 1726 0784 9093 0000 		sts (OSCtxSwCtr)+1,r25
 1727 0788 A093 0000 		sts (OSCtxSwCtr)+2,r26
 1728 078c B093 0000 		sts (OSCtxSwCtr)+3,r27
 1729               	.LM247:
 1730 0790 0E94 0000 		call OSCtxSw
 1731               	.L111:
 1732               	.LM248:
 1733               	/* #APP */
 1734               	 ;  1230 "./..\..\..\source\os_core.c" 1
 1735 0794 7894      		sei
 1736               	 ;  0 "" 2
 1737               	/* epilogue start */
 1738               	.LM249:
 1739               	/* #NOAPP */
 1740 0796 0895      		ret
 1741               	.LFE21:
 1742               		.size	OS_Sched, .-OS_Sched
 1743               	.global	OSTimeDlyResume
 1744               		.type	OSTimeDlyResume, @function
 1745               	OSTimeDlyResume:
 1746               	.LFB41:
 1747               	.LM250:
 1748               	.LVL184:
 1749               	/* prologue: function */
 1750               	/* frame size = 0 */
 1751               	.LM251:
 1752 0798 8C30      		cpi r24,lo8(12)
 1753 079a 00F4      		brsh .L120
 1754               	.LM252:
 1755               	/* #APP */
 1756               	 ;  158 "./..\..\..\source\os_time.c" 1
 1757 079c F894      		cli
 1758               	 ;  0 "" 2
 1759               	.LM253:
 1760               	/* #NOAPP */
 1761 079e E82F      		mov r30,r24
 1762 07a0 F0E0      		ldi r31,lo8(0)
 1763               	.LVL185:
 1764 07a2 EE0F      		lsl r30
 1765 07a4 FF1F      		rol r31
 1766               	.LVL186:
 1767 07a6 E050      		subi r30,lo8(-(OSTCBPrioTbl))
GAS LISTING C:\DOCUME~1\KEUNSO~1\LOCALS~1\Temp/ccWaaqlF.s 			page 32


 1768 07a8 F040      		sbci r31,hi8(-(OSTCBPrioTbl))
 1769               	.LVL187:
 1770 07aa A081      		ld r26,Z
 1771 07ac B181      		ldd r27,Z+1
 1772               	.LVL188:
 1773               	.LM254:
 1774 07ae 1097      		sbiw r26,0
 1775 07b0 01F0      		breq .L116
 1776               	.LM255:
 1777 07b2 5496      		adiw r26,20
 1778 07b4 8D91      		ld r24,X+
 1779 07b6 9C91      		ld r25,X
 1780 07b8 5597      		sbiw r26,20+1
 1781 07ba 892B      		or r24,r25
 1782 07bc 01F4      		brne .L121
 1783               	.LM256:
 1784               	/* #APP */
 1785               	 ;  173 "./..\..\..\source\os_time.c" 1
 1786 07be 7894      		sei
 1787               	 ;  0 "" 2
 1788               	/* #NOAPP */
 1789 07c0 80E5      		ldi r24,lo8(80)
 1790 07c2 0895      		ret
 1791               	.LVL189:
 1792               	.L120:
 1793               	.LM257:
 1794 07c4 8AE2      		ldi r24,lo8(42)
 1795               	.LVL190:
 1796 07c6 0895      		ret
 1797               	.LVL191:
 1798               	.L116:
 1799               	.LM258:
 1800               	/* #APP */
 1801               	 ;  177 "./..\..\..\source\os_time.c" 1
 1802 07c8 7894      		sei
 1803               	 ;  0 "" 2
 1804               	/* #NOAPP */
 1805 07ca 8BE0      		ldi r24,lo8(11)
 1806               	.LM259:
 1807 07cc 0895      		ret
 1808               	.L121:
 1809               	.LM260:
 1810 07ce 5596      		adiw r26,20+1
 1811 07d0 1C92      		st X,__zero_reg__
 1812 07d2 1E92      		st -X,__zero_reg__
 1813 07d4 5497      		sbiw r26,20
 1814               	.LM261:
 1815 07d6 5696      		adiw r26,22
 1816 07d8 8C91      		ld r24,X
 1817 07da 5697      		sbiw r26,22
 1818 07dc 83FF      		sbrs r24,3
 1819 07de 00C0      		rjmp .L122
 1820               	.LM262:
 1821               	/* #APP */
 1822               	 ;  169 "./..\..\..\source\os_time.c" 1
 1823 07e0 7894      		sei
 1824               	 ;  0 "" 2
GAS LISTING C:\DOCUME~1\KEUNSO~1\LOCALS~1\Temp/ccWaaqlF.s 			page 33


 1825               	/* #NOAPP */
 1826 07e2 80E0      		ldi r24,lo8(0)
 1827 07e4 0895      		ret
 1828               	.L122:
 1829               	.LM263:
 1830 07e6 8091 0000 		lds r24,OSRdyGrp
 1831 07ea 5B96      		adiw r26,27
 1832 07ec 9C91      		ld r25,X
 1833 07ee 5B97      		sbiw r26,27
 1834 07f0 892B      		or r24,r25
 1835 07f2 8093 0000 		sts OSRdyGrp,r24
 1836               	.LM264:
 1837 07f6 5996      		adiw r26,25
 1838 07f8 EC91      		ld r30,X
 1839 07fa 5997      		sbiw r26,25
 1840               	.LVL192:
 1841 07fc F0E0      		ldi r31,lo8(0)
 1842               	.LVL193:
 1843 07fe E050      		subi r30,lo8(-(OSRdyTbl))
 1844 0800 F040      		sbci r31,hi8(-(OSRdyTbl))
 1845 0802 8081      		ld r24,Z
 1846 0804 5A96      		adiw r26,26
 1847 0806 9C91      		ld r25,X
 1848 0808 892B      		or r24,r25
 1849 080a 8083      		st Z,r24
 1850               	.LM265:
 1851               	/* #APP */
 1852               	 ;  166 "./..\..\..\source\os_time.c" 1
 1853 080c 7894      		sei
 1854               	 ;  0 "" 2
 1855               	.LM266:
 1856               	/* #NOAPP */
 1857 080e 0E94 0000 		call OS_Sched
 1858               	.LVL194:
 1859 0812 80E0      		ldi r24,lo8(0)
 1860 0814 0895      		ret
 1861               	.LFE41:
 1862               		.size	OSTimeDlyResume, .-OSTimeDlyResume
 1863               	.global	OSTaskCreateExt
 1864               		.type	OSTaskCreateExt, @function
 1865               	OSTaskCreateExt:
 1866               	.LFB33:
 1867               	.LM267:
 1868               	.LVL195:
 1869 0816 2F92      		push r2
 1870 0818 3F92      		push r3
 1871 081a 4F92      		push r4
 1872 081c 5F92      		push r5
 1873 081e 6F92      		push r6
 1874 0820 7F92      		push r7
 1875 0822 8F92      		push r8
 1876               	.LVL196:
 1877 0824 9F92      		push r9
 1878 0826 AF92      		push r10
 1879               	.LVL197:
 1880 0828 BF92      		push r11
 1881 082a CF92      		push r12
GAS LISTING C:\DOCUME~1\KEUNSO~1\LOCALS~1\Temp/ccWaaqlF.s 			page 34


 1882 082c DF92      		push r13
 1883 082e EF92      		push r14
 1884               	.LVL198:
 1885 0830 FF92      		push r15
 1886 0832 0F93      		push r16
 1887               	.LVL199:
 1888 0834 1F93      		push r17
 1889 0836 DF93      		push r29
 1890 0838 CF93      		push r28
 1891 083a 00D0      		rcall .
 1892 083c 0F92      		push __tmp_reg__
 1893 083e CDB7      		in r28,__SP_L__
 1894 0840 DEB7      		in r29,__SP_H__
 1895               	/* prologue: function */
 1896               	/* frame size = 3 */
 1897 0842 682E      		mov r6,r24
 1898 0844 792E      		mov r7,r25
 1899 0846 462E      		mov r4,r22
 1900 0848 572E      		mov r5,r23
 1901 084a 242E      		mov r2,r20
 1902 084c 352E      		mov r3,r21
 1903 084e 2983      		std Y+1,r18
 1904 0850 9B82      		std Y+3,r9
 1905 0852 8A82      		std Y+2,r8
 1906               	.LVL200:
 1907               	.LM268:
 1908               	/* #APP */
 1909               	 ;  286 "./..\..\..\source\os_task.c" 1
 1910 0854 F894      		cli
 1911               	 ;  0 "" 2
 1912               	.LM269:
 1913               	/* #NOAPP */
 1914 0856 822E      		mov r8,r18
 1915               	.LVL201:
 1916 0858 9924      		clr r9
 1917 085a 880C      		lsl r8
 1918 085c 991C      		rol r9
 1919 085e E0E0      		ldi r30,lo8(OSTCBPrioTbl)
 1920 0860 F0E0      		ldi r31,hi8(OSTCBPrioTbl)
 1921 0862 8E0E      		add r8,r30
 1922 0864 9F1E      		adc r9,r31
 1923 0866 E82D      		mov r30,r8
 1924 0868 F92D      		mov r31,r9
 1925 086a 8081      		ld r24,Z
 1926 086c 9181      		ldd r25,Z+1
 1927               	.LVL202:
 1928 086e 892B      		or r24,r25
 1929 0870 01F0      		breq .L128
 1930               	.LVL203:
 1931               	.LM270:
 1932               	/* #APP */
 1933               	 ;  310 "./..\..\..\source\os_task.c" 1
 1934 0872 7894      		sei
 1935               	 ;  0 "" 2
 1936               	/* #NOAPP */
 1937 0874 18E2      		ldi r17,lo8(40)
 1938               	.LVL204:
GAS LISTING C:\DOCUME~1\KEUNSO~1\LOCALS~1\Temp/ccWaaqlF.s 			page 35


 1939               	.L126:
 1940               	.LM271:
 1941 0876 812F      		mov r24,r17
 1942               	/* epilogue start */
 1943 0878 0F90      		pop __tmp_reg__
 1944 087a 0F90      		pop __tmp_reg__
 1945 087c 0F90      		pop __tmp_reg__
 1946 087e CF91      		pop r28
 1947 0880 DF91      		pop r29
 1948 0882 1F91      		pop r17
 1949               	.LVL205:
 1950 0884 0F91      		pop r16
 1951               	.LVL206:
 1952 0886 FF90      		pop r15
 1953 0888 EF90      		pop r14
 1954 088a DF90      		pop r13
 1955 088c CF90      		pop r12
 1956 088e BF90      		pop r11
 1957 0890 AF90      		pop r10
 1958 0892 9F90      		pop r9
 1959 0894 8F90      		pop r8
 1960 0896 7F90      		pop r7
 1961 0898 6F90      		pop r6
 1962               	.LVL207:
 1963 089a 5F90      		pop r5
 1964 089c 4F90      		pop r4
 1965               	.LVL208:
 1966 089e 3F90      		pop r3
 1967 08a0 2F90      		pop r2
 1968               	.LVL209:
 1969 08a2 0895      		ret
 1970               	.LVL210:
 1971               	.L128:
 1972               	.LM272:
 1973 08a4 81E0      		ldi r24,lo8(1)
 1974 08a6 90E0      		ldi r25,hi8(1)
 1975 08a8 9183      		std Z+1,r25
 1976 08aa 8083      		st Z,r24
 1977               	.LM273:
 1978               	/* #APP */
 1979               	 ;  290 "./..\..\..\source\os_task.c" 1
 1980 08ac 7894      		sei
 1981               	 ;  0 "" 2
 1982               	.LM274:
 1983               	/* #NOAPP */
 1984 08ae 8E2D      		mov r24,r14
 1985 08b0 9F2D      		mov r25,r15
 1986               	.LVL211:
 1987 08b2 7D2D      		mov r23,r13
 1988 08b4 6C2D      		mov r22,r12
 1989 08b6 5B2D      		mov r21,r11
 1990 08b8 4A2D      		mov r20,r10
 1991               	.LVL212:
 1992 08ba 288D      		ldd r18,Y+24
 1993 08bc 398D      		ldd r19,Y+25
 1994 08be 0E94 0000 		call OS_TaskStkClr
 1995               	.LM275:
GAS LISTING C:\DOCUME~1\KEUNSO~1\LOCALS~1\Temp/ccWaaqlF.s 			page 36


 1996 08c2 862D      		mov r24,r6
 1997 08c4 972D      		mov r25,r7
 1998 08c6 642D      		mov r22,r4
 1999 08c8 752D      		mov r23,r5
 2000 08ca 422D      		mov r20,r2
 2001 08cc 532D      		mov r21,r3
 2002 08ce 288D      		ldd r18,Y+24
 2003 08d0 398D      		ldd r19,Y+25
 2004 08d2 0E94 0000 		call OSTaskStkInit
 2005 08d6 682F      		mov r22,r24
 2006 08d8 792F      		mov r23,r25
 2007               	.LVL213:
 2008               	.LM276:
 2009 08da 8981      		ldd r24,Y+1
 2010 08dc 4E2D      		mov r20,r14
 2011 08de 5F2D      		mov r21,r15
 2012 08e0 202F      		mov r18,r16
 2013 08e2 312F      		mov r19,r17
 2014               	.LVL214:
 2015 08e4 1D2D      		mov r17,r13
 2016 08e6 0C2D      		mov r16,r12
 2017 08e8 FB2C      		mov r15,r11
 2018 08ea EA2C      		mov r14,r10
 2019               	.LVL215:
 2020 08ec CA80      		ldd r12,Y+2
 2021 08ee DB80      		ldd r13,Y+3
 2022 08f0 A88C      		ldd r10,Y+24
 2023 08f2 B98C      		ldd r11,Y+25
 2024               	.LVL216:
 2025 08f4 0E94 0000 		call OS_TCBInit
 2026               	.LVL217:
 2027 08f8 182F      		mov r17,r24
 2028               	.LVL218:
 2029               	.LM277:
 2030 08fa 8823      		tst r24
 2031 08fc 01F4      		brne .L125
 2032               	.LVL219:
 2033               	.LM278:
 2034               	/* #APP */
 2035               	 ;  297 "./..\..\..\source\os_task.c" 1
 2036 08fe F894      		cli
 2037               	 ;  0 "" 2
 2038               	.LM279:
 2039               	/* #NOAPP */
 2040 0900 8091 0000 		lds r24,OSTaskCtr
 2041               	.LVL220:
 2042 0904 8F5F      		subi r24,lo8(-(1))
 2043 0906 8093 0000 		sts OSTaskCtr,r24
 2044               	.LM280:
 2045               	/* #APP */
 2046               	 ;  299 "./..\..\..\source\os_task.c" 1
 2047 090a 7894      		sei
 2048               	 ;  0 "" 2
 2049               	.LM281:
 2050               	/* #NOAPP */
 2051 090c 8091 0000 		lds r24,OSRunning
 2052 0910 8130      		cpi r24,lo8(1)
GAS LISTING C:\DOCUME~1\KEUNSO~1\LOCALS~1\Temp/ccWaaqlF.s 			page 37


 2053 0912 01F0      		breq .+2
 2054 0914 00C0      		rjmp .L126
 2055               	.LM282:
 2056 0916 0E94 0000 		call OS_Sched
 2057 091a 00C0      		rjmp .L126
 2058               	.LVL221:
 2059               	.L125:
 2060               	.LM283:
 2061               	/* #APP */
 2062               	 ;  304 "./..\..\..\source\os_task.c" 1
 2063 091c F894      		cli
 2064               	 ;  0 "" 2
 2065               	.LM284:
 2066               	/* #NOAPP */
 2067 091e E82D      		mov r30,r8
 2068 0920 F92D      		mov r31,r9
 2069 0922 1182      		std Z+1,__zero_reg__
 2070 0924 1082      		st Z,__zero_reg__
 2071               	.LM285:
 2072               	/* #APP */
 2073               	 ;  306 "./..\..\..\source\os_task.c" 1
 2074 0926 7894      		sei
 2075               	 ;  0 "" 2
 2076               	/* #NOAPP */
 2077 0928 00C0      		rjmp .L126
 2078               	.LFE33:
 2079               		.size	OSTaskCreateExt, .-OSTaskCreateExt
 2080               	.global	OSTaskCreate
 2081               		.type	OSTaskCreate, @function
 2082               	OSTaskCreate:
 2083               	.LFB32:
 2084               	.LM286:
 2085               	.LVL222:
 2086 092a AF92      		push r10
 2087 092c BF92      		push r11
 2088 092e CF92      		push r12
 2089 0930 DF92      		push r13
 2090 0932 EF92      		push r14
 2091 0934 FF92      		push r15
 2092 0936 0F93      		push r16
 2093 0938 1F93      		push r17
 2094 093a CF93      		push r28
 2095 093c DF93      		push r29
 2096               	/* prologue: function */
 2097               	/* frame size = 0 */
 2098 093e E82F      		mov r30,r24
 2099 0940 F92F      		mov r31,r25
 2100 0942 122F      		mov r17,r18
 2101               	.LM287:
 2102               	/* #APP */
 2103               	 ;  173 "./..\..\..\source\os_task.c" 1
 2104 0944 F894      		cli
 2105               	 ;  0 "" 2
 2106               	.LM288:
 2107               	/* #NOAPP */
 2108 0946 C22F      		mov r28,r18
 2109 0948 D0E0      		ldi r29,lo8(0)
GAS LISTING C:\DOCUME~1\KEUNSO~1\LOCALS~1\Temp/ccWaaqlF.s 			page 38


 2110 094a CC0F      		lsl r28
 2111 094c DD1F      		rol r29
 2112 094e C050      		subi r28,lo8(-(OSTCBPrioTbl))
 2113 0950 D040      		sbci r29,hi8(-(OSTCBPrioTbl))
 2114 0952 8881      		ld r24,Y
 2115 0954 9981      		ldd r25,Y+1
 2116               	.LVL223:
 2117 0956 892B      		or r24,r25
 2118 0958 01F0      		breq .L134
 2119               	.LM289:
 2120               	/* #APP */
 2121               	 ;  194 "./..\..\..\source\os_task.c" 1
 2122 095a 7894      		sei
 2123               	 ;  0 "" 2
 2124               	/* #NOAPP */
 2125 095c 18E2      		ldi r17,lo8(40)
 2126               	.LVL224:
 2127               	.L132:
 2128               	.LM290:
 2129 095e 812F      		mov r24,r17
 2130               	/* epilogue start */
 2131 0960 DF91      		pop r29
 2132 0962 CF91      		pop r28
 2133 0964 1F91      		pop r17
 2134               	.LVL225:
 2135 0966 0F91      		pop r16
 2136 0968 FF90      		pop r15
 2137 096a EF90      		pop r14
 2138 096c DF90      		pop r13
 2139 096e CF90      		pop r12
 2140 0970 BF90      		pop r11
 2141 0972 AF90      		pop r10
 2142 0974 0895      		ret
 2143               	.LVL226:
 2144               	.L134:
 2145               	.LM291:
 2146 0976 81E0      		ldi r24,lo8(1)
 2147 0978 90E0      		ldi r25,hi8(1)
 2148 097a 9983      		std Y+1,r25
 2149 097c 8883      		st Y,r24
 2150               	.LM292:
 2151               	/* #APP */
 2152               	 ;  177 "./..\..\..\source\os_task.c" 1
 2153 097e 7894      		sei
 2154               	 ;  0 "" 2
 2155               	.LM293:
 2156               	/* #NOAPP */
 2157 0980 8E2F      		mov r24,r30
 2158 0982 9F2F      		mov r25,r31
 2159 0984 20E0      		ldi r18,lo8(0)
 2160 0986 30E0      		ldi r19,hi8(0)
 2161               	.LVL227:
 2162 0988 0E94 0000 		call OSTaskStkInit
 2163               	.LVL228:
 2164 098c 682F      		mov r22,r24
 2165 098e 792F      		mov r23,r25
 2166               	.LVL229:
GAS LISTING C:\DOCUME~1\KEUNSO~1\LOCALS~1\Temp/ccWaaqlF.s 			page 39


 2167               	.LM294:
 2168 0990 812F      		mov r24,r17
 2169 0992 40E0      		ldi r20,lo8(0)
 2170 0994 50E0      		ldi r21,hi8(0)
 2171 0996 20E0      		ldi r18,lo8(0)
 2172 0998 30E0      		ldi r19,hi8(0)
 2173 099a EE24      		clr r14
 2174 099c FF24      		clr r15
 2175 099e 0027      		clr r16
 2176 09a0 1127      		clr r17
 2177 09a2 CC24      		clr r12
 2178 09a4 DD24      		clr r13
 2179 09a6 AA24      		clr r10
 2180 09a8 BB24      		clr r11
 2181 09aa 0E94 0000 		call OS_TCBInit
 2182               	.LVL230:
 2183 09ae 182F      		mov r17,r24
 2184               	.LVL231:
 2185               	.LM295:
 2186 09b0 8823      		tst r24
 2187 09b2 01F4      		brne .L131
 2188               	.LVL232:
 2189               	.LM296:
 2190               	/* #APP */
 2191               	 ;  181 "./..\..\..\source\os_task.c" 1
 2192 09b4 F894      		cli
 2193               	 ;  0 "" 2
 2194               	.LM297:
 2195               	/* #NOAPP */
 2196 09b6 8091 0000 		lds r24,OSTaskCtr
 2197               	.LVL233:
 2198 09ba 8F5F      		subi r24,lo8(-(1))
 2199 09bc 8093 0000 		sts OSTaskCtr,r24
 2200               	.LM298:
 2201               	/* #APP */
 2202               	 ;  183 "./..\..\..\source\os_task.c" 1
 2203 09c0 7894      		sei
 2204               	 ;  0 "" 2
 2205               	.LM299:
 2206               	/* #NOAPP */
 2207 09c2 8091 0000 		lds r24,OSRunning
 2208 09c6 8130      		cpi r24,lo8(1)
 2209 09c8 01F4      		brne .L132
 2210               	.LM300:
 2211 09ca 0E94 0000 		call OS_Sched
 2212 09ce 00C0      		rjmp .L132
 2213               	.LVL234:
 2214               	.L131:
 2215               	.LM301:
 2216               	/* #APP */
 2217               	 ;  188 "./..\..\..\source\os_task.c" 1
 2218 09d0 F894      		cli
 2219               	 ;  0 "" 2
 2220               	.LM302:
 2221               	/* #NOAPP */
 2222 09d2 1982      		std Y+1,__zero_reg__
 2223 09d4 1882      		st Y,__zero_reg__
GAS LISTING C:\DOCUME~1\KEUNSO~1\LOCALS~1\Temp/ccWaaqlF.s 			page 40


 2224               	.LM303:
 2225               	/* #APP */
 2226               	 ;  190 "./..\..\..\source\os_task.c" 1
 2227 09d6 7894      		sei
 2228               	 ;  0 "" 2
 2229               	/* #NOAPP */
 2230 09d8 00C0      		rjmp .L132
 2231               	.LFE32:
 2232               		.size	OSTaskCreate, .-OSTaskCreate
 2233               	.global	OSSemPost
 2234               		.type	OSSemPost, @function
 2235               	OSSemPost:
 2236               	.LFB30:
 2237               	.LM304:
 2238               	.LVL235:
 2239               	/* prologue: function */
 2240               	/* frame size = 0 */
 2241 09da E82F      		mov r30,r24
 2242 09dc F92F      		mov r31,r25
 2243               	.LM305:
 2244 09de 8081      		ld r24,Z
 2245               	.LVL236:
 2246 09e0 8330      		cpi r24,lo8(3)
 2247 09e2 01F0      		breq .L136
 2248 09e4 81E0      		ldi r24,lo8(1)
 2249 09e6 0895      		ret
 2250               	.L136:
 2251               	.LM306:
 2252               	/* #APP */
 2253               	 ;  335 "./..\..\..\source\os_sem.c" 1
 2254 09e8 F894      		cli
 2255               	 ;  0 "" 2
 2256               	.LM307:
 2257               	/* #NOAPP */
 2258 09ea 8181      		ldd r24,Z+1
 2259 09ec 8823      		tst r24
 2260 09ee 01F4      		brne .L141
 2261               	.LM308:
 2262 09f0 8281      		ldd r24,Z+2
 2263 09f2 9381      		ldd r25,Z+3
 2264 09f4 2FEF      		ldi r18,hi8(-1)
 2265 09f6 8F3F      		cpi r24,lo8(-1)
 2266 09f8 9207      		cpc r25,r18
 2267 09fa 01F0      		breq .L139
 2268               	.LM309:
 2269 09fc 0196      		adiw r24,1
 2270 09fe 9383      		std Z+3,r25
 2271 0a00 8283      		std Z+2,r24
 2272               	.LM310:
 2273               	/* #APP */
 2274               	 ;  344 "./..\..\..\source\os_sem.c" 1
 2275 0a02 7894      		sei
 2276               	 ;  0 "" 2
 2277               	/* #NOAPP */
 2278 0a04 80E0      		ldi r24,lo8(0)
 2279 0a06 0895      		ret
 2280               	.L139:
GAS LISTING C:\DOCUME~1\KEUNSO~1\LOCALS~1\Temp/ccWaaqlF.s 			page 41


 2281               	.LM311:
 2282               	/* #APP */
 2283               	 ;  347 "./..\..\..\source\os_sem.c" 1
 2284 0a08 7894      		sei
 2285               	 ;  0 "" 2
 2286               	/* #NOAPP */
 2287 0a0a 82E3      		ldi r24,lo8(50)
 2288               	.LM312:
 2289 0a0c 0895      		ret
 2290               	.L141:
 2291               	.LM313:
 2292 0a0e 8E2F      		mov r24,r30
 2293 0a10 9F2F      		mov r25,r31
 2294 0a12 60E0      		ldi r22,lo8(0)
 2295 0a14 70E0      		ldi r23,hi8(0)
 2296 0a16 41E0      		ldi r20,lo8(1)
 2297 0a18 0E94 0000 		call OS_EventTaskRdy
 2298               	.LVL237:
 2299               	.LM314:
 2300               	/* #APP */
 2301               	 ;  338 "./..\..\..\source\os_sem.c" 1
 2302 0a1c 7894      		sei
 2303               	 ;  0 "" 2
 2304               	.LM315:
 2305               	/* #NOAPP */
 2306 0a1e 0E94 0000 		call OS_Sched
 2307 0a22 80E0      		ldi r24,lo8(0)
 2308 0a24 0895      		ret
 2309               	.LFE30:
 2310               		.size	OSSemPost, .-OSSemPost
 2311               	.global	OSSemPend
 2312               		.type	OSSemPend, @function
 2313               	OSSemPend:
 2314               	.LFB29:
 2315               	.LM316:
 2316               	.LVL238:
 2317 0a26 0F93      		push r16
 2318 0a28 1F93      		push r17
 2319 0a2a CF93      		push r28
 2320 0a2c DF93      		push r29
 2321               	/* prologue: function */
 2322               	/* frame size = 0 */
 2323 0a2e C82F      		mov r28,r24
 2324 0a30 D92F      		mov r29,r25
 2325 0a32 042F      		mov r16,r20
 2326 0a34 152F      		mov r17,r21
 2327               	.LM317:
 2328 0a36 8091 0000 		lds r24,OSIntNesting
 2329               	.LVL239:
 2330 0a3a 8823      		tst r24
 2331 0a3c 01F4      		brne .L149
 2332               	.LVL240:
 2333               	.LM318:
 2334 0a3e 8881      		ld r24,Y
 2335 0a40 8330      		cpi r24,lo8(3)
 2336 0a42 01F0      		breq .L145
 2337               	.LM319:
GAS LISTING C:\DOCUME~1\KEUNSO~1\LOCALS~1\Temp/ccWaaqlF.s 			page 42


 2338 0a44 81E0      		ldi r24,lo8(1)
 2339 0a46 E42F      		mov r30,r20
 2340 0a48 F52F      		mov r31,r21
 2341 0a4a 8083      		st Z,r24
 2342               	.L148:
 2343               	/* epilogue start */
 2344               	.LM320:
 2345 0a4c DF91      		pop r29
 2346 0a4e CF91      		pop r28
 2347               	.LVL241:
 2348 0a50 1F91      		pop r17
 2349 0a52 0F91      		pop r16
 2350               	.LVL242:
 2351 0a54 0895      		ret
 2352               	.LVL243:
 2353               	.L149:
 2354               	.LM321:
 2355 0a56 82E0      		ldi r24,lo8(2)
 2356 0a58 E42F      		mov r30,r20
 2357 0a5a F52F      		mov r31,r21
 2358 0a5c 8083      		st Z,r24
 2359               	.LM322:
 2360 0a5e DF91      		pop r29
 2361 0a60 CF91      		pop r28
 2362               	.LVL244:
 2363 0a62 1F91      		pop r17
 2364 0a64 0F91      		pop r16
 2365               	.LVL245:
 2366 0a66 0895      		ret
 2367               	.LVL246:
 2368               	.L145:
 2369               	.LM323:
 2370               	/* #APP */
 2371               	 ;  277 "./..\..\..\source\os_sem.c" 1
 2372 0a68 F894      		cli
 2373               	 ;  0 "" 2
 2374               	.LM324:
 2375               	/* #NOAPP */
 2376 0a6a 8A81      		ldd r24,Y+2
 2377 0a6c 9B81      		ldd r25,Y+3
 2378 0a6e 0097      		sbiw r24,0
 2379 0a70 01F0      		breq .L146
 2380               	.LM325:
 2381 0a72 0197      		sbiw r24,1
 2382 0a74 9B83      		std Y+3,r25
 2383 0a76 8A83      		std Y+2,r24
 2384               	.LM326:
 2385               	/* #APP */
 2386               	 ;  280 "./..\..\..\source\os_sem.c" 1
 2387 0a78 7894      		sei
 2388               	 ;  0 "" 2
 2389               	.LM327:
 2390               	/* #NOAPP */
 2391 0a7a E42F      		mov r30,r20
 2392 0a7c F52F      		mov r31,r21
 2393 0a7e 1082      		st Z,__zero_reg__
 2394               	.LM328:
GAS LISTING C:\DOCUME~1\KEUNSO~1\LOCALS~1\Temp/ccWaaqlF.s 			page 43


 2395 0a80 DF91      		pop r29
 2396 0a82 CF91      		pop r28
 2397               	.LVL247:
 2398 0a84 1F91      		pop r17
 2399 0a86 0F91      		pop r16
 2400               	.LVL248:
 2401 0a88 0895      		ret
 2402               	.LVL249:
 2403               	.L146:
 2404               	.LM329:
 2405 0a8a E091 0000 		lds r30,OSTCBCur
 2406 0a8e F091 0000 		lds r31,(OSTCBCur)+1
 2407 0a92 8689      		ldd r24,Z+22
 2408 0a94 8160      		ori r24,lo8(1)
 2409 0a96 868B      		std Z+22,r24
 2410               	.LM330:
 2411 0a98 758B      		std Z+21,r23
 2412 0a9a 648B      		std Z+20,r22
 2413               	.LM331:
 2414 0a9c 8C2F      		mov r24,r28
 2415 0a9e 9D2F      		mov r25,r29
 2416 0aa0 0E94 0000 		call OS_EventTaskWait
 2417               	.LVL250:
 2418               	.LM332:
 2419               	/* #APP */
 2420               	 ;  288 "./..\..\..\source\os_sem.c" 1
 2421 0aa4 7894      		sei
 2422               	 ;  0 "" 2
 2423               	.LM333:
 2424               	/* #NOAPP */
 2425 0aa6 0E94 0000 		call OS_Sched
 2426               	.LM334:
 2427               	/* #APP */
 2428               	 ;  290 "./..\..\..\source\os_sem.c" 1
 2429 0aaa F894      		cli
 2430               	 ;  0 "" 2
 2431               	.LM335:
 2432               	/* #NOAPP */
 2433 0aac E091 0000 		lds r30,OSTCBCur
 2434 0ab0 F091 0000 		lds r31,(OSTCBCur)+1
 2435 0ab4 8689      		ldd r24,Z+22
 2436 0ab6 80FD      		sbrc r24,0
 2437 0ab8 00C0      		rjmp .L150
 2438               	.LM336:
 2439 0aba 138A      		std Z+19,__zero_reg__
 2440 0abc 128A      		std Z+18,__zero_reg__
 2441               	.LM337:
 2442               	/* #APP */
 2443               	 ;  298 "./..\..\..\source\os_sem.c" 1
 2444 0abe 7894      		sei
 2445               	 ;  0 "" 2
 2446               	.LM338:
 2447               	/* #NOAPP */
 2448 0ac0 E02F      		mov r30,r16
 2449 0ac2 F12F      		mov r31,r17
 2450 0ac4 1082      		st Z,__zero_reg__
 2451 0ac6 00C0      		rjmp .L148
GAS LISTING C:\DOCUME~1\KEUNSO~1\LOCALS~1\Temp/ccWaaqlF.s 			page 44


 2452               	.L150:
 2453               	.LM339:
 2454 0ac8 8C2F      		mov r24,r28
 2455 0aca 9D2F      		mov r25,r29
 2456 0acc 0E94 0000 		call OS_EventTO
 2457               	.LM340:
 2458               	/* #APP */
 2459               	 ;  293 "./..\..\..\source\os_sem.c" 1
 2460 0ad0 7894      		sei
 2461               	 ;  0 "" 2
 2462               	.LM341:
 2463               	/* #NOAPP */
 2464 0ad2 8AE0      		ldi r24,lo8(10)
 2465 0ad4 E02F      		mov r30,r16
 2466 0ad6 F12F      		mov r31,r17
 2467 0ad8 8083      		st Z,r24
 2468 0ada 00C0      		rjmp .L148
 2469               	.LFE29:
 2470               		.size	OSSemPend, .-OSSemPend
 2471               	.global	OSTimeTick
 2472               		.type	OSTimeTick, @function
 2473               	OSTimeTick:
 2474               	.LFB9:
 2475               	.LM342:
 2476               	/* prologue: function */
 2477               	/* frame size = 0 */
 2478               	.LM343:
 2479 0adc 0E94 0000 		call OSTimeTickHook
 2480               	.LM344:
 2481               	/* #APP */
 2482               	 ;  661 "./..\..\..\source\os_core.c" 1
 2483 0ae0 F894      		cli
 2484               	 ;  0 "" 2
 2485               	.LM345:
 2486               	/* #NOAPP */
 2487 0ae2 8091 0000 		lds r24,OSTime
 2488 0ae6 9091 0000 		lds r25,(OSTime)+1
 2489 0aea A091 0000 		lds r26,(OSTime)+2
 2490 0aee B091 0000 		lds r27,(OSTime)+3
 2491 0af2 0196      		adiw r24,1
 2492 0af4 A11D      		adc r26,__zero_reg__
 2493 0af6 B11D      		adc r27,__zero_reg__
 2494 0af8 8093 0000 		sts OSTime,r24
 2495 0afc 9093 0000 		sts (OSTime)+1,r25
 2496 0b00 A093 0000 		sts (OSTime)+2,r26
 2497 0b04 B093 0000 		sts (OSTime)+3,r27
 2498               	.LM346:
 2499               	/* #APP */
 2500               	 ;  663 "./..\..\..\source\os_core.c" 1
 2501 0b08 7894      		sei
 2502               	 ;  0 "" 2
 2503               	.LM347:
 2504               	/* #NOAPP */
 2505 0b0a 8091 0000 		lds r24,OSRunning
 2506 0b0e 8130      		cpi r24,lo8(1)
 2507 0b10 01F0      		breq .L158
 2508               	.LVL251:
GAS LISTING C:\DOCUME~1\KEUNSO~1\LOCALS~1\Temp/ccWaaqlF.s 			page 45


 2509               	.L156:
 2510 0b12 0895      		ret
 2511               	.LVL252:
 2512               	.L158:
 2513               	.LM348:
 2514 0b14 A091 0000 		lds r26,OSTCBList
 2515 0b18 B091 0000 		lds r27,(OSTCBList)+1
 2516               	.LVL253:
 2517               	.LM349:
 2518 0b1c 5796      		adiw r26,23
 2519 0b1e 8C91      		ld r24,X
 2520 0b20 5797      		sbiw r26,23
 2521 0b22 8C30      		cpi r24,lo8(12)
 2522 0b24 01F0      		breq .L156
 2523 0b26 2091 0000 		lds r18,OSRdyGrp
 2524               	.LM350:
 2525 0b2a 41E0      		ldi r20,lo8(1)
 2526 0b2c 50E0      		ldi r21,hi8(1)
 2527 0b2e 00C0      		rjmp .L155
 2528               	.L160:
 2529               	.LM351:
 2530 0b30 5B96      		adiw r26,27
 2531 0b32 8C91      		ld r24,X
 2532 0b34 5B97      		sbiw r26,27
 2533 0b36 282B      		or r18,r24
 2534               	.LM352:
 2535 0b38 5996      		adiw r26,25
 2536 0b3a EC91      		ld r30,X
 2537 0b3c 5997      		sbiw r26,25
 2538 0b3e F0E0      		ldi r31,lo8(0)
 2539 0b40 E050      		subi r30,lo8(-(OSRdyTbl))
 2540 0b42 F040      		sbci r31,hi8(-(OSRdyTbl))
 2541 0b44 8081      		ld r24,Z
 2542 0b46 5A96      		adiw r26,26
 2543 0b48 9C91      		ld r25,X
 2544 0b4a 5A97      		sbiw r26,26
 2545 0b4c 892B      		or r24,r25
 2546 0b4e 8083      		st Z,r24
 2547               	.L153:
 2548               	.LM353:
 2549 0b50 1E96      		adiw r26,14
 2550 0b52 0D90      		ld __tmp_reg__,X+
 2551 0b54 BC91      		ld r27,X
 2552 0b56 A02D      		mov r26,__tmp_reg__
 2553               	.LM354:
 2554               	/* #APP */
 2555               	 ;  704 "./..\..\..\source\os_core.c" 1
 2556 0b58 7894      		sei
 2557               	 ;  0 "" 2
 2558               	.LM355:
 2559               	/* #NOAPP */
 2560 0b5a 5796      		adiw r26,23
 2561 0b5c 8C91      		ld r24,X
 2562 0b5e 5797      		sbiw r26,23
 2563 0b60 8C30      		cpi r24,lo8(12)
 2564 0b62 01F0      		breq .L159
 2565               	.L155:
GAS LISTING C:\DOCUME~1\KEUNSO~1\LOCALS~1\Temp/ccWaaqlF.s 			page 46


 2566               	.LM356:
 2567               	/* #APP */
 2568               	 ;  692 "./..\..\..\source\os_core.c" 1
 2569 0b64 F894      		cli
 2570               	 ;  0 "" 2
 2571               	.LM357:
 2572               	/* #NOAPP */
 2573 0b66 5496      		adiw r26,20
 2574 0b68 8D91      		ld r24,X+
 2575 0b6a 9C91      		ld r25,X
 2576 0b6c 5597      		sbiw r26,20+1
 2577 0b6e 0097      		sbiw r24,0
 2578 0b70 01F0      		breq .L153
 2579               	.LM358:
 2580 0b72 0197      		sbiw r24,1
 2581 0b74 5596      		adiw r26,20+1
 2582 0b76 9C93      		st X,r25
 2583 0b78 8E93      		st -X,r24
 2584 0b7a 5497      		sbiw r26,20
 2585 0b7c 892B      		or r24,r25
 2586 0b7e 01F4      		brne .L153
 2587               	.LM359:
 2588 0b80 5696      		adiw r26,22
 2589 0b82 8C91      		ld r24,X
 2590 0b84 5697      		sbiw r26,22
 2591 0b86 83FF      		sbrs r24,3
 2592 0b88 00C0      		rjmp .L160
 2593               	.LM360:
 2594 0b8a 5596      		adiw r26,20+1
 2595 0b8c 5C93      		st X,r21
 2596 0b8e 4E93      		st -X,r20
 2597 0b90 5497      		sbiw r26,20
 2598 0b92 00C0      		rjmp .L153
 2599               	.L159:
 2600               	.LM361:
 2601 0b94 2093 0000 		sts OSRdyGrp,r18
 2602 0b98 0895      		ret
 2603               	.LFE9:
 2604               		.size	OSTimeTick, .-OSTimeTick
 2605               	.global	OSStart
 2606               		.type	OSStart, @function
 2607               	OSStart:
 2608               	.LFB7:
 2609               	.LM362:
 2610               	/* prologue: function */
 2611               	/* frame size = 0 */
 2612               	.LM363:
 2613 0b9a 8091 0000 		lds r24,OSRunning
 2614 0b9e 8111      		cpse r24,__zero_reg__
 2615 0ba0 0895      		ret
 2616               	.L164:
 2617               	.LM364:
 2618 0ba2 E091 0000 		lds r30,OSRdyGrp
 2619 0ba6 F0E0      		ldi r31,lo8(0)
 2620 0ba8 E050      		subi r30,lo8(-(OSUnMapTbl))
 2621 0baa F040      		sbci r31,hi8(-(OSUnMapTbl))
 2622 0bac A081      		ld r26,Z
GAS LISTING C:\DOCUME~1\KEUNSO~1\LOCALS~1\Temp/ccWaaqlF.s 			page 47


 2623               	.LVL254:
 2624               	.LM365:
 2625 0bae EA2F      		mov r30,r26
 2626 0bb0 F0E0      		ldi r31,lo8(0)
 2627               	.LVL255:
 2628 0bb2 E050      		subi r30,lo8(-(OSRdyTbl))
 2629 0bb4 F040      		sbci r31,hi8(-(OSRdyTbl))
 2630               	.LVL256:
 2631 0bb6 E081      		ld r30,Z
 2632               	.LVL257:
 2633 0bb8 F0E0      		ldi r31,lo8(0)
 2634               	.LVL258:
 2635 0bba E050      		subi r30,lo8(-(OSUnMapTbl))
 2636 0bbc F040      		sbci r31,hi8(-(OSUnMapTbl))
 2637 0bbe AA0F      		lsl r26
 2638 0bc0 AA0F      		lsl r26
 2639 0bc2 AA0F      		lsl r26
 2640               	.LVL259:
 2641 0bc4 8081      		ld r24,Z
 2642 0bc6 A80F      		add r26,r24
 2643 0bc8 A093 0000 		sts OSPrioHighRdy,r26
 2644               	.LM366:
 2645 0bcc A093 0000 		sts OSPrioCur,r26
 2646               	.LM367:
 2647 0bd0 B0E0      		ldi r27,lo8(0)
 2648 0bd2 AA0F      		lsl r26
 2649 0bd4 BB1F      		rol r27
 2650 0bd6 A050      		subi r26,lo8(-(OSTCBPrioTbl))
 2651 0bd8 B040      		sbci r27,hi8(-(OSTCBPrioTbl))
 2652 0bda 8D91      		ld r24,X+
 2653 0bdc 9C91      		ld r25,X
 2654 0bde 9093 0000 		sts (OSTCBHighRdy)+1,r25
 2655 0be2 8093 0000 		sts OSTCBHighRdy,r24
 2656               	.LM368:
 2657 0be6 9093 0000 		sts (OSTCBCur)+1,r25
 2658 0bea 8093 0000 		sts OSTCBCur,r24
 2659               	.LM369:
 2660 0bee 0E94 0000 		call OSStartHighRdy
 2661 0bf2 0895      		ret
 2662               	.LFE7:
 2663               		.size	OSStart, .-OSStart
 2664               	.global	OSIntExit
 2665               		.type	OSIntExit, @function
 2666               	OSIntExit:
 2667               	.LFB6:
 2668               	.LM370:
 2669               	/* prologue: function */
 2670               	/* frame size = 0 */
 2671               	.LM371:
 2672 0bf4 8091 0000 		lds r24,OSRunning
 2673 0bf8 8130      		cpi r24,lo8(1)
 2674 0bfa 01F0      		breq .L170
 2675 0bfc 0895      		ret
 2676               	.L170:
 2677               	.LM372:
 2678               	/* #APP */
 2679               	 ;  455 "./..\..\..\source\os_core.c" 1
GAS LISTING C:\DOCUME~1\KEUNSO~1\LOCALS~1\Temp/ccWaaqlF.s 			page 48


 2680 0bfe F894      		cli
 2681               	 ;  0 "" 2
 2682               	.LM373:
 2683               	/* #NOAPP */
 2684 0c00 8091 0000 		lds r24,OSIntNesting
 2685 0c04 8823      		tst r24
 2686 0c06 01F0      		breq .L167
 2687               	.LM374:
 2688 0c08 8150      		subi r24,lo8(-(-1))
 2689 0c0a 8093 0000 		sts OSIntNesting,r24
 2690               	.LM375:
 2691 0c0e 8823      		tst r24
 2692 0c10 01F0      		breq .L167
 2693               	.L168:
 2694               	.LM376:
 2695               	/* #APP */
 2696               	 ;  473 "./..\..\..\source\os_core.c" 1
 2697 0c12 7894      		sei
 2698               	 ;  0 "" 2
 2699               	/* #NOAPP */
 2700 0c14 0895      		ret
 2701               	.L167:
 2702               	.LM377:
 2703 0c16 8091 0000 		lds r24,OSLockNesting
 2704 0c1a 8823      		tst r24
 2705 0c1c 01F4      		brne .L168
 2706               	.LM378:
 2707 0c1e E091 0000 		lds r30,OSRdyGrp
 2708 0c22 F0E0      		ldi r31,lo8(0)
 2709 0c24 E050      		subi r30,lo8(-(OSUnMapTbl))
 2710 0c26 F040      		sbci r31,hi8(-(OSUnMapTbl))
 2711 0c28 8081      		ld r24,Z
 2712 0c2a 8093 0000 		sts OSIntExitY,r24
 2713               	.LM379:
 2714 0c2e E82F      		mov r30,r24
 2715 0c30 F0E0      		ldi r31,lo8(0)
 2716 0c32 E050      		subi r30,lo8(-(OSRdyTbl))
 2717 0c34 F040      		sbci r31,hi8(-(OSRdyTbl))
 2718 0c36 E081      		ld r30,Z
 2719 0c38 F0E0      		ldi r31,lo8(0)
 2720 0c3a E050      		subi r30,lo8(-(OSUnMapTbl))
 2721 0c3c F040      		sbci r31,hi8(-(OSUnMapTbl))
 2722 0c3e 982F      		mov r25,r24
 2723 0c40 990F      		lsl r25
 2724 0c42 990F      		lsl r25
 2725 0c44 990F      		lsl r25
 2726 0c46 8081      		ld r24,Z
 2727 0c48 980F      		add r25,r24
 2728 0c4a 9093 0000 		sts OSPrioHighRdy,r25
 2729               	.LM380:
 2730 0c4e 8091 0000 		lds r24,OSPrioCur
 2731 0c52 9817      		cp r25,r24
 2732 0c54 01F0      		breq .L168
 2733               	.LM381:
 2734 0c56 E92F      		mov r30,r25
 2735 0c58 F0E0      		ldi r31,lo8(0)
 2736 0c5a EE0F      		lsl r30
GAS LISTING C:\DOCUME~1\KEUNSO~1\LOCALS~1\Temp/ccWaaqlF.s 			page 49


 2737 0c5c FF1F      		rol r31
 2738 0c5e E050      		subi r30,lo8(-(OSTCBPrioTbl))
 2739 0c60 F040      		sbci r31,hi8(-(OSTCBPrioTbl))
 2740 0c62 0190      		ld __tmp_reg__,Z+
 2741 0c64 F081      		ld r31,Z
 2742 0c66 E02D      		mov r30,__tmp_reg__
 2743 0c68 F093 0000 		sts (OSTCBHighRdy)+1,r31
 2744 0c6c E093 0000 		sts OSTCBHighRdy,r30
 2745               	.LM382:
 2746 0c70 848D      		ldd r24,Z+28
 2747 0c72 958D      		ldd r25,Z+29
 2748 0c74 A68D      		ldd r26,Z+30
 2749 0c76 B78D      		ldd r27,Z+31
 2750 0c78 0196      		adiw r24,1
 2751 0c7a A11D      		adc r26,__zero_reg__
 2752 0c7c B11D      		adc r27,__zero_reg__
 2753 0c7e 848F      		std Z+28,r24
 2754 0c80 958F      		std Z+29,r25
 2755 0c82 A68F      		std Z+30,r26
 2756 0c84 B78F      		std Z+31,r27
 2757               	.LM383:
 2758 0c86 8091 0000 		lds r24,OSCtxSwCtr
 2759 0c8a 9091 0000 		lds r25,(OSCtxSwCtr)+1
 2760 0c8e A091 0000 		lds r26,(OSCtxSwCtr)+2
 2761 0c92 B091 0000 		lds r27,(OSCtxSwCtr)+3
 2762 0c96 0196      		adiw r24,1
 2763 0c98 A11D      		adc r26,__zero_reg__
 2764 0c9a B11D      		adc r27,__zero_reg__
 2765 0c9c 8093 0000 		sts OSCtxSwCtr,r24
 2766 0ca0 9093 0000 		sts (OSCtxSwCtr)+1,r25
 2767 0ca4 A093 0000 		sts (OSCtxSwCtr)+2,r26
 2768 0ca8 B093 0000 		sts (OSCtxSwCtr)+3,r27
 2769               	.LM384:
 2770 0cac 0E94 0000 		call OSIntCtxSw
 2771 0cb0 00C0      		rjmp .L168
 2772               	.LFE6:
 2773               		.size	OSIntExit, .-OSIntExit
 2774               	.global	OS_TaskStatStkChk
 2775               		.type	OS_TaskStatStkChk, @function
 2776               	OS_TaskStatStkChk:
 2777               	.LFB24:
 2778               	.LM385:
 2779 0cb2 EF92      		push r14
 2780 0cb4 FF92      		push r15
 2781 0cb6 0F93      		push r16
 2782 0cb8 1F93      		push r17
 2783 0cba CF93      		push r28
 2784 0cbc DF93      		push r29
 2785               	/* prologue: function */
 2786               	/* frame size = 0 */
 2787               	.LM386:
 2788 0cbe 60E0      		ldi r22,lo8(OSTCBPrioTbl)
 2789 0cc0 70E0      		ldi r23,hi8(OSTCBPrioTbl)
 2790 0cc2 00C0      		rjmp .L179
 2791               	.LVL260:
 2792               	.L172:
 2793               	.LBB22:
GAS LISTING C:\DOCUME~1\KEUNSO~1\LOCALS~1\Temp/ccWaaqlF.s 			page 50


 2794               	.LBB24:
 2795               	.LM387:
 2796 0cc4 A130      		cpi r26,1
 2797 0cc6 B105      		cpc r27,__zero_reg__
 2798 0cc8 01F0      		breq .L183
 2799               	.LM388:
 2800 0cca 1A96      		adiw r26,10
 2801 0ccc 8C91      		ld r24,X
 2802 0cce 1A97      		sbiw r26,10
 2803 0cd0 80FD      		sbrc r24,0
 2804 0cd2 00C0      		rjmp .L175
 2805               	.LM389:
 2806               	/* #APP */
 2807               	 ;  771 "./..\..\..\source\os_task.c" 1
 2808 0cd4 7894      		sei
 2809               	 ;  0 "" 2
 2810               	/* #NOAPP */
 2811               	.L173:
 2812               	.LBE24:
 2813               	.LBE22:
 2814               	.LM390:
 2815 0cd6 6E5F      		subi r22,lo8(-(2))
 2816 0cd8 7F4F      		sbci r23,hi8(-(2))
 2817               	.LM391:
 2818 0cda F0E0      		ldi r31,hi8(OSTCBPrioTbl+26)
 2819 0cdc 6030      		cpi r22,lo8(OSTCBPrioTbl+26)
 2820 0cde 7F07      		cpc r23,r31
 2821 0ce0 01F0      		breq .L184
 2822               	.L179:
 2823               	.LBB27:
 2824               	.LBB25:
 2825               	.LM392:
 2826               	/* #APP */
 2827               	 ;  757 "./..\..\..\source\os_task.c" 1
 2828 0ce2 F894      		cli
 2829               	 ;  0 "" 2
 2830               	.LM393:
 2831               	/* #NOAPP */
 2832 0ce4 E62F      		mov r30,r22
 2833 0ce6 F72F      		mov r31,r23
 2834 0ce8 A081      		ld r26,Z
 2835 0cea B181      		ldd r27,Z+1
 2836               	.LM394:
 2837 0cec 1097      		sbiw r26,0
 2838 0cee 01F4      		brne .L172
 2839               	.LM395:
 2840               	/* #APP */
 2841               	 ;  763 "./..\..\..\source\os_task.c" 1
 2842 0cf0 7894      		sei
 2843               	 ;  0 "" 2
 2844               	/* #NOAPP */
 2845               	.LBE25:
 2846               	.LBE27:
 2847               	.LM396:
 2848 0cf2 6E5F      		subi r22,lo8(-(2))
 2849 0cf4 7F4F      		sbci r23,hi8(-(2))
 2850               	.LM397:
GAS LISTING C:\DOCUME~1\KEUNSO~1\LOCALS~1\Temp/ccWaaqlF.s 			page 51


 2851 0cf6 F0E0      		ldi r31,hi8(OSTCBPrioTbl+26)
 2852 0cf8 6030      		cpi r22,lo8(OSTCBPrioTbl+26)
 2853 0cfa 7F07      		cpc r23,r31
 2854 0cfc 01F4      		brne .L179
 2855               	.L184:
 2856               	/* epilogue start */
 2857               	.LM398:
 2858 0cfe DF91      		pop r29
 2859 0d00 CF91      		pop r28
 2860               	.LVL261:
 2861 0d02 1F91      		pop r17
 2862 0d04 0F91      		pop r16
 2863 0d06 FF90      		pop r15
 2864 0d08 EF90      		pop r14
 2865               	.LVL262:
 2866 0d0a 0895      		ret
 2867               	.LVL263:
 2868               	.L183:
 2869               	.LBB28:
 2870               	.LBB23:
 2871               	.LM399:
 2872               	/* #APP */
 2873               	 ;  767 "./..\..\..\source\os_task.c" 1
 2874 0d0c 7894      		sei
 2875               	 ;  0 "" 2
 2876               	/* #NOAPP */
 2877 0d0e 00C0      		rjmp .L173
 2878               	.L175:
 2879               	.LM400:
 2880 0d10 1696      		adiw r26,6
 2881 0d12 ED90      		ld r14,X+
 2882 0d14 FD90      		ld r15,X+
 2883 0d16 0D91      		ld r16,X+
 2884 0d18 1C91      		ld r17,X
 2885 0d1a 1997      		sbiw r26,6+3
 2886               	.LM401:
 2887 0d1c 1496      		adiw r26,4
 2888 0d1e CD91      		ld r28,X+
 2889 0d20 DC91      		ld r29,X
 2890 0d22 1597      		sbiw r26,4+1
 2891               	.LM402:
 2892               	/* #APP */
 2893               	 ;  777 "./..\..\..\source\os_task.c" 1
 2894 0d24 7894      		sei
 2895               	 ;  0 "" 2
 2896               	.LM403:
 2897               	/* #NOAPP */
 2898 0d26 8881      		ld r24,Y
 2899 0d28 8823      		tst r24
 2900 0d2a 01F4      		brne .L185
 2901 0d2c 20E0      		ldi r18,lo8(0)
 2902 0d2e 30E0      		ldi r19,hi8(0)
 2903 0d30 40E0      		ldi r20,hlo8(0)
 2904 0d32 50E0      		ldi r21,hhi8(0)
 2905               	.L178:
 2906               	.LM404:
 2907 0d34 2F5F      		subi r18,lo8(-(1))
GAS LISTING C:\DOCUME~1\KEUNSO~1\LOCALS~1\Temp/ccWaaqlF.s 			page 52


 2908 0d36 3F4F      		sbci r19,hi8(-(1))
 2909 0d38 4F4F      		sbci r20,hlo8(-(1))
 2910 0d3a 5F4F      		sbci r21,hhi8(-(1))
 2911               	.LM405:
 2912 0d3c EC2F      		mov r30,r28
 2913 0d3e FD2F      		mov r31,r29
 2914 0d40 E20F      		add r30,r18
 2915 0d42 F31F      		adc r31,r19
 2916 0d44 8081      		ld r24,Z
 2917 0d46 8823      		tst r24
 2918 0d48 01F0      		breq .L178
 2919               	.L177:
 2920               	.LBE23:
 2921               	.LBE28:
 2922               	.LM406:
 2923 0d4a CE0D      		add r28,r14
 2924 0d4c DF1D      		adc r29,r15
 2925 0d4e 9996      		adiw r26,40+1
 2926 0d50 DC93      		st X,r29
 2927 0d52 CE93      		st -X,r28
 2928 0d54 9897      		sbiw r26,40
 2929               	.LM407:
 2930 0d56 E21A      		sub r14,r18
 2931 0d58 F30A      		sbc r15,r19
 2932 0d5a 040B      		sbc r16,r20
 2933 0d5c 150B      		sbc r17,r21
 2934 0d5e 9A96      		adiw r26,42
 2935 0d60 ED92      		st X+,r14
 2936 0d62 FD92      		st X+,r15
 2937 0d64 0D93      		st X+,r16
 2938 0d66 1C93      		st X,r17
 2939 0d68 9D97      		sbiw r26,42+3
 2940 0d6a 00C0      		rjmp .L173
 2941               	.L185:
 2942               	.LBB29:
 2943               	.LBB26:
 2944               	.LM408:
 2945 0d6c 20E0      		ldi r18,lo8(0)
 2946 0d6e 30E0      		ldi r19,hi8(0)
 2947 0d70 40E0      		ldi r20,hlo8(0)
 2948 0d72 50E0      		ldi r21,hhi8(0)
 2949 0d74 00C0      		rjmp .L177
 2950               	.LBE26:
 2951               	.LBE29:
 2952               	.LFE24:
 2953               		.size	OS_TaskStatStkChk, .-OS_TaskStatStkChk
 2954               	.global	OSSemDel
 2955               		.type	OSSemDel, @function
 2956               	OSSemDel:
 2957               	.LFB28:
 2958               	.LM409:
 2959               	.LVL264:
 2960 0d76 DF92      		push r13
 2961 0d78 EF92      		push r14
 2962 0d7a FF92      		push r15
 2963 0d7c 0F93      		push r16
 2964 0d7e 1F93      		push r17
GAS LISTING C:\DOCUME~1\KEUNSO~1\LOCALS~1\Temp/ccWaaqlF.s 			page 53


 2965 0d80 CF93      		push r28
 2966 0d82 DF93      		push r29
 2967               	/* prologue: function */
 2968               	/* frame size = 0 */
 2969 0d84 C82F      		mov r28,r24
 2970 0d86 D92F      		mov r29,r25
 2971 0d88 042F      		mov r16,r20
 2972 0d8a 152F      		mov r17,r21
 2973               	.LM410:
 2974 0d8c 8091 0000 		lds r24,OSIntNesting
 2975               	.LVL265:
 2976 0d90 8823      		tst r24
 2977 0d92 01F4      		brne .L202
 2978               	.LVL266:
 2979               	.LM411:
 2980 0d94 8881      		ld r24,Y
 2981 0d96 8330      		cpi r24,lo8(3)
 2982 0d98 01F0      		breq .L189
 2983               	.LM412:
 2984 0d9a 81E0      		ldi r24,lo8(1)
 2985 0d9c E42F      		mov r30,r20
 2986 0d9e F52F      		mov r31,r21
 2987 0da0 8083      		st Z,r24
 2988               	.LVL267:
 2989               	.L188:
 2990               	.LM413:
 2991 0da2 8C2F      		mov r24,r28
 2992 0da4 9D2F      		mov r25,r29
 2993               	.LVL268:
 2994               	/* epilogue start */
 2995 0da6 DF91      		pop r29
 2996               	.LVL269:
 2997 0da8 CF91      		pop r28
 2998               	.LVL270:
 2999 0daa 1F91      		pop r17
 3000 0dac 0F91      		pop r16
 3001 0dae FF90      		pop r15
 3002               	.LVL271:
 3003 0db0 EF90      		pop r14
 3004 0db2 DF90      		pop r13
 3005 0db4 0895      		ret
 3006               	.LVL272:
 3007               	.L202:
 3008               	.LM414:
 3009 0db6 8CE8      		ldi r24,lo8(-116)
 3010 0db8 E42F      		mov r30,r20
 3011 0dba F52F      		mov r31,r21
 3012 0dbc 8083      		st Z,r24
 3013 0dbe 00C0      		rjmp .L188
 3014               	.L189:
 3015               	.LM415:
 3016               	/* #APP */
 3017               	 ;  173 "./..\..\..\source\os_sem.c" 1
 3018 0dc0 F894      		cli
 3019               	 ;  0 "" 2
 3020               	.LM416:
 3021               	/* #NOAPP */
GAS LISTING C:\DOCUME~1\KEUNSO~1\LOCALS~1\Temp/ccWaaqlF.s 			page 54


 3022 0dc2 3981      		ldd r19,Y+1
 3023 0dc4 D32E      		mov r13,r19
 3024 0dc6 3323      		tst r19
 3025 0dc8 01F0      		breq .L190
 3026 0dca DD24      		clr r13
 3027 0dcc D394      		inc r13
 3028               	.L190:
 3029               	.LM417:
 3030 0dce 6623      		tst r22
 3031 0dd0 01F4      		brne .L203
 3032               	.LM418:
 3033 0dd2 DD20      		tst r13
 3034 0dd4 01F4      		brne .+2
 3035 0dd6 00C0      		rjmp .L204
 3036               	.LM419:
 3037               	/* #APP */
 3038               	 ;  193 "./..\..\..\source\os_sem.c" 1
 3039 0dd8 7894      		sei
 3040               	 ;  0 "" 2
 3041               	.LM420:
 3042               	/* #NOAPP */
 3043 0dda 88E0      		ldi r24,lo8(8)
 3044 0ddc E02F      		mov r30,r16
 3045 0dde F12F      		mov r31,r17
 3046 0de0 8083      		st Z,r24
 3047 0de2 00C0      		rjmp .L188
 3048               	.L203:
 3049               	.LM421:
 3050 0de4 6130      		cpi r22,lo8(1)
 3051 0de6 01F0      		breq .L205
 3052               	.LM422:
 3053               	/* #APP */
 3054               	 ;  218 "./..\..\..\source\os_sem.c" 1
 3055 0de8 7894      		sei
 3056               	 ;  0 "" 2
 3057               	.LM423:
 3058               	/* #NOAPP */
 3059 0dea 87E0      		ldi r24,lo8(7)
 3060 0dec E02F      		mov r30,r16
 3061 0dee F12F      		mov r31,r17
 3062 0df0 8083      		st Z,r24
 3063 0df2 00C0      		rjmp .L188
 3064               	.L205:
 3065               	.LM424:
 3066 0df4 E090 0000 		lds r14,OSRdyGrp
 3067               	.LVL273:
 3068               	.L194:
 3069               	.LM425:
 3070 0df8 3323      		tst r19
 3071 0dfa 01F4      		brne .+2
 3072 0dfc 00C0      		rjmp .L206
 3073               	.LBB34:
 3074               	.LBB35:
 3075               	.LM426:
 3076 0dfe E32F      		mov r30,r19
 3077               	.LVL274:
 3078 0e00 F0E0      		ldi r31,lo8(0)
GAS LISTING C:\DOCUME~1\KEUNSO~1\LOCALS~1\Temp/ccWaaqlF.s 			page 55


 3079 0e02 E050      		subi r30,lo8(-(OSUnMapTbl))
 3080 0e04 F040      		sbci r31,hi8(-(OSUnMapTbl))
 3081 0e06 4081      		ld r20,Z
 3082               	.LM427:
 3083 0e08 642F      		mov r22,r20
 3084               	.LVL275:
 3085 0e0a 70E0      		ldi r23,lo8(0)
 3086 0e0c E62F      		mov r30,r22
 3087 0e0e F72F      		mov r31,r23
 3088 0e10 E050      		subi r30,lo8(-(OSMapTbl))
 3089 0e12 F040      		sbci r31,hi8(-(OSMapTbl))
 3090 0e14 F080      		ld r15,Z
 3091               	.LM428:
 3092 0e16 AC2F      		mov r26,r28
 3093 0e18 BD2F      		mov r27,r29
 3094 0e1a A60F      		add r26,r22
 3095 0e1c B71F      		adc r27,r23
 3096 0e1e 1696      		adiw r26,6
 3097 0e20 9C91      		ld r25,X
 3098 0e22 1697      		sbiw r26,6
 3099 0e24 E92F      		mov r30,r25
 3100 0e26 F0E0      		ldi r31,lo8(0)
 3101 0e28 E050      		subi r30,lo8(-(OSUnMapTbl))
 3102 0e2a F040      		sbci r31,hi8(-(OSUnMapTbl))
 3103 0e2c 2081      		ld r18,Z
 3104               	.LVL276:
 3105               	.LM429:
 3106 0e2e E22F      		mov r30,r18
 3107 0e30 F0E0      		ldi r31,lo8(0)
 3108               	.LVL277:
 3109 0e32 E050      		subi r30,lo8(-(OSMapTbl))
 3110 0e34 F040      		sbci r31,hi8(-(OSMapTbl))
 3111               	.LVL278:
 3112 0e36 5081      		ld r21,Z
 3113               	.LM430:
 3114 0e38 852F      		mov r24,r21
 3115 0e3a 8095      		com r24
 3116 0e3c 8923      		and r24,r25
 3117 0e3e 1696      		adiw r26,6
 3118 0e40 8C93      		st X,r24
 3119               	.LM431:
 3120 0e42 8823      		tst r24
 3121 0e44 01F4      		brne .L196
 3122               	.LM432:
 3123 0e46 8F2D      		mov r24,r15
 3124 0e48 8095      		com r24
 3125 0e4a 3823      		and r19,r24
 3126 0e4c 3983      		std Y+1,r19
 3127               	.L196:
 3128               	.LM433:
 3129 0e4e 440F      		lsl r20
 3130 0e50 440F      		lsl r20
 3131 0e52 440F      		lsl r20
 3132 0e54 240F      		add r18,r20
 3133               	.LVL279:
 3134 0e56 E22F      		mov r30,r18
 3135 0e58 F0E0      		ldi r31,lo8(0)
GAS LISTING C:\DOCUME~1\KEUNSO~1\LOCALS~1\Temp/ccWaaqlF.s 			page 56


 3136               	.LVL280:
 3137 0e5a EE0F      		lsl r30
 3138 0e5c FF1F      		rol r31
 3139               	.LVL281:
 3140 0e5e E050      		subi r30,lo8(-(OSTCBPrioTbl))
 3141 0e60 F040      		sbci r31,hi8(-(OSTCBPrioTbl))
 3142 0e62 0190      		ld __tmp_reg__,Z+
 3143 0e64 F081      		ld r31,Z
 3144 0e66 E02D      		mov r30,__tmp_reg__
 3145               	.LVL282:
 3146               	.LM434:
 3147 0e68 158A      		std Z+21,__zero_reg__
 3148 0e6a 148A      		std Z+20,__zero_reg__
 3149               	.LM435:
 3150 0e6c 138A      		std Z+19,__zero_reg__
 3151 0e6e 128A      		std Z+18,__zero_reg__
 3152               	.LM436:
 3153 0e70 8689      		ldd r24,Z+22
 3154 0e72 8E7F      		andi r24,lo8(-2)
 3155 0e74 868B      		std Z+22,r24
 3156               	.LM437:
 3157 0e76 8823      		tst r24
 3158 0e78 01F4      		brne .L197
 3159               	.LM438:
 3160 0e7a EF28      		or r14,r15
 3161               	.LM439:
 3162 0e7c E62F      		mov r30,r22
 3163 0e7e F72F      		mov r31,r23
 3164               	.LVL283:
 3165 0e80 E050      		subi r30,lo8(-(OSRdyTbl))
 3166 0e82 F040      		sbci r31,hi8(-(OSRdyTbl))
 3167 0e84 8081      		ld r24,Z
 3168 0e86 582B      		or r21,r24
 3169 0e88 5083      		st Z,r21
 3170               	.LVL284:
 3171               	.L197:
 3172 0e8a 3981      		ldd r19,Y+1
 3173 0e8c 00C0      		rjmp .L194
 3174               	.LVL285:
 3175               	.L206:
 3176               	.LBE35:
 3177               	.LBE34:
 3178               	.LM440:
 3179 0e8e E092 0000 		sts OSRdyGrp,r14
 3180               	.LM441:
 3181 0e92 8FE3      		ldi r24,lo8(63)
 3182 0e94 90E0      		ldi r25,hi8(63)
 3183 0e96 9987      		std Y+9,r25
 3184 0e98 8887      		std Y+8,r24
 3185               	.LBB36:
 3186               	.LBB37:
 3187               	.LM442:
 3188 0e9a 1982      		std Y+1,__zero_reg__
 3189               	.LM443:
 3190 0e9c 1E82      		std Y+6,__zero_reg__
 3191               	.LM444:
 3192 0e9e 1F82      		std Y+7,__zero_reg__
GAS LISTING C:\DOCUME~1\KEUNSO~1\LOCALS~1\Temp/ccWaaqlF.s 			page 57


 3193               	.LBE37:
 3194               	.LBE36:
 3195               	.LM445:
 3196 0ea0 1882      		st Y,__zero_reg__
 3197               	.LM446:
 3198 0ea2 8091 0000 		lds r24,OSEventFreeList
 3199 0ea6 9091 0000 		lds r25,(OSEventFreeList)+1
 3200 0eaa 9D83      		std Y+5,r25
 3201 0eac 8C83      		std Y+4,r24
 3202               	.LM447:
 3203 0eae 1B82      		std Y+3,__zero_reg__
 3204 0eb0 1A82      		std Y+2,__zero_reg__
 3205               	.LM448:
 3206 0eb2 D093 0000 		sts (OSEventFreeList)+1,r29
 3207 0eb6 C093 0000 		sts OSEventFreeList,r28
 3208               	.LM449:
 3209               	/* #APP */
 3210               	 ;  210 "./..\..\..\source\os_sem.c" 1
 3211 0eba 7894      		sei
 3212               	 ;  0 "" 2
 3213               	.LM450:
 3214               	/* #NOAPP */
 3215 0ebc F1E0      		ldi r31,lo8(1)
 3216 0ebe DF16      		cp r13,r31
 3217 0ec0 01F0      		breq .L207
 3218               	.L199:
 3219               	.LM451:
 3220 0ec2 E02F      		mov r30,r16
 3221 0ec4 F12F      		mov r31,r17
 3222               	.LVL286:
 3223 0ec6 1082      		st Z,__zero_reg__
 3224 0ec8 C0E0      		ldi r28,lo8(0)
 3225 0eca D0E0      		ldi r29,hi8(0)
 3226 0ecc 00C0      		rjmp .L188
 3227               	.LVL287:
 3228               	.L207:
 3229               	.LM452:
 3230 0ece 0E94 0000 		call OS_Sched
 3231               	.LVL288:
 3232 0ed2 00C0      		rjmp .L199
 3233               	.LVL289:
 3234               	.L204:
 3235               	.LM453:
 3236 0ed4 8FE3      		ldi r24,lo8(63)
 3237 0ed6 90E0      		ldi r25,hi8(63)
 3238 0ed8 9987      		std Y+9,r25
 3239 0eda 8887      		std Y+8,r24
 3240               	.LM454:
 3241 0edc 1882      		st Y,__zero_reg__
 3242               	.LM455:
 3243 0ede 8091 0000 		lds r24,OSEventFreeList
 3244 0ee2 9091 0000 		lds r25,(OSEventFreeList)+1
 3245 0ee6 9D83      		std Y+5,r25
 3246 0ee8 8C83      		std Y+4,r24
 3247               	.LM456:
 3248 0eea 1B82      		std Y+3,__zero_reg__
 3249 0eec 1A82      		std Y+2,__zero_reg__
GAS LISTING C:\DOCUME~1\KEUNSO~1\LOCALS~1\Temp/ccWaaqlF.s 			page 58


 3250               	.LM457:
 3251 0eee D093 0000 		sts (OSEventFreeList)+1,r29
 3252 0ef2 C093 0000 		sts OSEventFreeList,r28
 3253               	.LM458:
 3254               	/* #APP */
 3255               	 ;  189 "./..\..\..\source\os_sem.c" 1
 3256 0ef6 7894      		sei
 3257               	 ;  0 "" 2
 3258               	.LM459:
 3259               	/* #NOAPP */
 3260 0ef8 E02F      		mov r30,r16
 3261 0efa F12F      		mov r31,r17
 3262 0efc 1082      		st Z,__zero_reg__
 3263 0efe C0E0      		ldi r28,lo8(0)
 3264 0f00 D0E0      		ldi r29,hi8(0)
 3265 0f02 00C0      		rjmp .L188
 3266               	.LFE28:
 3267               		.size	OSSemDel, .-OSSemDel
 3268               	.global	OSInit
 3269               		.type	OSInit, @function
 3270               	OSInit:
 3271               	.LFB4:
 3272               	.LM460:
 3273 0f04 AF92      		push r10
 3274 0f06 BF92      		push r11
 3275 0f08 CF92      		push r12
 3276 0f0a DF92      		push r13
 3277 0f0c EF92      		push r14
 3278 0f0e FF92      		push r15
 3279 0f10 0F93      		push r16
 3280 0f12 1F93      		push r17
 3281 0f14 CF93      		push r28
 3282 0f16 DF93      		push r29
 3283               	/* prologue: function */
 3284               	/* frame size = 0 */
 3285               	.LM461:
 3286 0f18 0E94 0000 		call OSInitHookBegin
 3287               	.LBB54:
 3288               	.LBB55:
 3289               	.LM462:
 3290 0f1c 1092 0000 		sts OSTime,__zero_reg__
 3291 0f20 1092 0000 		sts (OSTime)+1,__zero_reg__
 3292 0f24 1092 0000 		sts (OSTime)+2,__zero_reg__
 3293 0f28 1092 0000 		sts (OSTime)+3,__zero_reg__
 3294               	.LM463:
 3295 0f2c 1092 0000 		sts OSIntNesting,__zero_reg__
 3296               	.LM464:
 3297 0f30 1092 0000 		sts OSLockNesting,__zero_reg__
 3298               	.LM465:
 3299 0f34 1092 0000 		sts OSTaskCtr,__zero_reg__
 3300               	.LM466:
 3301 0f38 1092 0000 		sts OSRunning,__zero_reg__
 3302               	.LM467:
 3303 0f3c 1092 0000 		sts OSCtxSwCtr,__zero_reg__
 3304 0f40 1092 0000 		sts (OSCtxSwCtr)+1,__zero_reg__
 3305 0f44 1092 0000 		sts (OSCtxSwCtr)+2,__zero_reg__
 3306 0f48 1092 0000 		sts (OSCtxSwCtr)+3,__zero_reg__
GAS LISTING C:\DOCUME~1\KEUNSO~1\LOCALS~1\Temp/ccWaaqlF.s 			page 59


 3307               	.LM468:
 3308 0f4c 1092 0000 		sts OSIdleCtr,__zero_reg__
 3309 0f50 1092 0000 		sts (OSIdleCtr)+1,__zero_reg__
 3310 0f54 1092 0000 		sts (OSIdleCtr)+2,__zero_reg__
 3311 0f58 1092 0000 		sts (OSIdleCtr)+3,__zero_reg__
 3312               	.LM469:
 3313 0f5c 1092 0000 		sts OSIdleCtrRun,__zero_reg__
 3314 0f60 1092 0000 		sts (OSIdleCtrRun)+1,__zero_reg__
 3315 0f64 1092 0000 		sts (OSIdleCtrRun)+2,__zero_reg__
 3316 0f68 1092 0000 		sts (OSIdleCtrRun)+3,__zero_reg__
 3317               	.LM470:
 3318 0f6c 1092 0000 		sts OSIdleCtrMax,__zero_reg__
 3319 0f70 1092 0000 		sts (OSIdleCtrMax)+1,__zero_reg__
 3320 0f74 1092 0000 		sts (OSIdleCtrMax)+2,__zero_reg__
 3321 0f78 1092 0000 		sts (OSIdleCtrMax)+3,__zero_reg__
 3322               	.LM471:
 3323 0f7c 1092 0000 		sts OSStatRdy,__zero_reg__
 3324               	.LBE55:
 3325               	.LBE54:
 3326               	.LBB56:
 3327               	.LBB57:
 3328               	.LM472:
 3329 0f80 1092 0000 		sts OSRdyGrp,__zero_reg__
 3330               	.LM473:
 3331 0f84 1092 0000 		sts OSRdyTbl,__zero_reg__
 3332 0f88 1092 0000 		sts OSRdyTbl+1,__zero_reg__
 3333               	.LM474:
 3334 0f8c 1092 0000 		sts OSPrioCur,__zero_reg__
 3335               	.LM475:
 3336 0f90 1092 0000 		sts OSPrioHighRdy,__zero_reg__
 3337               	.LM476:
 3338 0f94 1092 0000 		sts (OSTCBHighRdy)+1,__zero_reg__
 3339 0f98 1092 0000 		sts OSTCBHighRdy,__zero_reg__
 3340               	.LM477:
 3341 0f9c 1092 0000 		sts (OSTCBCur)+1,__zero_reg__
 3342 0fa0 1092 0000 		sts OSTCBCur,__zero_reg__
 3343               	.LBE57:
 3344               	.LBE56:
 3345               	.LBB58:
 3346               	.LBB59:
 3347               	.LM478:
 3348 0fa4 A0E0      		ldi r26,lo8(OSTCBTbl)
 3349 0fa6 B0E0      		ldi r27,hi8(OSTCBTbl)
 3350 0fa8 86EF      		ldi r24,lo8(1014)
 3351 0faa 93E0      		ldi r25,hi8(1014)
 3352 0fac CA2F      		mov r28,r26
 3353 0fae DB2F      		mov r29,r27
 3354 0fb0 E82F      		mov r30,r24
 3355 0fb2 F92F      		mov r31,r25
 3356 0fb4 1992      		st Y+,__zero_reg__
 3357 0fb6 3197      		sbiw r30,1
 3358 0fb8 01F4      		brne .-6
 3359               	.LM479:
 3360 0fba 8AE1      		ldi r24,lo8(26)
 3361 0fbc E0E0      		ldi r30,lo8(OSTCBPrioTbl)
 3362 0fbe F0E0      		ldi r31,hi8(OSTCBPrioTbl)
 3363 0fc0 CE2F      		mov r28,r30
GAS LISTING C:\DOCUME~1\KEUNSO~1\LOCALS~1\Temp/ccWaaqlF.s 			page 60


 3364 0fc2 DF2F      		mov r29,r31
 3365 0fc4 1992      		st Y+,__zero_reg__
 3366 0fc6 8A95      	        dec r24
 3367 0fc8 01F4      		brne .-6
 3368               	.LM480:
 3369 0fca 80E0      		ldi r24,lo8(OSTCBTbl+78)
 3370 0fcc 90E0      		ldi r25,hi8(OSTCBTbl+78)
 3371 0fce 9093 0000 		sts (OSTCBTbl+14)+1,r25
 3372 0fd2 8093 0000 		sts OSTCBTbl+14,r24
 3373               	.LM481:
 3374 0fd6 2FE3      		ldi r18,lo8(63)
 3375 0fd8 30E0      		ldi r19,hi8(63)
 3376 0fda 3093 0000 		sts (OSTCBTbl+46)+1,r19
 3377 0fde 2093 0000 		sts OSTCBTbl+46,r18
 3378               	.LM482:
 3379 0fe2 80E0      		ldi r24,lo8(OSTCBTbl+156)
 3380 0fe4 90E0      		ldi r25,hi8(OSTCBTbl+156)
 3381 0fe6 9093 0000 		sts (OSTCBTbl+92)+1,r25
 3382 0fea 8093 0000 		sts OSTCBTbl+92,r24
 3383               	.LM483:
 3384 0fee 3093 0000 		sts (OSTCBTbl+124)+1,r19
 3385 0ff2 2093 0000 		sts OSTCBTbl+124,r18
 3386               	.LM484:
 3387 0ff6 80E0      		ldi r24,lo8(OSTCBTbl+234)
 3388 0ff8 90E0      		ldi r25,hi8(OSTCBTbl+234)
 3389 0ffa 9093 0000 		sts (OSTCBTbl+170)+1,r25
 3390 0ffe 8093 0000 		sts OSTCBTbl+170,r24
 3391               	.LM485:
 3392 1002 3093 0000 		sts (OSTCBTbl+202)+1,r19
 3393 1006 2093 0000 		sts OSTCBTbl+202,r18
 3394               	.LM486:
 3395 100a 80E0      		ldi r24,lo8(OSTCBTbl+312)
 3396 100c 90E0      		ldi r25,hi8(OSTCBTbl+312)
 3397 100e 9093 0000 		sts (OSTCBTbl+248)+1,r25
 3398 1012 8093 0000 		sts OSTCBTbl+248,r24
 3399               	.LM487:
 3400 1016 3093 0000 		sts (OSTCBTbl+280)+1,r19
 3401 101a 2093 0000 		sts OSTCBTbl+280,r18
 3402               	.LM488:
 3403 101e 80E0      		ldi r24,lo8(OSTCBTbl+390)
 3404 1020 90E0      		ldi r25,hi8(OSTCBTbl+390)
 3405 1022 9093 0000 		sts (OSTCBTbl+326)+1,r25
 3406 1026 8093 0000 		sts OSTCBTbl+326,r24
 3407               	.LM489:
 3408 102a 3093 0000 		sts (OSTCBTbl+358)+1,r19
 3409 102e 2093 0000 		sts OSTCBTbl+358,r18
 3410               	.LM490:
 3411 1032 80E0      		ldi r24,lo8(OSTCBTbl+468)
 3412 1034 90E0      		ldi r25,hi8(OSTCBTbl+468)
 3413 1036 9093 0000 		sts (OSTCBTbl+404)+1,r25
 3414 103a 8093 0000 		sts OSTCBTbl+404,r24
 3415               	.LM491:
 3416 103e 3093 0000 		sts (OSTCBTbl+436)+1,r19
 3417 1042 2093 0000 		sts OSTCBTbl+436,r18
 3418               	.LM492:
 3419 1046 80E0      		ldi r24,lo8(OSTCBTbl+546)
 3420 1048 90E0      		ldi r25,hi8(OSTCBTbl+546)
GAS LISTING C:\DOCUME~1\KEUNSO~1\LOCALS~1\Temp/ccWaaqlF.s 			page 61


 3421 104a 9093 0000 		sts (OSTCBTbl+482)+1,r25
 3422 104e 8093 0000 		sts OSTCBTbl+482,r24
 3423               	.LM493:
 3424 1052 3093 0000 		sts (OSTCBTbl+514)+1,r19
 3425 1056 2093 0000 		sts OSTCBTbl+514,r18
 3426               	.LM494:
 3427 105a 80E0      		ldi r24,lo8(OSTCBTbl+624)
 3428 105c 90E0      		ldi r25,hi8(OSTCBTbl+624)
 3429 105e 9093 0000 		sts (OSTCBTbl+560)+1,r25
 3430 1062 8093 0000 		sts OSTCBTbl+560,r24
 3431               	.LM495:
 3432 1066 3093 0000 		sts (OSTCBTbl+592)+1,r19
 3433 106a 2093 0000 		sts OSTCBTbl+592,r18
 3434               	.LM496:
 3435 106e 80E0      		ldi r24,lo8(OSTCBTbl+702)
 3436 1070 90E0      		ldi r25,hi8(OSTCBTbl+702)
 3437 1072 9093 0000 		sts (OSTCBTbl+638)+1,r25
 3438 1076 8093 0000 		sts OSTCBTbl+638,r24
 3439               	.LM497:
 3440 107a 3093 0000 		sts (OSTCBTbl+670)+1,r19
 3441 107e 2093 0000 		sts OSTCBTbl+670,r18
 3442               	.LM498:
 3443 1082 80E0      		ldi r24,lo8(OSTCBTbl+780)
 3444 1084 90E0      		ldi r25,hi8(OSTCBTbl+780)
 3445 1086 9093 0000 		sts (OSTCBTbl+716)+1,r25
 3446 108a 8093 0000 		sts OSTCBTbl+716,r24
 3447               	.LM499:
 3448 108e 3093 0000 		sts (OSTCBTbl+748)+1,r19
 3449 1092 2093 0000 		sts OSTCBTbl+748,r18
 3450               	.LM500:
 3451 1096 80E0      		ldi r24,lo8(OSTCBTbl+858)
 3452 1098 90E0      		ldi r25,hi8(OSTCBTbl+858)
 3453 109a 9093 0000 		sts (OSTCBTbl+794)+1,r25
 3454 109e 8093 0000 		sts OSTCBTbl+794,r24
 3455               	.LM501:
 3456 10a2 3093 0000 		sts (OSTCBTbl+826)+1,r19
 3457 10a6 2093 0000 		sts OSTCBTbl+826,r18
 3458               	.LM502:
 3459 10aa 80E0      		ldi r24,lo8(OSTCBTbl+936)
 3460 10ac 90E0      		ldi r25,hi8(OSTCBTbl+936)
 3461 10ae 9093 0000 		sts (OSTCBTbl+872)+1,r25
 3462 10b2 8093 0000 		sts OSTCBTbl+872,r24
 3463               	.LM503:
 3464 10b6 3093 0000 		sts (OSTCBTbl+904)+1,r19
 3465 10ba 2093 0000 		sts OSTCBTbl+904,r18
 3466               	.LM504:
 3467 10be 1092 0000 		sts (OSTCBTbl+950)+1,__zero_reg__
 3468 10c2 1092 0000 		sts OSTCBTbl+950,__zero_reg__
 3469               	.LM505:
 3470 10c6 3093 0000 		sts (OSTCBTbl+982)+1,r19
 3471 10ca 2093 0000 		sts OSTCBTbl+982,r18
 3472               	.LM506:
 3473 10ce 1092 0000 		sts (OSTCBList)+1,__zero_reg__
 3474 10d2 1092 0000 		sts OSTCBList,__zero_reg__
 3475               	.LM507:
 3476 10d6 B093 0000 		sts (OSTCBFreeList)+1,r27
 3477 10da A093 0000 		sts OSTCBFreeList,r26
GAS LISTING C:\DOCUME~1\KEUNSO~1\LOCALS~1\Temp/ccWaaqlF.s 			page 62


 3478               	.LBE59:
 3479               	.LBE58:
 3480               	.LBB60:
 3481               	.LBB61:
 3482               	.LM508:
 3483 10de E0E0      		ldi r30,lo8(OSEventTbl)
 3484 10e0 F0E0      		ldi r31,hi8(OSEventTbl)
 3485 10e2 88E7      		ldi r24,lo8(120)
 3486 10e4 AE2F      		mov r26,r30
 3487 10e6 BF2F      		mov r27,r31
 3488 10e8 1D92      		st X+,__zero_reg__
 3489 10ea 8A95      	        dec r24
 3490 10ec 01F4      		brne .-6
 3491               	.LM509:
 3492 10ee 1092 0000 		sts OSEventTbl,__zero_reg__
 3493               	.LM510:
 3494 10f2 B896      		adiw r30,40
 3495 10f4 F093 0000 		sts (OSEventTbl+4)+1,r31
 3496 10f8 E093 0000 		sts OSEventTbl+4,r30
 3497 10fc B897      		sbiw r30,40
 3498               	.LM511:
 3499 10fe 3093 0000 		sts (OSEventTbl+8)+1,r19
 3500 1102 2093 0000 		sts OSEventTbl+8,r18
 3501               	.LM512:
 3502 1106 1092 0000 		sts OSEventTbl+40,__zero_reg__
 3503               	.LM513:
 3504 110a 80E0      		ldi r24,lo8(OSEventTbl+80)
 3505 110c 90E0      		ldi r25,hi8(OSEventTbl+80)
 3506 110e 9093 0000 		sts (OSEventTbl+44)+1,r25
 3507 1112 8093 0000 		sts OSEventTbl+44,r24
 3508               	.LM514:
 3509 1116 3093 0000 		sts (OSEventTbl+48)+1,r19
 3510 111a 2093 0000 		sts OSEventTbl+48,r18
 3511               	.LM515:
 3512 111e 1092 0000 		sts OSEventTbl+80,__zero_reg__
 3513               	.LM516:
 3514 1122 1092 0000 		sts (OSEventTbl+84)+1,__zero_reg__
 3515 1126 1092 0000 		sts OSEventTbl+84,__zero_reg__
 3516               	.LM517:
 3517 112a 3093 0000 		sts (OSEventTbl+88)+1,r19
 3518 112e 2093 0000 		sts OSEventTbl+88,r18
 3519               	.LM518:
 3520 1132 F093 0000 		sts (OSEventFreeList)+1,r31
 3521 1136 E093 0000 		sts OSEventFreeList,r30
 3522               	.LBE61:
 3523               	.LBE60:
 3524               	.LBB62:
 3525               	.LBB64:
 3526               	.LBB66:
 3527               	.LBB69:
 3528               	.LM519:
 3529               	/* #APP */
 3530               	 ;  286 "./..\..\..\source\os_task.c" 1
 3531 113a F894      		cli
 3532               	 ;  0 "" 2
 3533               	.LM520:
 3534               	/* #NOAPP */
GAS LISTING C:\DOCUME~1\KEUNSO~1\LOCALS~1\Temp/ccWaaqlF.s 			page 63


 3535 113c 8091 0000 		lds r24,OSTCBPrioTbl+24
 3536 1140 9091 0000 		lds r25,(OSTCBPrioTbl+24)+1
 3537 1144 892B      		or r24,r25
 3538 1146 01F0      		breq .L216
 3539               	.LM521:
 3540               	/* #APP */
 3541               	 ;  310 "./..\..\..\source\os_task.c" 1
 3542 1148 7894      		sei
 3543               	 ;  0 "" 2
 3544               	/* #NOAPP */
 3545               	.L211:
 3546               	.LBE69:
 3547               	.LBE66:
 3548               	.LBE64:
 3549               	.LBE62:
 3550               	.LBB73:
 3551               	.LBB75:
 3552               	.LBB77:
 3553               	.LBB80:
 3554               	.LM522:
 3555               	/* #APP */
 3556               	 ;  286 "./..\..\..\source\os_task.c" 1
 3557 114a F894      		cli
 3558               	 ;  0 "" 2
 3559               	.LM523:
 3560               	/* #NOAPP */
 3561 114c 8091 0000 		lds r24,OSTCBPrioTbl+22
 3562 1150 9091 0000 		lds r25,(OSTCBPrioTbl+22)+1
 3563 1154 892B      		or r24,r25
 3564 1156 01F4      		brne .+2
 3565 1158 00C0      		rjmp .L217
 3566               	.LM524:
 3567               	/* #APP */
 3568               	 ;  310 "./..\..\..\source\os_task.c" 1
 3569 115a 7894      		sei
 3570               	 ;  0 "" 2
 3571               	/* #NOAPP */
 3572               	.L214:
 3573               	.LBE80:
 3574               	.LBE77:
 3575               	.LBE75:
 3576               	.LBE73:
 3577               	.LM525:
 3578 115c 0E94 0000 		call OSInitHookEnd
 3579               	/* epilogue start */
 3580               	.LM526:
 3581 1160 DF91      		pop r29
 3582 1162 CF91      		pop r28
 3583 1164 1F91      		pop r17
 3584 1166 0F91      		pop r16
 3585 1168 FF90      		pop r15
 3586 116a EF90      		pop r14
 3587 116c DF90      		pop r13
 3588 116e CF90      		pop r12
 3589 1170 BF90      		pop r11
 3590 1172 AF90      		pop r10
 3591 1174 0895      		ret
GAS LISTING C:\DOCUME~1\KEUNSO~1\LOCALS~1\Temp/ccWaaqlF.s 			page 64


 3592               	.L216:
 3593               	.LBB84:
 3594               	.LBB63:
 3595               	.LBB65:
 3596               	.LBB68:
 3597               	.LM527:
 3598 1176 81E0      		ldi r24,lo8(1)
 3599 1178 90E0      		ldi r25,hi8(1)
 3600 117a 9093 0000 		sts (OSTCBPrioTbl+24)+1,r25
 3601 117e 8093 0000 		sts OSTCBPrioTbl+24,r24
 3602               	.LM528:
 3603               	/* #APP */
 3604               	 ;  290 "./..\..\..\source\os_task.c" 1
 3605 1182 7894      		sei
 3606               	 ;  0 "" 2
 3607               	.LM529:
 3608               	/* #NOAPP */
 3609 1184 80E0      		ldi r24,lo8(OSTaskIdleStk)
 3610 1186 90E0      		ldi r25,hi8(OSTaskIdleStk)
 3611 1188 40E0      		ldi r20,lo8(512)
 3612 118a 52E0      		ldi r21,hi8(512)
 3613 118c 60E0      		ldi r22,hlo8(512)
 3614 118e 70E0      		ldi r23,hhi8(512)
 3615 1190 23E0      		ldi r18,lo8(3)
 3616 1192 30E0      		ldi r19,hi8(3)
 3617 1194 0E94 0000 		call OS_TaskStkClr
 3618               	.LBE68:
 3619               	.LM530:
 3620 1198 80E0      		ldi r24,lo8(gs(OS_TaskIdle))
 3621 119a 90E0      		ldi r25,hi8(gs(OS_TaskIdle))
 3622 119c 60E0      		ldi r22,lo8(0)
 3623 119e 70E0      		ldi r23,hi8(0)
 3624 11a0 40E0      		ldi r20,lo8(OSTaskIdleStk+511)
 3625 11a2 50E0      		ldi r21,hi8(OSTaskIdleStk+511)
 3626 11a4 23E0      		ldi r18,lo8(3)
 3627 11a6 30E0      		ldi r19,hi8(3)
 3628 11a8 0E94 0000 		call OSTaskStkInit
 3629 11ac 682F      		mov r22,r24
 3630 11ae 792F      		mov r23,r25
 3631               	.LVL290:
 3632               	.LM531:
 3633 11b0 8CE0      		ldi r24,lo8(12)
 3634 11b2 40E0      		ldi r20,lo8(OSTaskIdleStk)
 3635 11b4 50E0      		ldi r21,hi8(OSTaskIdleStk)
 3636 11b6 2FEF      		ldi r18,lo8(-1)
 3637 11b8 3FEF      		ldi r19,hi8(-1)
 3638 11ba E12C      		mov r14,__zero_reg__
 3639 11bc B2E0      		ldi r27,hi8(512)
 3640 11be FB2E      		mov r15,r27
 3641 11c0 012D      		mov r16,__zero_reg__
 3642 11c2 112D      		mov r17,__zero_reg__
 3643 11c4 CC24      		clr r12
 3644 11c6 DD24      		clr r13
 3645 11c8 A3E0      		ldi r26,lo8(3)
 3646 11ca AA2E      		mov r10,r26
 3647 11cc B12C      		mov r11,__zero_reg__
 3648 11ce 0E94 0000 		call OS_TCBInit
GAS LISTING C:\DOCUME~1\KEUNSO~1\LOCALS~1\Temp/ccWaaqlF.s 			page 65


 3649               	.LVL291:
 3650               	.LBB67:
 3651               	.LM532:
 3652 11d2 8823      		tst r24
 3653 11d4 01F0      		breq .+2
 3654 11d6 00C0      		rjmp .L210
 3655               	.LM533:
 3656               	/* #APP */
 3657               	 ;  297 "./..\..\..\source\os_task.c" 1
 3658 11d8 F894      		cli
 3659               	 ;  0 "" 2
 3660               	.LM534:
 3661               	/* #NOAPP */
 3662 11da 8091 0000 		lds r24,OSTaskCtr
 3663 11de 8F5F      		subi r24,lo8(-(1))
 3664 11e0 8093 0000 		sts OSTaskCtr,r24
 3665               	.LM535:
 3666               	/* #APP */
 3667               	 ;  299 "./..\..\..\source\os_task.c" 1
 3668 11e4 7894      		sei
 3669               	 ;  0 "" 2
 3670               	.LM536:
 3671               	/* #NOAPP */
 3672 11e6 8091 0000 		lds r24,OSRunning
 3673 11ea 8130      		cpi r24,lo8(1)
 3674 11ec 01F0      		breq .+2
 3675 11ee 00C0      		rjmp .L211
 3676               	.LM537:
 3677 11f0 0E94 0000 		call OS_Sched
 3678 11f4 00C0      		rjmp .L211
 3679               	.L217:
 3680               	.LBE67:
 3681               	.LBE65:
 3682               	.LBE63:
 3683               	.LBE84:
 3684               	.LBB85:
 3685               	.LBB74:
 3686               	.LBB76:
 3687               	.LBB79:
 3688               	.LM538:
 3689 11f6 81E0      		ldi r24,lo8(1)
 3690 11f8 90E0      		ldi r25,hi8(1)
 3691 11fa 9093 0000 		sts (OSTCBPrioTbl+22)+1,r25
 3692 11fe 8093 0000 		sts OSTCBPrioTbl+22,r24
 3693               	.LM539:
 3694               	/* #APP */
 3695               	 ;  290 "./..\..\..\source\os_task.c" 1
 3696 1202 7894      		sei
 3697               	 ;  0 "" 2
 3698               	.LM540:
 3699               	/* #NOAPP */
 3700 1204 80E0      		ldi r24,lo8(OSTaskStatStk)
 3701 1206 90E0      		ldi r25,hi8(OSTaskStatStk)
 3702 1208 40E0      		ldi r20,lo8(512)
 3703 120a 52E0      		ldi r21,hi8(512)
 3704 120c 60E0      		ldi r22,hlo8(512)
 3705 120e 70E0      		ldi r23,hhi8(512)
GAS LISTING C:\DOCUME~1\KEUNSO~1\LOCALS~1\Temp/ccWaaqlF.s 			page 66


 3706 1210 23E0      		ldi r18,lo8(3)
 3707 1212 30E0      		ldi r19,hi8(3)
 3708 1214 0E94 0000 		call OS_TaskStkClr
 3709               	.LBE79:
 3710               	.LM541:
 3711 1218 80E0      		ldi r24,lo8(gs(OS_TaskStat))
 3712 121a 90E0      		ldi r25,hi8(gs(OS_TaskStat))
 3713 121c 60E0      		ldi r22,lo8(0)
 3714 121e 70E0      		ldi r23,hi8(0)
 3715 1220 40E0      		ldi r20,lo8(OSTaskStatStk+511)
 3716 1222 50E0      		ldi r21,hi8(OSTaskStatStk+511)
 3717 1224 23E0      		ldi r18,lo8(3)
 3718 1226 30E0      		ldi r19,hi8(3)
 3719 1228 0E94 0000 		call OSTaskStkInit
 3720 122c 682F      		mov r22,r24
 3721 122e 792F      		mov r23,r25
 3722               	.LVL292:
 3723               	.LM542:
 3724 1230 8BE0      		ldi r24,lo8(11)
 3725 1232 40E0      		ldi r20,lo8(OSTaskStatStk)
 3726 1234 50E0      		ldi r21,hi8(OSTaskStatStk)
 3727 1236 2EEF      		ldi r18,lo8(-2)
 3728 1238 3FEF      		ldi r19,hi8(-2)
 3729 123a E12C      		mov r14,__zero_reg__
 3730 123c F2E0      		ldi r31,hi8(512)
 3731 123e FF2E      		mov r15,r31
 3732 1240 012D      		mov r16,__zero_reg__
 3733 1242 112D      		mov r17,__zero_reg__
 3734 1244 CC24      		clr r12
 3735 1246 DD24      		clr r13
 3736 1248 E3E0      		ldi r30,lo8(3)
 3737 124a AE2E      		mov r10,r30
 3738 124c B12C      		mov r11,__zero_reg__
 3739 124e 0E94 0000 		call OS_TCBInit
 3740               	.LVL293:
 3741               	.LBB78:
 3742               	.LM543:
 3743 1252 8823      		tst r24
 3744 1254 01F4      		brne .L213
 3745               	.LM544:
 3746               	/* #APP */
 3747               	 ;  297 "./..\..\..\source\os_task.c" 1
 3748 1256 F894      		cli
 3749               	 ;  0 "" 2
 3750               	.LM545:
 3751               	/* #NOAPP */
 3752 1258 8091 0000 		lds r24,OSTaskCtr
 3753 125c 8F5F      		subi r24,lo8(-(1))
 3754 125e 8093 0000 		sts OSTaskCtr,r24
 3755               	.LM546:
 3756               	/* #APP */
 3757               	 ;  299 "./..\..\..\source\os_task.c" 1
 3758 1262 7894      		sei
 3759               	 ;  0 "" 2
 3760               	.LM547:
 3761               	/* #NOAPP */
 3762 1264 8091 0000 		lds r24,OSRunning
GAS LISTING C:\DOCUME~1\KEUNSO~1\LOCALS~1\Temp/ccWaaqlF.s 			page 67


 3763 1268 8130      		cpi r24,lo8(1)
 3764 126a 01F0      		breq .+2
 3765 126c 00C0      		rjmp .L214
 3766               	.LM548:
 3767 126e 0E94 0000 		call OS_Sched
 3768 1272 00C0      		rjmp .L214
 3769               	.L210:
 3770               	.LBE78:
 3771               	.LBE76:
 3772               	.LBE74:
 3773               	.LBE85:
 3774               	.LBB86:
 3775               	.LBB72:
 3776               	.LBB71:
 3777               	.LBB70:
 3778               	.LM549:
 3779               	/* #APP */
 3780               	 ;  304 "./..\..\..\source\os_task.c" 1
 3781 1274 F894      		cli
 3782               	 ;  0 "" 2
 3783               	.LM550:
 3784               	/* #NOAPP */
 3785 1276 1092 0000 		sts (OSTCBPrioTbl+24)+1,__zero_reg__
 3786 127a 1092 0000 		sts OSTCBPrioTbl+24,__zero_reg__
 3787               	.LM551:
 3788               	/* #APP */
 3789               	 ;  306 "./..\..\..\source\os_task.c" 1
 3790 127e 7894      		sei
 3791               	 ;  0 "" 2
 3792               	/* #NOAPP */
 3793 1280 00C0      		rjmp .L211
 3794               	.L213:
 3795               	.LBE70:
 3796               	.LBE71:
 3797               	.LBE72:
 3798               	.LBE86:
 3799               	.LBB87:
 3800               	.LBB83:
 3801               	.LBB82:
 3802               	.LBB81:
 3803               	.LM552:
 3804               	/* #APP */
 3805               	 ;  304 "./..\..\..\source\os_task.c" 1
 3806 1282 F894      		cli
 3807               	 ;  0 "" 2
 3808               	.LM553:
 3809               	/* #NOAPP */
 3810 1284 1092 0000 		sts (OSTCBPrioTbl+22)+1,__zero_reg__
 3811 1288 1092 0000 		sts OSTCBPrioTbl+22,__zero_reg__
 3812               	.LM554:
 3813               	/* #APP */
 3814               	 ;  306 "./..\..\..\source\os_task.c" 1
 3815 128c 7894      		sei
 3816               	 ;  0 "" 2
 3817               	/* #NOAPP */
 3818 128e 00C0      		rjmp .L214
 3819               	.LBE81:
GAS LISTING C:\DOCUME~1\KEUNSO~1\LOCALS~1\Temp/ccWaaqlF.s 			page 68


 3820               	.LBE82:
 3821               	.LBE83:
 3822               	.LBE87:
 3823               	.LFE4:
 3824               		.size	OSInit, .-OSInit
 3825               	.global	OS_TaskStat
 3826               		.type	OS_TaskStat, @function
 3827               	OS_TaskStat:
 3828               	.LFB23:
 3829               	.LM555:
 3830               	.LVL294:
 3831 1290 7F92      		push r7
 3832 1292 8F92      		push r8
 3833 1294 9F92      		push r9
 3834 1296 AF92      		push r10
 3835 1298 BF92      		push r11
 3836 129a CF92      		push r12
 3837 129c DF92      		push r13
 3838 129e EF92      		push r14
 3839 12a0 FF92      		push r15
 3840 12a2 0F93      		push r16
 3841 12a4 1F93      		push r17
 3842 12a6 CF93      		push r28
 3843 12a8 DF93      		push r29
 3844               	/* prologue: function */
 3845               	/* frame size = 0 */
 3846               	.LM556:
 3847 12aa 8091 0000 		lds r24,OSStatRdy
 3848               	.LVL295:
 3849 12ae 8823      		tst r24
 3850 12b0 01F0      		breq .+2
 3851 12b2 00C0      		rjmp .L219
 3852               	.LBB100:
 3853               	.LBB101:
 3854               	.LM557:
 3855 12b4 C4E6      		ldi r28,lo8(100)
 3856 12b6 D0E0      		ldi r29,hi8(100)
 3857               	.L239:
 3858               	.LM558:
 3859               	/* #APP */
 3860               	 ;  44 "./..\..\..\source\os_time.c" 1
 3861 12b8 F894      		cli
 3862               	 ;  0 "" 2
 3863               	.LM559:
 3864               	/* #NOAPP */
 3865 12ba A091 0000 		lds r26,OSTCBCur
 3866 12be B091 0000 		lds r27,(OSTCBCur)+1
 3867               	.LM560:
 3868 12c2 5996      		adiw r26,25
 3869 12c4 EC91      		ld r30,X
 3870 12c6 5997      		sbiw r26,25
 3871 12c8 F0E0      		ldi r31,lo8(0)
 3872 12ca E050      		subi r30,lo8(-(OSRdyTbl))
 3873 12cc F040      		sbci r31,hi8(-(OSRdyTbl))
 3874 12ce 5A96      		adiw r26,26
 3875 12d0 8C91      		ld r24,X
 3876 12d2 5A97      		sbiw r26,26
GAS LISTING C:\DOCUME~1\KEUNSO~1\LOCALS~1\Temp/ccWaaqlF.s 			page 69


 3877 12d4 8095      		com r24
 3878 12d6 9081      		ld r25,Z
 3879 12d8 8923      		and r24,r25
 3880 12da 8083      		st Z,r24
 3881               	.LM561:
 3882 12dc 8823      		tst r24
 3883 12de 01F4      		brne .L220
 3884               	.LM562:
 3885 12e0 5B96      		adiw r26,27
 3886 12e2 9C91      		ld r25,X
 3887 12e4 5B97      		sbiw r26,27
 3888 12e6 9095      		com r25
 3889 12e8 8091 0000 		lds r24,OSRdyGrp
 3890 12ec 8923      		and r24,r25
 3891 12ee 8093 0000 		sts OSRdyGrp,r24
 3892               	.L220:
 3893               	.LM563:
 3894 12f2 5596      		adiw r26,20+1
 3895 12f4 DC93      		st X,r29
 3896 12f6 CE93      		st -X,r28
 3897 12f8 5497      		sbiw r26,20
 3898               	.LM564:
 3899               	/* #APP */
 3900               	 ;  51 "./..\..\..\source\os_time.c" 1
 3901 12fa 7894      		sei
 3902               	 ;  0 "" 2
 3903               	/* #NOAPP */
 3904               	.LBB102:
 3905               	.LBB103:
 3906               	.LM565:
 3907               	/* #APP */
 3908               	 ;  1215 "./..\..\..\source\os_core.c" 1
 3909 12fc F894      		cli
 3910               	 ;  0 "" 2
 3911               	.LM566:
 3912               	/* #NOAPP */
 3913 12fe 8091 0000 		lds r24,OSIntNesting
 3914 1302 8823      		tst r24
 3915 1304 01F0      		breq .+2
 3916 1306 00C0      		rjmp .L221
 3917               	.LM567:
 3918 1308 8091 0000 		lds r24,OSLockNesting
 3919 130c 8823      		tst r24
 3920 130e 01F0      		breq .+2
 3921 1310 00C0      		rjmp .L221
 3922               	.LM568:
 3923 1312 E091 0000 		lds r30,OSRdyGrp
 3924 1316 F0E0      		ldi r31,lo8(0)
 3925 1318 E050      		subi r30,lo8(-(OSUnMapTbl))
 3926 131a F040      		sbci r31,hi8(-(OSUnMapTbl))
 3927 131c 8081      		ld r24,Z
 3928               	.LVL296:
 3929               	.LM569:
 3930 131e E82F      		mov r30,r24
 3931 1320 F0E0      		ldi r31,lo8(0)
 3932               	.LVL297:
 3933 1322 E050      		subi r30,lo8(-(OSRdyTbl))
GAS LISTING C:\DOCUME~1\KEUNSO~1\LOCALS~1\Temp/ccWaaqlF.s 			page 70


 3934 1324 F040      		sbci r31,hi8(-(OSRdyTbl))
 3935               	.LVL298:
 3936 1326 E081      		ld r30,Z
 3937               	.LVL299:
 3938 1328 F0E0      		ldi r31,lo8(0)
 3939               	.LVL300:
 3940 132a E050      		subi r30,lo8(-(OSUnMapTbl))
 3941 132c F040      		sbci r31,hi8(-(OSUnMapTbl))
 3942 132e 982F      		mov r25,r24
 3943               	.LVL301:
 3944 1330 990F      		lsl r25
 3945 1332 990F      		lsl r25
 3946 1334 990F      		lsl r25
 3947 1336 8081      		ld r24,Z
 3948               	.LVL302:
 3949 1338 980F      		add r25,r24
 3950 133a 9093 0000 		sts OSPrioHighRdy,r25
 3951               	.LM570:
 3952 133e 8091 0000 		lds r24,OSPrioCur
 3953 1342 9817      		cp r25,r24
 3954 1344 01F0      		breq .L221
 3955               	.LM571:
 3956 1346 E92F      		mov r30,r25
 3957 1348 F0E0      		ldi r31,lo8(0)
 3958 134a EE0F      		lsl r30
 3959 134c FF1F      		rol r31
 3960 134e E050      		subi r30,lo8(-(OSTCBPrioTbl))
 3961 1350 F040      		sbci r31,hi8(-(OSTCBPrioTbl))
 3962 1352 0190      		ld __tmp_reg__,Z+
 3963 1354 F081      		ld r31,Z
 3964 1356 E02D      		mov r30,__tmp_reg__
 3965 1358 F093 0000 		sts (OSTCBHighRdy)+1,r31
 3966 135c E093 0000 		sts OSTCBHighRdy,r30
 3967               	.LM572:
 3968 1360 848D      		ldd r24,Z+28
 3969 1362 958D      		ldd r25,Z+29
 3970 1364 A68D      		ldd r26,Z+30
 3971 1366 B78D      		ldd r27,Z+31
 3972 1368 0196      		adiw r24,1
 3973 136a A11D      		adc r26,__zero_reg__
 3974 136c B11D      		adc r27,__zero_reg__
 3975 136e 848F      		std Z+28,r24
 3976 1370 958F      		std Z+29,r25
 3977 1372 A68F      		std Z+30,r26
 3978 1374 B78F      		std Z+31,r27
 3979               	.LM573:
 3980 1376 8091 0000 		lds r24,OSCtxSwCtr
 3981 137a 9091 0000 		lds r25,(OSCtxSwCtr)+1
 3982 137e A091 0000 		lds r26,(OSCtxSwCtr)+2
 3983 1382 B091 0000 		lds r27,(OSCtxSwCtr)+3
 3984 1386 0196      		adiw r24,1
 3985 1388 A11D      		adc r26,__zero_reg__
 3986 138a B11D      		adc r27,__zero_reg__
 3987 138c 8093 0000 		sts OSCtxSwCtr,r24
 3988 1390 9093 0000 		sts (OSCtxSwCtr)+1,r25
 3989 1394 A093 0000 		sts (OSCtxSwCtr)+2,r26
 3990 1398 B093 0000 		sts (OSCtxSwCtr)+3,r27
GAS LISTING C:\DOCUME~1\KEUNSO~1\LOCALS~1\Temp/ccWaaqlF.s 			page 71


 3991               	.LM574:
 3992 139c 0E94 0000 		call OSCtxSw
 3993               	.L221:
 3994               	.LM575:
 3995               	/* #APP */
 3996               	 ;  1230 "./..\..\..\source\os_core.c" 1
 3997 13a0 7894      		sei
 3998               	 ;  0 "" 2
 3999               	/* #NOAPP */
 4000               	.LBE103:
 4001               	.LBE102:
 4002               	.LBE101:
 4003               	.LBE100:
 4004               	.LM576:
 4005 13a2 8091 0000 		lds r24,OSStatRdy
 4006 13a6 8823      		tst r24
 4007 13a8 01F4      		brne .+2
 4008 13aa 00C0      		rjmp .L239
 4009               	.L219:
 4010               	.LM577:
 4011 13ac 6091 0000 		lds r22,OSIdleCtrMax
 4012 13b0 7091 0000 		lds r23,(OSIdleCtrMax)+1
 4013 13b4 8091 0000 		lds r24,(OSIdleCtrMax)+2
 4014 13b8 9091 0000 		lds r25,(OSIdleCtrMax)+3
 4015 13bc 24E6      		ldi r18,lo8(100)
 4016 13be 30E0      		ldi r19,hi8(100)
 4017 13c0 40E0      		ldi r20,hlo8(100)
 4018 13c2 50E0      		ldi r21,hhi8(100)
 4019 13c4 0E94 0000 		call __udivmodsi4
 4020 13c8 822F      		mov r24,r18
 4021               	.LVL303:
 4022 13ca 932F      		mov r25,r19
 4023               	.LVL304:
 4024 13cc A42F      		mov r26,r20
 4025               	.LVL305:
 4026 13ce B52F      		mov r27,r21
 4027               	.LVL306:
 4028 13d0 A82E      		mov r10,r24
 4029 13d2 B92E      		mov r11,r25
 4030 13d4 CA2E      		mov r12,r26
 4031 13d6 DB2E      		mov r13,r27
 4032               	.LM578:
 4033 13d8 84E6      		ldi r24,lo8(100)
 4034 13da 782E      		mov r7,r24
 4035               	.LBB104:
 4036               	.LBB105:
 4037               	.LM579:
 4038 13dc 02E3      		ldi r16,lo8(50)
 4039 13de 802E      		mov r8,r16
 4040 13e0 912C      		mov r9,__zero_reg__
 4041               	.LVL307:
 4042               	.L236:
 4043               	.LBE105:
 4044               	.LBE104:
 4045               	.LM580:
 4046               	/* #APP */
 4047               	 ;  1313 "./..\..\..\source\os_core.c" 1
GAS LISTING C:\DOCUME~1\KEUNSO~1\LOCALS~1\Temp/ccWaaqlF.s 			page 72


 4048 13e2 F894      		cli
 4049               	 ;  0 "" 2
 4050               	.LM581:
 4051               	/* #NOAPP */
 4052 13e4 8091 0000 		lds r24,OSIdleCtr
 4053 13e8 9091 0000 		lds r25,(OSIdleCtr)+1
 4054 13ec A091 0000 		lds r26,(OSIdleCtr)+2
 4055 13f0 B091 0000 		lds r27,(OSIdleCtr)+3
 4056 13f4 8093 0000 		sts OSIdleCtrRun,r24
 4057 13f8 9093 0000 		sts (OSIdleCtrRun)+1,r25
 4058 13fc A093 0000 		sts (OSIdleCtrRun)+2,r26
 4059 1400 B093 0000 		sts (OSIdleCtrRun)+3,r27
 4060               	.LM582:
 4061 1404 6091 0000 		lds r22,OSIdleCtr
 4062 1408 7091 0000 		lds r23,(OSIdleCtr)+1
 4063 140c 8091 0000 		lds r24,(OSIdleCtr)+2
 4064 1410 9091 0000 		lds r25,(OSIdleCtr)+3
 4065               	.LVL308:
 4066               	.LM583:
 4067 1414 1092 0000 		sts OSIdleCtr,__zero_reg__
 4068 1418 1092 0000 		sts (OSIdleCtr)+1,__zero_reg__
 4069 141c 1092 0000 		sts (OSIdleCtr)+2,__zero_reg__
 4070 1420 1092 0000 		sts (OSIdleCtr)+3,__zero_reg__
 4071               	.LM584:
 4072               	/* #APP */
 4073               	 ;  1317 "./..\..\..\source\os_core.c" 1
 4074 1424 7894      		sei
 4075               	 ;  0 "" 2
 4076               	.LM585:
 4077               	/* #NOAPP */
 4078 1426 A114      		cp r10,__zero_reg__
 4079 1428 B104      		cpc r11,__zero_reg__
 4080 142a C104      		cpc r12,__zero_reg__
 4081 142c D104      		cpc r13,__zero_reg__
 4082 142e 01F4      		brne .+2
 4083 1430 00C0      		rjmp .L223
 4084               	.LM586:
 4085 1432 5D2D      		mov r21,r13
 4086 1434 4C2D      		mov r20,r12
 4087 1436 3B2D      		mov r19,r11
 4088 1438 2A2D      		mov r18,r10
 4089               	.LVL309:
 4090 143a 0E94 0000 		call __udivmodsi4
 4091               	.LVL310:
 4092 143e 872D      		mov r24,r7
 4093               	.LVL311:
 4094 1440 821B      		sub r24,r18
 4095               	.LM587:
 4096 1442 87FD      		sbrc r24,7
 4097 1444 00C0      		rjmp .L224
 4098               	.LM588:
 4099 1446 8093 0000 		sts OSCPUUsage,r24
 4100               	.LVL312:
 4101               	.L225:
 4102               	.LM589:
 4103 144a 0E94 0000 		call OSTaskStatHook
 4104               	.LVL313:
GAS LISTING C:\DOCUME~1\KEUNSO~1\LOCALS~1\Temp/ccWaaqlF.s 			page 73


 4105 144e 60E0      		ldi r22,lo8(OSTCBPrioTbl)
 4106 1450 70E0      		ldi r23,hi8(OSTCBPrioTbl)
 4107 1452 00C0      		rjmp .L233
 4108               	.LVL314:
 4109               	.L226:
 4110               	.LBB109:
 4111               	.LBB111:
 4112               	.LBB113:
 4113               	.LBB115:
 4114               	.LM590:
 4115 1454 A130      		cpi r26,1
 4116 1456 B105      		cpc r27,__zero_reg__
 4117 1458 01F4      		brne .+2
 4118 145a 00C0      		rjmp .L243
 4119               	.LM591:
 4120 145c 1A96      		adiw r26,10
 4121 145e 8C91      		ld r24,X
 4122 1460 1A97      		sbiw r26,10
 4123 1462 80FD      		sbrc r24,0
 4124 1464 00C0      		rjmp .L229
 4125               	.LM592:
 4126               	/* #APP */
 4127               	 ;  771 "./..\..\..\source\os_task.c" 1
 4128 1466 7894      		sei
 4129               	 ;  0 "" 2
 4130               	/* #NOAPP */
 4131               	.L227:
 4132               	.LBE115:
 4133               	.LBE113:
 4134               	.LM593:
 4135 1468 6E5F      		subi r22,lo8(-(2))
 4136 146a 7F4F      		sbci r23,hi8(-(2))
 4137               	.LM594:
 4138 146c F0E0      		ldi r31,hi8(OSTCBPrioTbl+26)
 4139 146e 6030      		cpi r22,lo8(OSTCBPrioTbl+26)
 4140 1470 7F07      		cpc r23,r31
 4141 1472 01F0      		breq .L244
 4142               	.L233:
 4143               	.LBB118:
 4144               	.LBB116:
 4145               	.LM595:
 4146               	/* #APP */
 4147               	 ;  757 "./..\..\..\source\os_task.c" 1
 4148 1474 F894      		cli
 4149               	 ;  0 "" 2
 4150               	.LM596:
 4151               	/* #NOAPP */
 4152 1476 E62F      		mov r30,r22
 4153 1478 F72F      		mov r31,r23
 4154 147a A081      		ld r26,Z
 4155 147c B181      		ldd r27,Z+1
 4156               	.LM597:
 4157 147e 1097      		sbiw r26,0
 4158 1480 01F4      		brne .L226
 4159               	.LM598:
 4160               	/* #APP */
 4161               	 ;  763 "./..\..\..\source\os_task.c" 1
GAS LISTING C:\DOCUME~1\KEUNSO~1\LOCALS~1\Temp/ccWaaqlF.s 			page 74


 4162 1482 7894      		sei
 4163               	 ;  0 "" 2
 4164               	/* #NOAPP */
 4165               	.LBE116:
 4166               	.LBE118:
 4167               	.LM599:
 4168 1484 6E5F      		subi r22,lo8(-(2))
 4169 1486 7F4F      		sbci r23,hi8(-(2))
 4170               	.LM600:
 4171 1488 F0E0      		ldi r31,hi8(OSTCBPrioTbl+26)
 4172 148a 6030      		cpi r22,lo8(OSTCBPrioTbl+26)
 4173 148c 7F07      		cpc r23,r31
 4174 148e 01F4      		brne .L233
 4175               	.L244:
 4176               	.LBE111:
 4177               	.LBE109:
 4178               	.LBB121:
 4179               	.LBB108:
 4180               	.LM601:
 4181               	/* #APP */
 4182               	 ;  44 "./..\..\..\source\os_time.c" 1
 4183 1490 F894      		cli
 4184               	 ;  0 "" 2
 4185               	.LM602:
 4186               	/* #NOAPP */
 4187 1492 A091 0000 		lds r26,OSTCBCur
 4188 1496 B091 0000 		lds r27,(OSTCBCur)+1
 4189               	.LVL315:
 4190               	.LM603:
 4191 149a 5996      		adiw r26,25
 4192 149c EC91      		ld r30,X
 4193 149e 5997      		sbiw r26,25
 4194 14a0 F0E0      		ldi r31,lo8(0)
 4195 14a2 E050      		subi r30,lo8(-(OSRdyTbl))
 4196 14a4 F040      		sbci r31,hi8(-(OSRdyTbl))
 4197 14a6 5A96      		adiw r26,26
 4198 14a8 8C91      		ld r24,X
 4199 14aa 5A97      		sbiw r26,26
 4200 14ac 8095      		com r24
 4201 14ae 9081      		ld r25,Z
 4202 14b0 8923      		and r24,r25
 4203 14b2 8083      		st Z,r24
 4204               	.LM604:
 4205 14b4 8823      		tst r24
 4206 14b6 01F4      		brne .L234
 4207               	.LM605:
 4208 14b8 5B96      		adiw r26,27
 4209 14ba 9C91      		ld r25,X
 4210 14bc 5B97      		sbiw r26,27
 4211 14be 9095      		com r25
 4212 14c0 8091 0000 		lds r24,OSRdyGrp
 4213 14c4 8923      		and r24,r25
 4214 14c6 8093 0000 		sts OSRdyGrp,r24
 4215               	.L234:
 4216               	.LM606:
 4217 14ca 5596      		adiw r26,20+1
 4218 14cc 9C92      		st X,r9
GAS LISTING C:\DOCUME~1\KEUNSO~1\LOCALS~1\Temp/ccWaaqlF.s 			page 75


 4219 14ce 8E92      		st -X,r8
 4220 14d0 5497      		sbiw r26,20
 4221               	.LM607:
 4222               	/* #APP */
 4223               	 ;  51 "./..\..\..\source\os_time.c" 1
 4224 14d2 7894      		sei
 4225               	 ;  0 "" 2
 4226               	/* #NOAPP */
 4227               	.LBB106:
 4228               	.LBB107:
 4229               	.LM608:
 4230               	/* #APP */
 4231               	 ;  1215 "./..\..\..\source\os_core.c" 1
 4232 14d4 F894      		cli
 4233               	 ;  0 "" 2
 4234               	.LM609:
 4235               	/* #NOAPP */
 4236 14d6 8091 0000 		lds r24,OSIntNesting
 4237 14da 8823      		tst r24
 4238 14dc 01F0      		breq .+2
 4239 14de 00C0      		rjmp .L235
 4240               	.LM610:
 4241 14e0 8091 0000 		lds r24,OSLockNesting
 4242 14e4 8823      		tst r24
 4243 14e6 01F0      		breq .+2
 4244 14e8 00C0      		rjmp .L235
 4245               	.LM611:
 4246 14ea E091 0000 		lds r30,OSRdyGrp
 4247 14ee F0E0      		ldi r31,lo8(0)
 4248 14f0 E050      		subi r30,lo8(-(OSUnMapTbl))
 4249 14f2 F040      		sbci r31,hi8(-(OSUnMapTbl))
 4250 14f4 8081      		ld r24,Z
 4251               	.LVL316:
 4252               	.LM612:
 4253 14f6 E82F      		mov r30,r24
 4254 14f8 F0E0      		ldi r31,lo8(0)
 4255               	.LVL317:
 4256 14fa E050      		subi r30,lo8(-(OSRdyTbl))
 4257 14fc F040      		sbci r31,hi8(-(OSRdyTbl))
 4258               	.LVL318:
 4259 14fe E081      		ld r30,Z
 4260               	.LVL319:
 4261 1500 F0E0      		ldi r31,lo8(0)
 4262               	.LVL320:
 4263 1502 E050      		subi r30,lo8(-(OSUnMapTbl))
 4264 1504 F040      		sbci r31,hi8(-(OSUnMapTbl))
 4265 1506 982F      		mov r25,r24
 4266               	.LVL321:
 4267 1508 990F      		lsl r25
 4268 150a 990F      		lsl r25
 4269 150c 990F      		lsl r25
 4270 150e 8081      		ld r24,Z
 4271               	.LVL322:
 4272 1510 980F      		add r25,r24
 4273 1512 9093 0000 		sts OSPrioHighRdy,r25
 4274               	.LM613:
 4275 1516 8091 0000 		lds r24,OSPrioCur
GAS LISTING C:\DOCUME~1\KEUNSO~1\LOCALS~1\Temp/ccWaaqlF.s 			page 76


 4276 151a 9817      		cp r25,r24
 4277 151c 01F0      		breq .L235
 4278               	.LM614:
 4279 151e E92F      		mov r30,r25
 4280 1520 F0E0      		ldi r31,lo8(0)
 4281 1522 EE0F      		lsl r30
 4282 1524 FF1F      		rol r31
 4283 1526 E050      		subi r30,lo8(-(OSTCBPrioTbl))
 4284 1528 F040      		sbci r31,hi8(-(OSTCBPrioTbl))
 4285 152a 0190      		ld __tmp_reg__,Z+
 4286 152c F081      		ld r31,Z
 4287 152e E02D      		mov r30,__tmp_reg__
 4288 1530 F093 0000 		sts (OSTCBHighRdy)+1,r31
 4289 1534 E093 0000 		sts OSTCBHighRdy,r30
 4290               	.LM615:
 4291 1538 848D      		ldd r24,Z+28
 4292 153a 958D      		ldd r25,Z+29
 4293 153c A68D      		ldd r26,Z+30
 4294 153e B78D      		ldd r27,Z+31
 4295 1540 0196      		adiw r24,1
 4296 1542 A11D      		adc r26,__zero_reg__
 4297 1544 B11D      		adc r27,__zero_reg__
 4298 1546 848F      		std Z+28,r24
 4299 1548 958F      		std Z+29,r25
 4300 154a A68F      		std Z+30,r26
 4301 154c B78F      		std Z+31,r27
 4302               	.LM616:
 4303 154e 8091 0000 		lds r24,OSCtxSwCtr
 4304 1552 9091 0000 		lds r25,(OSCtxSwCtr)+1
 4305 1556 A091 0000 		lds r26,(OSCtxSwCtr)+2
 4306 155a B091 0000 		lds r27,(OSCtxSwCtr)+3
 4307 155e 0196      		adiw r24,1
 4308 1560 A11D      		adc r26,__zero_reg__
 4309 1562 B11D      		adc r27,__zero_reg__
 4310 1564 8093 0000 		sts OSCtxSwCtr,r24
 4311 1568 9093 0000 		sts (OSCtxSwCtr)+1,r25
 4312 156c A093 0000 		sts (OSCtxSwCtr)+2,r26
 4313 1570 B093 0000 		sts (OSCtxSwCtr)+3,r27
 4314               	.LM617:
 4315 1574 0E94 0000 		call OSCtxSw
 4316               	.LVL323:
 4317               	.L235:
 4318               	.LM618:
 4319               	/* #APP */
 4320               	 ;  1230 "./..\..\..\source\os_core.c" 1
 4321 1578 7894      		sei
 4322               	 ;  0 "" 2
 4323               	/* #NOAPP */
 4324 157a 00C0      		rjmp .L236
 4325               	.LVL324:
 4326               	.L243:
 4327               	.LBE107:
 4328               	.LBE106:
 4329               	.LBE108:
 4330               	.LBE121:
 4331               	.LBB122:
 4332               	.LBB110:
GAS LISTING C:\DOCUME~1\KEUNSO~1\LOCALS~1\Temp/ccWaaqlF.s 			page 77


 4333               	.LBB112:
 4334               	.LBB114:
 4335               	.LM619:
 4336               	/* #APP */
 4337               	 ;  767 "./..\..\..\source\os_task.c" 1
 4338 157c 7894      		sei
 4339               	 ;  0 "" 2
 4340               	/* #NOAPP */
 4341 157e 00C0      		rjmp .L227
 4342               	.L229:
 4343               	.LM620:
 4344 1580 1696      		adiw r26,6
 4345 1582 ED90      		ld r14,X+
 4346 1584 FD90      		ld r15,X+
 4347 1586 0D91      		ld r16,X+
 4348 1588 1C91      		ld r17,X
 4349 158a 1997      		sbiw r26,6+3
 4350               	.LM621:
 4351 158c 1496      		adiw r26,4
 4352 158e CD91      		ld r28,X+
 4353 1590 DC91      		ld r29,X
 4354 1592 1597      		sbiw r26,4+1
 4355               	.LM622:
 4356               	/* #APP */
 4357               	 ;  777 "./..\..\..\source\os_task.c" 1
 4358 1594 7894      		sei
 4359               	 ;  0 "" 2
 4360               	.LM623:
 4361               	/* #NOAPP */
 4362 1596 8881      		ld r24,Y
 4363 1598 8823      		tst r24
 4364 159a 01F4      		brne .L245
 4365 159c 20E0      		ldi r18,lo8(0)
 4366 159e 30E0      		ldi r19,hi8(0)
 4367 15a0 40E0      		ldi r20,hlo8(0)
 4368 15a2 50E0      		ldi r21,hhi8(0)
 4369               	.L232:
 4370               	.LM624:
 4371 15a4 2F5F      		subi r18,lo8(-(1))
 4372 15a6 3F4F      		sbci r19,hi8(-(1))
 4373 15a8 4F4F      		sbci r20,hlo8(-(1))
 4374 15aa 5F4F      		sbci r21,hhi8(-(1))
 4375               	.LM625:
 4376 15ac EC2F      		mov r30,r28
 4377 15ae FD2F      		mov r31,r29
 4378 15b0 E20F      		add r30,r18
 4379 15b2 F31F      		adc r31,r19
 4380 15b4 8081      		ld r24,Z
 4381 15b6 8823      		tst r24
 4382 15b8 01F0      		breq .L232
 4383               	.L231:
 4384               	.LBE114:
 4385               	.LBE112:
 4386               	.LM626:
 4387 15ba CE0D      		add r28,r14
 4388 15bc DF1D      		adc r29,r15
 4389 15be 9996      		adiw r26,40+1
GAS LISTING C:\DOCUME~1\KEUNSO~1\LOCALS~1\Temp/ccWaaqlF.s 			page 78


 4390 15c0 DC93      		st X,r29
 4391 15c2 CE93      		st -X,r28
 4392 15c4 9897      		sbiw r26,40
 4393               	.LM627:
 4394 15c6 E21A      		sub r14,r18
 4395 15c8 F30A      		sbc r15,r19
 4396 15ca 040B      		sbc r16,r20
 4397 15cc 150B      		sbc r17,r21
 4398 15ce 9A96      		adiw r26,42
 4399 15d0 ED92      		st X+,r14
 4400 15d2 FD92      		st X+,r15
 4401 15d4 0D93      		st X+,r16
 4402 15d6 1C93      		st X,r17
 4403 15d8 9D97      		sbiw r26,42+3
 4404 15da 00C0      		rjmp .L227
 4405               	.LVL325:
 4406               	.L223:
 4407               	.LBE110:
 4408               	.LBE122:
 4409               	.LM628:
 4410 15dc 1092 0000 		sts OSCPUUsage,__zero_reg__
 4411               	.LM629:
 4412 15e0 6091 0000 		lds r22,OSIdleCtrMax
 4413 15e4 7091 0000 		lds r23,(OSIdleCtrMax)+1
 4414 15e8 8091 0000 		lds r24,(OSIdleCtrMax)+2
 4415 15ec 9091 0000 		lds r25,(OSIdleCtrMax)+3
 4416               	.LVL326:
 4417 15f0 24E6      		ldi r18,lo8(100)
 4418 15f2 30E0      		ldi r19,hi8(100)
 4419 15f4 40E0      		ldi r20,hlo8(100)
 4420 15f6 50E0      		ldi r21,hhi8(100)
 4421               	.LVL327:
 4422 15f8 0E94 0000 		call __udivmodsi4
 4423               	.LVL328:
 4424 15fc 822F      		mov r24,r18
 4425 15fe 932F      		mov r25,r19
 4426 1600 A42F      		mov r26,r20
 4427 1602 B52F      		mov r27,r21
 4428 1604 A82E      		mov r10,r24
 4429 1606 B92E      		mov r11,r25
 4430 1608 CA2E      		mov r12,r26
 4431 160a DB2E      		mov r13,r27
 4432 160c 00C0      		rjmp .L225
 4433               	.LVL329:
 4434               	.L245:
 4435               	.LBB123:
 4436               	.LBB120:
 4437               	.LBB119:
 4438               	.LBB117:
 4439               	.LM630:
 4440 160e 20E0      		ldi r18,lo8(0)
 4441 1610 30E0      		ldi r19,hi8(0)
 4442 1612 40E0      		ldi r20,hlo8(0)
 4443 1614 50E0      		ldi r21,hhi8(0)
 4444 1616 00C0      		rjmp .L231
 4445               	.LVL330:
 4446               	.L224:
GAS LISTING C:\DOCUME~1\KEUNSO~1\LOCALS~1\Temp/ccWaaqlF.s 			page 79


 4447               	.LBE117:
 4448               	.LBE119:
 4449               	.LBE120:
 4450               	.LBE123:
 4451               	.LM631:
 4452 1618 1092 0000 		sts OSCPUUsage,__zero_reg__
 4453 161c 00C0      		rjmp .L225
 4454               	.LFE23:
 4455               		.size	OS_TaskStat, .-OS_TaskStat
 4456               	.global	OSTimeDly
 4457               		.type	OSTimeDly, @function
 4458               	OSTimeDly:
 4459               	.LFB39:
 4460               	.LM632:
 4461               	.LVL331:
 4462               	/* prologue: function */
 4463               	/* frame size = 0 */
 4464 161e 282F      		mov r18,r24
 4465 1620 392F      		mov r19,r25
 4466               	.LM633:
 4467 1622 0097      		sbiw r24,0
 4468 1624 01F4      		brne .+2
 4469 1626 00C0      		rjmp .L250
 4470               	.LM634:
 4471               	/* #APP */
 4472               	 ;  44 "./..\..\..\source\os_time.c" 1
 4473 1628 F894      		cli
 4474               	 ;  0 "" 2
 4475               	.LM635:
 4476               	/* #NOAPP */
 4477 162a A091 0000 		lds r26,OSTCBCur
 4478 162e B091 0000 		lds r27,(OSTCBCur)+1
 4479               	.LM636:
 4480 1632 5996      		adiw r26,25
 4481 1634 EC91      		ld r30,X
 4482 1636 5997      		sbiw r26,25
 4483 1638 F0E0      		ldi r31,lo8(0)
 4484 163a E050      		subi r30,lo8(-(OSRdyTbl))
 4485 163c F040      		sbci r31,hi8(-(OSRdyTbl))
 4486 163e 5A96      		adiw r26,26
 4487 1640 8C91      		ld r24,X
 4488 1642 5A97      		sbiw r26,26
 4489               	.LVL332:
 4490 1644 8095      		com r24
 4491 1646 9081      		ld r25,Z
 4492 1648 8923      		and r24,r25
 4493 164a 8083      		st Z,r24
 4494               	.LM637:
 4495 164c 8823      		tst r24
 4496 164e 01F4      		brne .L248
 4497               	.LM638:
 4498 1650 5B96      		adiw r26,27
 4499 1652 9C91      		ld r25,X
 4500 1654 5B97      		sbiw r26,27
 4501 1656 9095      		com r25
 4502 1658 8091 0000 		lds r24,OSRdyGrp
 4503 165c 8923      		and r24,r25
GAS LISTING C:\DOCUME~1\KEUNSO~1\LOCALS~1\Temp/ccWaaqlF.s 			page 80


 4504 165e 8093 0000 		sts OSRdyGrp,r24
 4505               	.L248:
 4506               	.LM639:
 4507 1662 5596      		adiw r26,20+1
 4508 1664 3C93      		st X,r19
 4509 1666 2E93      		st -X,r18
 4510 1668 5497      		sbiw r26,20
 4511               	.LM640:
 4512               	/* #APP */
 4513               	 ;  51 "./..\..\..\source\os_time.c" 1
 4514 166a 7894      		sei
 4515               	 ;  0 "" 2
 4516               	/* #NOAPP */
 4517               	.LBB126:
 4518               	.LBB127:
 4519               	.LM641:
 4520               	/* #APP */
 4521               	 ;  1215 "./..\..\..\source\os_core.c" 1
 4522 166c F894      		cli
 4523               	 ;  0 "" 2
 4524               	.LM642:
 4525               	/* #NOAPP */
 4526 166e 8091 0000 		lds r24,OSIntNesting
 4527 1672 8823      		tst r24
 4528 1674 01F0      		breq .+2
 4529 1676 00C0      		rjmp .L249
 4530               	.LM643:
 4531 1678 8091 0000 		lds r24,OSLockNesting
 4532 167c 8823      		tst r24
 4533 167e 01F0      		breq .+2
 4534 1680 00C0      		rjmp .L249
 4535               	.LM644:
 4536 1682 E091 0000 		lds r30,OSRdyGrp
 4537 1686 F0E0      		ldi r31,lo8(0)
 4538 1688 E050      		subi r30,lo8(-(OSUnMapTbl))
 4539 168a F040      		sbci r31,hi8(-(OSUnMapTbl))
 4540 168c 8081      		ld r24,Z
 4541               	.LVL333:
 4542               	.LM645:
 4543 168e E82F      		mov r30,r24
 4544 1690 F0E0      		ldi r31,lo8(0)
 4545               	.LVL334:
 4546 1692 E050      		subi r30,lo8(-(OSRdyTbl))
 4547 1694 F040      		sbci r31,hi8(-(OSRdyTbl))
 4548               	.LVL335:
 4549 1696 E081      		ld r30,Z
 4550               	.LVL336:
 4551 1698 F0E0      		ldi r31,lo8(0)
 4552               	.LVL337:
 4553 169a E050      		subi r30,lo8(-(OSUnMapTbl))
 4554 169c F040      		sbci r31,hi8(-(OSUnMapTbl))
 4555 169e 982F      		mov r25,r24
 4556               	.LVL338:
 4557 16a0 990F      		lsl r25
 4558 16a2 990F      		lsl r25
 4559 16a4 990F      		lsl r25
 4560 16a6 8081      		ld r24,Z
GAS LISTING C:\DOCUME~1\KEUNSO~1\LOCALS~1\Temp/ccWaaqlF.s 			page 81


 4561               	.LVL339:
 4562 16a8 980F      		add r25,r24
 4563 16aa 9093 0000 		sts OSPrioHighRdy,r25
 4564               	.LM646:
 4565 16ae 8091 0000 		lds r24,OSPrioCur
 4566 16b2 9817      		cp r25,r24
 4567 16b4 01F0      		breq .L249
 4568               	.LM647:
 4569 16b6 E92F      		mov r30,r25
 4570 16b8 F0E0      		ldi r31,lo8(0)
 4571 16ba EE0F      		lsl r30
 4572 16bc FF1F      		rol r31
 4573               	.LVL340:
 4574 16be E050      		subi r30,lo8(-(OSTCBPrioTbl))
 4575 16c0 F040      		sbci r31,hi8(-(OSTCBPrioTbl))
 4576 16c2 0190      		ld __tmp_reg__,Z+
 4577 16c4 F081      		ld r31,Z
 4578 16c6 E02D      		mov r30,__tmp_reg__
 4579 16c8 F093 0000 		sts (OSTCBHighRdy)+1,r31
 4580 16cc E093 0000 		sts OSTCBHighRdy,r30
 4581               	.LM648:
 4582 16d0 848D      		ldd r24,Z+28
 4583 16d2 958D      		ldd r25,Z+29
 4584 16d4 A68D      		ldd r26,Z+30
 4585 16d6 B78D      		ldd r27,Z+31
 4586 16d8 0196      		adiw r24,1
 4587 16da A11D      		adc r26,__zero_reg__
 4588 16dc B11D      		adc r27,__zero_reg__
 4589 16de 848F      		std Z+28,r24
 4590 16e0 958F      		std Z+29,r25
 4591 16e2 A68F      		std Z+30,r26
 4592 16e4 B78F      		std Z+31,r27
 4593               	.LM649:
 4594 16e6 8091 0000 		lds r24,OSCtxSwCtr
 4595 16ea 9091 0000 		lds r25,(OSCtxSwCtr)+1
 4596 16ee A091 0000 		lds r26,(OSCtxSwCtr)+2
 4597 16f2 B091 0000 		lds r27,(OSCtxSwCtr)+3
 4598 16f6 0196      		adiw r24,1
 4599 16f8 A11D      		adc r26,__zero_reg__
 4600 16fa B11D      		adc r27,__zero_reg__
 4601 16fc 8093 0000 		sts OSCtxSwCtr,r24
 4602 1700 9093 0000 		sts (OSCtxSwCtr)+1,r25
 4603 1704 A093 0000 		sts (OSCtxSwCtr)+2,r26
 4604 1708 B093 0000 		sts (OSCtxSwCtr)+3,r27
 4605               	.LM650:
 4606 170c 0E94 0000 		call OSCtxSw
 4607               	.LVL341:
 4608               	.L249:
 4609               	.LM651:
 4610               	/* #APP */
 4611               	 ;  1230 "./..\..\..\source\os_core.c" 1
 4612 1710 7894      		sei
 4613               	 ;  0 "" 2
 4614               	.LVL342:
 4615               	/* #NOAPP */
 4616               	.L250:
 4617 1712 0895      		ret
GAS LISTING C:\DOCUME~1\KEUNSO~1\LOCALS~1\Temp/ccWaaqlF.s 			page 82


 4618               	.LBE127:
 4619               	.LBE126:
 4620               	.LFE39:
 4621               		.size	OSTimeDly, .-OSTimeDly
 4622               	.global	OSStatInit
 4623               		.type	OSStatInit, @function
 4624               	OSStatInit:
 4625               	.LFB8:
 4626               	.LM652:
 4627               	/* prologue: function */
 4628               	/* frame size = 0 */
 4629               	.LBB136:
 4630               	.LBB137:
 4631               	.LM653:
 4632               	/* #APP */
 4633               	 ;  44 "./..\..\..\source\os_time.c" 1
 4634 1714 F894      		cli
 4635               	 ;  0 "" 2
 4636               	.LM654:
 4637               	/* #NOAPP */
 4638 1716 A091 0000 		lds r26,OSTCBCur
 4639 171a B091 0000 		lds r27,(OSTCBCur)+1
 4640               	.LM655:
 4641 171e 5996      		adiw r26,25
 4642 1720 EC91      		ld r30,X
 4643 1722 5997      		sbiw r26,25
 4644 1724 F0E0      		ldi r31,lo8(0)
 4645 1726 E050      		subi r30,lo8(-(OSRdyTbl))
 4646 1728 F040      		sbci r31,hi8(-(OSRdyTbl))
 4647 172a 5A96      		adiw r26,26
 4648 172c 8C91      		ld r24,X
 4649 172e 5A97      		sbiw r26,26
 4650 1730 8095      		com r24
 4651 1732 9081      		ld r25,Z
 4652 1734 8923      		and r24,r25
 4653 1736 8083      		st Z,r24
 4654               	.LM656:
 4655 1738 8823      		tst r24
 4656 173a 01F4      		brne .L252
 4657               	.LM657:
 4658 173c 5B96      		adiw r26,27
 4659 173e 9C91      		ld r25,X
 4660 1740 5B97      		sbiw r26,27
 4661 1742 9095      		com r25
 4662 1744 8091 0000 		lds r24,OSRdyGrp
 4663 1748 8923      		and r24,r25
 4664 174a 8093 0000 		sts OSRdyGrp,r24
 4665               	.L252:
 4666               	.LM658:
 4667 174e 82E0      		ldi r24,lo8(2)
 4668 1750 90E0      		ldi r25,hi8(2)
 4669 1752 5596      		adiw r26,20+1
 4670 1754 9C93      		st X,r25
 4671 1756 8E93      		st -X,r24
 4672 1758 5497      		sbiw r26,20
 4673               	.LM659:
 4674               	/* #APP */
GAS LISTING C:\DOCUME~1\KEUNSO~1\LOCALS~1\Temp/ccWaaqlF.s 			page 83


 4675               	 ;  51 "./..\..\..\source\os_time.c" 1
 4676 175a 7894      		sei
 4677               	 ;  0 "" 2
 4678               	/* #NOAPP */
 4679               	.LBB138:
 4680               	.LBB139:
 4681               	.LM660:
 4682               	/* #APP */
 4683               	 ;  1215 "./..\..\..\source\os_core.c" 1
 4684 175c F894      		cli
 4685               	 ;  0 "" 2
 4686               	.LM661:
 4687               	/* #NOAPP */
 4688 175e 8091 0000 		lds r24,OSIntNesting
 4689 1762 8823      		tst r24
 4690 1764 01F0      		breq .+2
 4691 1766 00C0      		rjmp .L253
 4692               	.LM662:
 4693 1768 8091 0000 		lds r24,OSLockNesting
 4694 176c 8823      		tst r24
 4695 176e 01F0      		breq .+2
 4696 1770 00C0      		rjmp .L253
 4697               	.LM663:
 4698 1772 E091 0000 		lds r30,OSRdyGrp
 4699 1776 F0E0      		ldi r31,lo8(0)
 4700 1778 E050      		subi r30,lo8(-(OSUnMapTbl))
 4701 177a F040      		sbci r31,hi8(-(OSUnMapTbl))
 4702 177c 8081      		ld r24,Z
 4703               	.LVL343:
 4704               	.LM664:
 4705 177e E82F      		mov r30,r24
 4706 1780 F0E0      		ldi r31,lo8(0)
 4707               	.LVL344:
 4708 1782 E050      		subi r30,lo8(-(OSRdyTbl))
 4709 1784 F040      		sbci r31,hi8(-(OSRdyTbl))
 4710               	.LVL345:
 4711 1786 E081      		ld r30,Z
 4712               	.LVL346:
 4713 1788 F0E0      		ldi r31,lo8(0)
 4714               	.LVL347:
 4715 178a E050      		subi r30,lo8(-(OSUnMapTbl))
 4716 178c F040      		sbci r31,hi8(-(OSUnMapTbl))
 4717 178e 982F      		mov r25,r24
 4718               	.LVL348:
 4719 1790 990F      		lsl r25
 4720 1792 990F      		lsl r25
 4721 1794 990F      		lsl r25
 4722 1796 8081      		ld r24,Z
 4723               	.LVL349:
 4724 1798 980F      		add r25,r24
 4725 179a 9093 0000 		sts OSPrioHighRdy,r25
 4726               	.LM665:
 4727 179e 8091 0000 		lds r24,OSPrioCur
 4728 17a2 9817      		cp r25,r24
 4729 17a4 01F0      		breq .L253
 4730               	.LM666:
 4731 17a6 E92F      		mov r30,r25
GAS LISTING C:\DOCUME~1\KEUNSO~1\LOCALS~1\Temp/ccWaaqlF.s 			page 84


 4732 17a8 F0E0      		ldi r31,lo8(0)
 4733 17aa EE0F      		lsl r30
 4734 17ac FF1F      		rol r31
 4735 17ae E050      		subi r30,lo8(-(OSTCBPrioTbl))
 4736 17b0 F040      		sbci r31,hi8(-(OSTCBPrioTbl))
 4737 17b2 0190      		ld __tmp_reg__,Z+
 4738 17b4 F081      		ld r31,Z
 4739 17b6 E02D      		mov r30,__tmp_reg__
 4740 17b8 F093 0000 		sts (OSTCBHighRdy)+1,r31
 4741 17bc E093 0000 		sts OSTCBHighRdy,r30
 4742               	.LM667:
 4743 17c0 848D      		ldd r24,Z+28
 4744 17c2 958D      		ldd r25,Z+29
 4745 17c4 A68D      		ldd r26,Z+30
 4746 17c6 B78D      		ldd r27,Z+31
 4747 17c8 0196      		adiw r24,1
 4748 17ca A11D      		adc r26,__zero_reg__
 4749 17cc B11D      		adc r27,__zero_reg__
 4750 17ce 848F      		std Z+28,r24
 4751 17d0 958F      		std Z+29,r25
 4752 17d2 A68F      		std Z+30,r26
 4753 17d4 B78F      		std Z+31,r27
 4754               	.LM668:
 4755 17d6 8091 0000 		lds r24,OSCtxSwCtr
 4756 17da 9091 0000 		lds r25,(OSCtxSwCtr)+1
 4757 17de A091 0000 		lds r26,(OSCtxSwCtr)+2
 4758 17e2 B091 0000 		lds r27,(OSCtxSwCtr)+3
 4759 17e6 0196      		adiw r24,1
 4760 17e8 A11D      		adc r26,__zero_reg__
 4761 17ea B11D      		adc r27,__zero_reg__
 4762 17ec 8093 0000 		sts OSCtxSwCtr,r24
 4763 17f0 9093 0000 		sts (OSCtxSwCtr)+1,r25
 4764 17f4 A093 0000 		sts (OSCtxSwCtr)+2,r26
 4765 17f8 B093 0000 		sts (OSCtxSwCtr)+3,r27
 4766               	.LM669:
 4767 17fc 0E94 0000 		call OSCtxSw
 4768 1800 A091 0000 		lds r26,OSTCBCur
 4769 1804 B091 0000 		lds r27,(OSTCBCur)+1
 4770               	.L253:
 4771               	.LM670:
 4772               	/* #APP */
 4773               	 ;  1230 "./..\..\..\source\os_core.c" 1
 4774 1808 7894      		sei
 4775               	 ;  0 "" 2
 4776               	/* #NOAPP */
 4777               	.LBE139:
 4778               	.LBE138:
 4779               	.LBE137:
 4780               	.LBE136:
 4781               	.LM671:
 4782               	/* #APP */
 4783               	 ;  623 "./..\..\..\source\os_core.c" 1
 4784 180a F894      		cli
 4785               	 ;  0 "" 2
 4786               	.LM672:
 4787               	/* #NOAPP */
 4788 180c 1092 0000 		sts OSIdleCtr,__zero_reg__
GAS LISTING C:\DOCUME~1\KEUNSO~1\LOCALS~1\Temp/ccWaaqlF.s 			page 85


 4789 1810 1092 0000 		sts (OSIdleCtr)+1,__zero_reg__
 4790 1814 1092 0000 		sts (OSIdleCtr)+2,__zero_reg__
 4791 1818 1092 0000 		sts (OSIdleCtr)+3,__zero_reg__
 4792               	.LM673:
 4793               	/* #APP */
 4794               	 ;  625 "./..\..\..\source\os_core.c" 1
 4795 181c 7894      		sei
 4796               	 ;  0 "" 2
 4797               	/* #NOAPP */
 4798               	.LBB140:
 4799               	.LBB141:
 4800               	.LM674:
 4801               	/* #APP */
 4802               	 ;  44 "./..\..\..\source\os_time.c" 1
 4803 181e F894      		cli
 4804               	 ;  0 "" 2
 4805               	.LM675:
 4806               	/* #NOAPP */
 4807 1820 5996      		adiw r26,25
 4808 1822 EC91      		ld r30,X
 4809 1824 5997      		sbiw r26,25
 4810 1826 F0E0      		ldi r31,lo8(0)
 4811 1828 E050      		subi r30,lo8(-(OSRdyTbl))
 4812 182a F040      		sbci r31,hi8(-(OSRdyTbl))
 4813 182c 5A96      		adiw r26,26
 4814 182e 8C91      		ld r24,X
 4815 1830 5A97      		sbiw r26,26
 4816 1832 8095      		com r24
 4817 1834 9081      		ld r25,Z
 4818 1836 8923      		and r24,r25
 4819 1838 8083      		st Z,r24
 4820               	.LM676:
 4821 183a 8823      		tst r24
 4822 183c 01F4      		brne .L254
 4823               	.LM677:
 4824 183e 5B96      		adiw r26,27
 4825 1840 9C91      		ld r25,X
 4826 1842 5B97      		sbiw r26,27
 4827 1844 9095      		com r25
 4828 1846 8091 0000 		lds r24,OSRdyGrp
 4829 184a 8923      		and r24,r25
 4830 184c 8093 0000 		sts OSRdyGrp,r24
 4831               	.L254:
 4832               	.LM678:
 4833 1850 82E3      		ldi r24,lo8(50)
 4834 1852 90E0      		ldi r25,hi8(50)
 4835 1854 5596      		adiw r26,20+1
 4836 1856 9C93      		st X,r25
 4837 1858 8E93      		st -X,r24
 4838 185a 5497      		sbiw r26,20
 4839               	.LM679:
 4840               	/* #APP */
 4841               	 ;  51 "./..\..\..\source\os_time.c" 1
 4842 185c 7894      		sei
 4843               	 ;  0 "" 2
 4844               	/* #NOAPP */
 4845               	.LBB142:
GAS LISTING C:\DOCUME~1\KEUNSO~1\LOCALS~1\Temp/ccWaaqlF.s 			page 86


 4846               	.LBB143:
 4847               	.LM680:
 4848               	/* #APP */
 4849               	 ;  1215 "./..\..\..\source\os_core.c" 1
 4850 185e F894      		cli
 4851               	 ;  0 "" 2
 4852               	.LM681:
 4853               	/* #NOAPP */
 4854 1860 8091 0000 		lds r24,OSIntNesting
 4855 1864 8823      		tst r24
 4856 1866 01F0      		breq .+2
 4857 1868 00C0      		rjmp .L255
 4858               	.LM682:
 4859 186a 8091 0000 		lds r24,OSLockNesting
 4860 186e 8823      		tst r24
 4861 1870 01F0      		breq .+2
 4862 1872 00C0      		rjmp .L255
 4863               	.LM683:
 4864 1874 E091 0000 		lds r30,OSRdyGrp
 4865 1878 F0E0      		ldi r31,lo8(0)
 4866 187a E050      		subi r30,lo8(-(OSUnMapTbl))
 4867 187c F040      		sbci r31,hi8(-(OSUnMapTbl))
 4868 187e 8081      		ld r24,Z
 4869               	.LVL350:
 4870               	.LM684:
 4871 1880 E82F      		mov r30,r24
 4872 1882 F0E0      		ldi r31,lo8(0)
 4873               	.LVL351:
 4874 1884 E050      		subi r30,lo8(-(OSRdyTbl))
 4875 1886 F040      		sbci r31,hi8(-(OSRdyTbl))
 4876               	.LVL352:
 4877 1888 E081      		ld r30,Z
 4878               	.LVL353:
 4879 188a F0E0      		ldi r31,lo8(0)
 4880               	.LVL354:
 4881 188c E050      		subi r30,lo8(-(OSUnMapTbl))
 4882 188e F040      		sbci r31,hi8(-(OSUnMapTbl))
 4883 1890 982F      		mov r25,r24
 4884               	.LVL355:
 4885 1892 990F      		lsl r25
 4886 1894 990F      		lsl r25
 4887 1896 990F      		lsl r25
 4888 1898 8081      		ld r24,Z
 4889               	.LVL356:
 4890 189a 980F      		add r25,r24
 4891 189c 9093 0000 		sts OSPrioHighRdy,r25
 4892               	.LM685:
 4893 18a0 8091 0000 		lds r24,OSPrioCur
 4894 18a4 9817      		cp r25,r24
 4895 18a6 01F0      		breq .L255
 4896               	.LM686:
 4897 18a8 E92F      		mov r30,r25
 4898 18aa F0E0      		ldi r31,lo8(0)
 4899 18ac EE0F      		lsl r30
 4900 18ae FF1F      		rol r31
 4901 18b0 E050      		subi r30,lo8(-(OSTCBPrioTbl))
 4902 18b2 F040      		sbci r31,hi8(-(OSTCBPrioTbl))
GAS LISTING C:\DOCUME~1\KEUNSO~1\LOCALS~1\Temp/ccWaaqlF.s 			page 87


 4903 18b4 0190      		ld __tmp_reg__,Z+
 4904 18b6 F081      		ld r31,Z
 4905 18b8 E02D      		mov r30,__tmp_reg__
 4906 18ba F093 0000 		sts (OSTCBHighRdy)+1,r31
 4907 18be E093 0000 		sts OSTCBHighRdy,r30
 4908               	.LM687:
 4909 18c2 848D      		ldd r24,Z+28
 4910 18c4 958D      		ldd r25,Z+29
 4911 18c6 A68D      		ldd r26,Z+30
 4912 18c8 B78D      		ldd r27,Z+31
 4913 18ca 0196      		adiw r24,1
 4914 18cc A11D      		adc r26,__zero_reg__
 4915 18ce B11D      		adc r27,__zero_reg__
 4916 18d0 848F      		std Z+28,r24
 4917 18d2 958F      		std Z+29,r25
 4918 18d4 A68F      		std Z+30,r26
 4919 18d6 B78F      		std Z+31,r27
 4920               	.LM688:
 4921 18d8 8091 0000 		lds r24,OSCtxSwCtr
 4922 18dc 9091 0000 		lds r25,(OSCtxSwCtr)+1
 4923 18e0 A091 0000 		lds r26,(OSCtxSwCtr)+2
 4924 18e4 B091 0000 		lds r27,(OSCtxSwCtr)+3
 4925 18e8 0196      		adiw r24,1
 4926 18ea A11D      		adc r26,__zero_reg__
 4927 18ec B11D      		adc r27,__zero_reg__
 4928 18ee 8093 0000 		sts OSCtxSwCtr,r24
 4929 18f2 9093 0000 		sts (OSCtxSwCtr)+1,r25
 4930 18f6 A093 0000 		sts (OSCtxSwCtr)+2,r26
 4931 18fa B093 0000 		sts (OSCtxSwCtr)+3,r27
 4932               	.LM689:
 4933 18fe 0E94 0000 		call OSCtxSw
 4934               	.L255:
 4935               	.LM690:
 4936               	/* #APP */
 4937               	 ;  1230 "./..\..\..\source\os_core.c" 1
 4938 1902 7894      		sei
 4939               	 ;  0 "" 2
 4940               	/* #NOAPP */
 4941               	.LBE143:
 4942               	.LBE142:
 4943               	.LBE141:
 4944               	.LBE140:
 4945               	.LM691:
 4946               	/* #APP */
 4947               	 ;  627 "./..\..\..\source\os_core.c" 1
 4948 1904 F894      		cli
 4949               	 ;  0 "" 2
 4950               	.LM692:
 4951               	/* #NOAPP */
 4952 1906 8091 0000 		lds r24,OSIdleCtr
 4953 190a 9091 0000 		lds r25,(OSIdleCtr)+1
 4954 190e A091 0000 		lds r26,(OSIdleCtr)+2
 4955 1912 B091 0000 		lds r27,(OSIdleCtr)+3
 4956 1916 8093 0000 		sts OSIdleCtrMax,r24
 4957 191a 9093 0000 		sts (OSIdleCtrMax)+1,r25
 4958 191e A093 0000 		sts (OSIdleCtrMax)+2,r26
 4959 1922 B093 0000 		sts (OSIdleCtrMax)+3,r27
GAS LISTING C:\DOCUME~1\KEUNSO~1\LOCALS~1\Temp/ccWaaqlF.s 			page 88


 4960               	.LM693:
 4961 1926 81E0      		ldi r24,lo8(1)
 4962 1928 8093 0000 		sts OSStatRdy,r24
 4963               	.LM694:
 4964               	/* #APP */
 4965               	 ;  630 "./..\..\..\source\os_core.c" 1
 4966 192c 7894      		sei
 4967               	 ;  0 "" 2
 4968               	/* epilogue start */
 4969               	.LM695:
 4970               	/* #NOAPP */
 4971 192e 0895      		ret
 4972               	.LFE8:
 4973               		.size	OSStatInit, .-OSStatInit
 4974               	.global	OSTimeDlyHMSM
 4975               		.type	OSTimeDlyHMSM, @function
 4976               	OSTimeDlyHMSM:
 4977               	.LFB40:
 4978               	.LM696:
 4979               	.LVL357:
 4980 1930 8F92      		push r8
 4981 1932 9F92      		push r9
 4982 1934 AF92      		push r10
 4983 1936 BF92      		push r11
 4984 1938 CF92      		push r12
 4985 193a DF92      		push r13
 4986 193c EF92      		push r14
 4987 193e FF92      		push r15
 4988 1940 0F93      		push r16
 4989 1942 1F93      		push r17
 4990 1944 CF93      		push r28
 4991 1946 DF93      		push r29
 4992               	/* prologue: function */
 4993               	/* frame size = 0 */
 4994 1948 882E      		mov r8,r24
 4995 194a 162F      		mov r17,r22
 4996 194c 942E      		mov r9,r20
 4997               	.LM697:
 4998 194e 8823      		tst r24
 4999 1950 01F0      		breq .L275
 5000               	.LVL358:
 5001               	.L258:
 5002               	.LM698:
 5003 1952 1C33      		cpi r17,lo8(60)
 5004 1954 00F4      		brsh .L276
 5005               	.L259:
 5006               	.LM699:
 5007 1956 8BE3      		ldi r24,lo8(59)
 5008               	.LVL359:
 5009 1958 8915      		cp r24,r9
 5010 195a 00F0      		brlo .L277
 5011               	.LVL360:
 5012               	.L260:
 5013               	.LM700:
 5014 195c 83E0      		ldi r24,hi8(1000)
 5015 195e 283E      		cpi r18,lo8(1000)
 5016 1960 3807      		cpc r19,r24
GAS LISTING C:\DOCUME~1\KEUNSO~1\LOCALS~1\Temp/ccWaaqlF.s 			page 89


 5017 1962 00F0      		brlo .L262
 5018 1964 83E5      		ldi r24,lo8(83)
 5019               	.LVL361:
 5020               	.L261:
 5021               	/* epilogue start */
 5022               	.LM701:
 5023 1966 DF91      		pop r29
 5024 1968 CF91      		pop r28
 5025               	.LVL362:
 5026 196a 1F91      		pop r17
 5027               	.LVL363:
 5028 196c 0F91      		pop r16
 5029 196e FF90      		pop r15
 5030 1970 EF90      		pop r14
 5031 1972 DF90      		pop r13
 5032 1974 CF90      		pop r12
 5033 1976 BF90      		pop r11
 5034 1978 AF90      		pop r10
 5035 197a 9F90      		pop r9
 5036               	.LVL364:
 5037 197c 8F90      		pop r8
 5038               	.LVL365:
 5039 197e 0895      		ret
 5040               	.LVL366:
 5041               	.L277:
 5042               	.LM702:
 5043 1980 82E5      		ldi r24,lo8(82)
 5044 1982 00C0      		rjmp .L261
 5045               	.LVL367:
 5046               	.L275:
 5047               	.LM703:
 5048 1984 6623      		tst r22
 5049 1986 01F4      		brne .L258
 5050               	.LVL368:
 5051               	.LM704:
 5052 1988 4423      		tst r20
 5053 198a 01F4      		brne .L259
 5054               	.LVL369:
 5055               	.LM705:
 5056 198c 2115      		cp r18,__zero_reg__
 5057 198e 3105      		cpc r19,__zero_reg__
 5058 1990 01F4      		brne .L260
 5059 1992 84E5      		ldi r24,lo8(84)
 5060               	.LVL370:
 5061 1994 00C0      		rjmp .L261
 5062               	.LVL371:
 5063               	.L276:
 5064               	.LM706:
 5065 1996 81E5      		ldi r24,lo8(81)
 5066               	.LVL372:
 5067 1998 00C0      		rjmp .L261
 5068               	.L262:
 5069               	.LM707:
 5070 199a 622F      		mov r22,r18
 5071 199c 732F      		mov r23,r19
 5072 199e 80E0      		ldi r24,lo8(0)
 5073 19a0 90E0      		ldi r25,hi8(0)
GAS LISTING C:\DOCUME~1\KEUNSO~1\LOCALS~1\Temp/ccWaaqlF.s 			page 90


 5074               	.LVL373:
 5075 19a2 22E3      		ldi r18,lo8(50)
 5076 19a4 30E0      		ldi r19,hi8(50)
 5077 19a6 40E0      		ldi r20,hlo8(50)
 5078 19a8 50E0      		ldi r21,hhi8(50)
 5079               	.LVL374:
 5080 19aa 0E94 0000 		call __mulsi3
 5081               	.LVL375:
 5082 19ae 6C50      		subi r22,lo8(-(500))
 5083 19b0 7E4F      		sbci r23,hi8(-(500))
 5084 19b2 8F4F      		sbci r24,hlo8(-(500))
 5085 19b4 9F4F      		sbci r25,hhi8(-(500))
 5086 19b6 28EE      		ldi r18,lo8(1000)
 5087 19b8 33E0      		ldi r19,hi8(1000)
 5088 19ba 40E0      		ldi r20,hlo8(1000)
 5089 19bc 50E0      		ldi r21,hhi8(1000)
 5090 19be 0E94 0000 		call __udivmodsi4
 5091 19c2 A22E      		mov r10,r18
 5092 19c4 B32E      		mov r11,r19
 5093 19c6 C42E      		mov r12,r20
 5094 19c8 D52E      		mov r13,r21
 5095 19ca 612F      		mov r22,r17
 5096 19cc 70E0      		ldi r23,lo8(0)
 5097               	.LVL376:
 5098 19ce 80E0      		ldi r24,lo8(0)
 5099 19d0 90E0      		ldi r25,hi8(0)
 5100               	.LVL377:
 5101 19d2 2CE3      		ldi r18,lo8(60)
 5102 19d4 30E0      		ldi r19,hi8(60)
 5103 19d6 40E0      		ldi r20,hlo8(60)
 5104 19d8 50E0      		ldi r21,hhi8(60)
 5105 19da 0E94 0000 		call __mulsi3
 5106               	.LVL378:
 5107 19de E62E      		mov r14,r22
 5108 19e0 F72E      		mov r15,r23
 5109 19e2 082F      		mov r16,r24
 5110 19e4 192F      		mov r17,r25
 5111 19e6 E90C      		add r14,r9
 5112 19e8 F11C      		adc r15,__zero_reg__
 5113 19ea 011D      		adc r16,__zero_reg__
 5114 19ec 111D      		adc r17,__zero_reg__
 5115 19ee 682D      		mov r22,r8
 5116 19f0 70E0      		ldi r23,lo8(0)
 5117               	.LVL379:
 5118 19f2 80E0      		ldi r24,lo8(0)
 5119 19f4 90E0      		ldi r25,hi8(0)
 5120               	.LVL380:
 5121 19f6 20E1      		ldi r18,lo8(3600)
 5122 19f8 3EE0      		ldi r19,hi8(3600)
 5123 19fa 40E0      		ldi r20,hlo8(3600)
 5124 19fc 50E0      		ldi r21,hhi8(3600)
 5125 19fe 0E94 0000 		call __mulsi3
 5126               	.LVL381:
 5127 1a02 E60E      		add r14,r22
 5128 1a04 F71E      		adc r15,r23
 5129 1a06 081F      		adc r16,r24
 5130 1a08 191F      		adc r17,r25
GAS LISTING C:\DOCUME~1\KEUNSO~1\LOCALS~1\Temp/ccWaaqlF.s 			page 91


 5131 1a0a 912F      		mov r25,r17
 5132 1a0c 802F      		mov r24,r16
 5133 1a0e 7F2D      		mov r23,r15
 5134 1a10 6E2D      		mov r22,r14
 5135 1a12 22E3      		ldi r18,lo8(50)
 5136 1a14 30E0      		ldi r19,hi8(50)
 5137 1a16 40E0      		ldi r20,hlo8(50)
 5138 1a18 50E0      		ldi r21,hhi8(50)
 5139 1a1a 0E94 0000 		call __mulsi3
 5140 1a1e 6A0D      		add r22,r10
 5141 1a20 7B1D      		adc r23,r11
 5142 1a22 8C1D      		adc r24,r12
 5143 1a24 9D1D      		adc r25,r13
 5144               	.LVL382:
 5145               	.LM708:
 5146 1a26 392F      		mov r19,r25
 5147 1a28 282F      		mov r18,r24
 5148 1a2a 4427      		clr r20
 5149 1a2c 5527      		clr r21
 5150 1a2e C22F      		mov r28,r18
 5151 1a30 D32F      		mov r29,r19
 5152               	.LVL383:
 5153               	.LM709:
 5154 1a32 8070      		andi r24,hlo8(65535)
 5155 1a34 9070      		andi r25,hhi8(65535)
 5156               	.LVL384:
 5157 1a36 262F      		mov r18,r22
 5158 1a38 372F      		mov r19,r23
 5159               	.LBB156:
 5160               	.LBB157:
 5161               	.LM710:
 5162 1a3a 672B      		or r22,r23
 5163 1a3c 01F4      		brne .+2
 5164 1a3e 00C0      		rjmp .L263
 5165               	.LM711:
 5166               	/* #APP */
 5167               	 ;  44 "./..\..\..\source\os_time.c" 1
 5168 1a40 F894      		cli
 5169               	 ;  0 "" 2
 5170               	.LM712:
 5171               	/* #NOAPP */
 5172 1a42 A091 0000 		lds r26,OSTCBCur
 5173 1a46 B091 0000 		lds r27,(OSTCBCur)+1
 5174               	.LM713:
 5175 1a4a 5996      		adiw r26,25
 5176 1a4c EC91      		ld r30,X
 5177 1a4e 5997      		sbiw r26,25
 5178 1a50 F0E0      		ldi r31,lo8(0)
 5179 1a52 E050      		subi r30,lo8(-(OSRdyTbl))
 5180 1a54 F040      		sbci r31,hi8(-(OSRdyTbl))
 5181 1a56 5A96      		adiw r26,26
 5182 1a58 8C91      		ld r24,X
 5183 1a5a 5A97      		sbiw r26,26
 5184 1a5c 8095      		com r24
 5185 1a5e 9081      		ld r25,Z
 5186 1a60 8923      		and r24,r25
 5187 1a62 8083      		st Z,r24
GAS LISTING C:\DOCUME~1\KEUNSO~1\LOCALS~1\Temp/ccWaaqlF.s 			page 92


 5188               	.LM714:
 5189 1a64 8823      		tst r24
 5190 1a66 01F4      		brne .L264
 5191               	.LM715:
 5192 1a68 5B96      		adiw r26,27
 5193 1a6a 9C91      		ld r25,X
 5194 1a6c 5B97      		sbiw r26,27
 5195 1a6e 9095      		com r25
 5196 1a70 8091 0000 		lds r24,OSRdyGrp
 5197 1a74 8923      		and r24,r25
 5198 1a76 8093 0000 		sts OSRdyGrp,r24
 5199               	.L264:
 5200               	.LM716:
 5201 1a7a 5596      		adiw r26,20+1
 5202 1a7c 3C93      		st X,r19
 5203 1a7e 2E93      		st -X,r18
 5204 1a80 5497      		sbiw r26,20
 5205               	.LM717:
 5206               	/* #APP */
 5207               	 ;  51 "./..\..\..\source\os_time.c" 1
 5208 1a82 7894      		sei
 5209               	 ;  0 "" 2
 5210               	/* #NOAPP */
 5211               	.LBB158:
 5212               	.LBB159:
 5213               	.LM718:
 5214               	/* #APP */
 5215               	 ;  1215 "./..\..\..\source\os_core.c" 1
 5216 1a84 F894      		cli
 5217               	 ;  0 "" 2
 5218               	.LM719:
 5219               	/* #NOAPP */
 5220 1a86 8091 0000 		lds r24,OSIntNesting
 5221 1a8a 8823      		tst r24
 5222 1a8c 01F0      		breq .+2
 5223 1a8e 00C0      		rjmp .L265
 5224               	.LM720:
 5225 1a90 8091 0000 		lds r24,OSLockNesting
 5226 1a94 8823      		tst r24
 5227 1a96 01F0      		breq .+2
 5228 1a98 00C0      		rjmp .L265
 5229               	.LM721:
 5230 1a9a E091 0000 		lds r30,OSRdyGrp
 5231 1a9e F0E0      		ldi r31,lo8(0)
 5232 1aa0 E050      		subi r30,lo8(-(OSUnMapTbl))
 5233 1aa2 F040      		sbci r31,hi8(-(OSUnMapTbl))
 5234 1aa4 8081      		ld r24,Z
 5235               	.LVL385:
 5236               	.LM722:
 5237 1aa6 E82F      		mov r30,r24
 5238 1aa8 F0E0      		ldi r31,lo8(0)
 5239               	.LVL386:
 5240 1aaa E050      		subi r30,lo8(-(OSRdyTbl))
 5241 1aac F040      		sbci r31,hi8(-(OSRdyTbl))
 5242               	.LVL387:
 5243 1aae E081      		ld r30,Z
 5244               	.LVL388:
GAS LISTING C:\DOCUME~1\KEUNSO~1\LOCALS~1\Temp/ccWaaqlF.s 			page 93


 5245 1ab0 F0E0      		ldi r31,lo8(0)
 5246               	.LVL389:
 5247 1ab2 E050      		subi r30,lo8(-(OSUnMapTbl))
 5248 1ab4 F040      		sbci r31,hi8(-(OSUnMapTbl))
 5249 1ab6 982F      		mov r25,r24
 5250               	.LVL390:
 5251 1ab8 990F      		lsl r25
 5252 1aba 990F      		lsl r25
 5253 1abc 990F      		lsl r25
 5254 1abe 8081      		ld r24,Z
 5255               	.LVL391:
 5256 1ac0 980F      		add r25,r24
 5257 1ac2 9093 0000 		sts OSPrioHighRdy,r25
 5258               	.LM723:
 5259 1ac6 8091 0000 		lds r24,OSPrioCur
 5260 1aca 9817      		cp r25,r24
 5261 1acc 01F0      		breq .L265
 5262               	.LM724:
 5263 1ace E92F      		mov r30,r25
 5264 1ad0 F0E0      		ldi r31,lo8(0)
 5265 1ad2 EE0F      		lsl r30
 5266 1ad4 FF1F      		rol r31
 5267 1ad6 E050      		subi r30,lo8(-(OSTCBPrioTbl))
 5268 1ad8 F040      		sbci r31,hi8(-(OSTCBPrioTbl))
 5269 1ada 0190      		ld __tmp_reg__,Z+
 5270 1adc F081      		ld r31,Z
 5271 1ade E02D      		mov r30,__tmp_reg__
 5272 1ae0 F093 0000 		sts (OSTCBHighRdy)+1,r31
 5273 1ae4 E093 0000 		sts OSTCBHighRdy,r30
 5274               	.LM725:
 5275 1ae8 848D      		ldd r24,Z+28
 5276 1aea 958D      		ldd r25,Z+29
 5277 1aec A68D      		ldd r26,Z+30
 5278 1aee B78D      		ldd r27,Z+31
 5279 1af0 0196      		adiw r24,1
 5280 1af2 A11D      		adc r26,__zero_reg__
 5281 1af4 B11D      		adc r27,__zero_reg__
 5282 1af6 848F      		std Z+28,r24
 5283 1af8 958F      		std Z+29,r25
 5284 1afa A68F      		std Z+30,r26
 5285 1afc B78F      		std Z+31,r27
 5286               	.LM726:
 5287 1afe 8091 0000 		lds r24,OSCtxSwCtr
 5288 1b02 9091 0000 		lds r25,(OSCtxSwCtr)+1
 5289 1b06 A091 0000 		lds r26,(OSCtxSwCtr)+2
 5290 1b0a B091 0000 		lds r27,(OSCtxSwCtr)+3
 5291 1b0e 0196      		adiw r24,1
 5292 1b10 A11D      		adc r26,__zero_reg__
 5293 1b12 B11D      		adc r27,__zero_reg__
 5294 1b14 8093 0000 		sts OSCtxSwCtr,r24
 5295 1b18 9093 0000 		sts (OSCtxSwCtr)+1,r25
 5296 1b1c A093 0000 		sts (OSCtxSwCtr)+2,r26
 5297 1b20 B093 0000 		sts (OSCtxSwCtr)+3,r27
 5298               	.LM727:
 5299 1b24 0E94 0000 		call OSCtxSw
 5300               	.L265:
 5301               	.LM728:
GAS LISTING C:\DOCUME~1\KEUNSO~1\LOCALS~1\Temp/ccWaaqlF.s 			page 94


 5302               	/* #APP */
 5303               	 ;  1230 "./..\..\..\source\os_core.c" 1
 5304 1b28 7894      		sei
 5305               	 ;  0 "" 2
 5306               	/* #NOAPP */
 5307               	.L263:
 5308               	.LBE159:
 5309               	.LBE158:
 5310               	.LBE157:
 5311               	.LBE156:
 5312               	.LM729:
 5313 1b2a 2097      		sbiw r28,0
 5314 1b2c 01F4      		brne .+2
 5315 1b2e 00C0      		rjmp .L266
 5316               	.LBB160:
 5317               	.LBB161:
 5318               	.LM730:
 5319 1b30 00E0      		ldi r16,lo8(-32768)
 5320 1b32 10E8      		ldi r17,hi8(-32768)
 5321               	.L273:
 5322               	.LM731:
 5323               	/* #APP */
 5324               	 ;  44 "./..\..\..\source\os_time.c" 1
 5325 1b34 F894      		cli
 5326               	 ;  0 "" 2
 5327               	.LM732:
 5328               	/* #NOAPP */
 5329 1b36 A091 0000 		lds r26,OSTCBCur
 5330 1b3a B091 0000 		lds r27,(OSTCBCur)+1
 5331               	.LM733:
 5332 1b3e 5996      		adiw r26,25
 5333 1b40 EC91      		ld r30,X
 5334 1b42 5997      		sbiw r26,25
 5335 1b44 F0E0      		ldi r31,lo8(0)
 5336 1b46 E050      		subi r30,lo8(-(OSRdyTbl))
 5337 1b48 F040      		sbci r31,hi8(-(OSRdyTbl))
 5338 1b4a 5A96      		adiw r26,26
 5339 1b4c 8C91      		ld r24,X
 5340 1b4e 5A97      		sbiw r26,26
 5341 1b50 8095      		com r24
 5342 1b52 9081      		ld r25,Z
 5343 1b54 8923      		and r24,r25
 5344 1b56 8083      		st Z,r24
 5345               	.LM734:
 5346 1b58 8823      		tst r24
 5347 1b5a 01F4      		brne .L267
 5348               	.LM735:
 5349 1b5c 5B96      		adiw r26,27
 5350 1b5e 9C91      		ld r25,X
 5351 1b60 5B97      		sbiw r26,27
 5352 1b62 9095      		com r25
 5353 1b64 8091 0000 		lds r24,OSRdyGrp
 5354 1b68 8923      		and r24,r25
 5355 1b6a 8093 0000 		sts OSRdyGrp,r24
 5356               	.L267:
 5357               	.LM736:
 5358 1b6e 5596      		adiw r26,20+1
GAS LISTING C:\DOCUME~1\KEUNSO~1\LOCALS~1\Temp/ccWaaqlF.s 			page 95


 5359 1b70 1C93      		st X,r17
 5360 1b72 0E93      		st -X,r16
 5361 1b74 5497      		sbiw r26,20
 5362               	.LM737:
 5363               	/* #APP */
 5364               	 ;  51 "./..\..\..\source\os_time.c" 1
 5365 1b76 7894      		sei
 5366               	 ;  0 "" 2
 5367               	/* #NOAPP */
 5368               	.LBB162:
 5369               	.LBB163:
 5370               	.LM738:
 5371               	/* #APP */
 5372               	 ;  1215 "./..\..\..\source\os_core.c" 1
 5373 1b78 F894      		cli
 5374               	 ;  0 "" 2
 5375               	.LM739:
 5376               	/* #NOAPP */
 5377 1b7a 8091 0000 		lds r24,OSIntNesting
 5378 1b7e 8823      		tst r24
 5379 1b80 01F0      		breq .+2
 5380 1b82 00C0      		rjmp .L268
 5381               	.LM740:
 5382 1b84 8091 0000 		lds r24,OSLockNesting
 5383 1b88 8823      		tst r24
 5384 1b8a 01F0      		breq .+2
 5385 1b8c 00C0      		rjmp .L268
 5386               	.LM741:
 5387 1b8e E091 0000 		lds r30,OSRdyGrp
 5388 1b92 F0E0      		ldi r31,lo8(0)
 5389 1b94 E050      		subi r30,lo8(-(OSUnMapTbl))
 5390 1b96 F040      		sbci r31,hi8(-(OSUnMapTbl))
 5391 1b98 8081      		ld r24,Z
 5392               	.LVL392:
 5393               	.LM742:
 5394 1b9a E82F      		mov r30,r24
 5395 1b9c F0E0      		ldi r31,lo8(0)
 5396               	.LVL393:
 5397 1b9e E050      		subi r30,lo8(-(OSRdyTbl))
 5398 1ba0 F040      		sbci r31,hi8(-(OSRdyTbl))
 5399               	.LVL394:
 5400 1ba2 E081      		ld r30,Z
 5401               	.LVL395:
 5402 1ba4 F0E0      		ldi r31,lo8(0)
 5403               	.LVL396:
 5404 1ba6 E050      		subi r30,lo8(-(OSUnMapTbl))
 5405 1ba8 F040      		sbci r31,hi8(-(OSUnMapTbl))
 5406 1baa 982F      		mov r25,r24
 5407               	.LVL397:
 5408 1bac 990F      		lsl r25
 5409 1bae 990F      		lsl r25
 5410 1bb0 990F      		lsl r25
 5411 1bb2 8081      		ld r24,Z
 5412               	.LVL398:
 5413 1bb4 980F      		add r25,r24
 5414 1bb6 9093 0000 		sts OSPrioHighRdy,r25
 5415               	.LM743:
GAS LISTING C:\DOCUME~1\KEUNSO~1\LOCALS~1\Temp/ccWaaqlF.s 			page 96


 5416 1bba 8091 0000 		lds r24,OSPrioCur
 5417 1bbe 9817      		cp r25,r24
 5418 1bc0 01F0      		breq .L268
 5419               	.LM744:
 5420 1bc2 E92F      		mov r30,r25
 5421 1bc4 F0E0      		ldi r31,lo8(0)
 5422 1bc6 EE0F      		lsl r30
 5423 1bc8 FF1F      		rol r31
 5424 1bca E050      		subi r30,lo8(-(OSTCBPrioTbl))
 5425 1bcc F040      		sbci r31,hi8(-(OSTCBPrioTbl))
 5426 1bce 0190      		ld __tmp_reg__,Z+
 5427 1bd0 F081      		ld r31,Z
 5428 1bd2 E02D      		mov r30,__tmp_reg__
 5429 1bd4 F093 0000 		sts (OSTCBHighRdy)+1,r31
 5430 1bd8 E093 0000 		sts OSTCBHighRdy,r30
 5431               	.LM745:
 5432 1bdc 848D      		ldd r24,Z+28
 5433 1bde 958D      		ldd r25,Z+29
 5434 1be0 A68D      		ldd r26,Z+30
 5435 1be2 B78D      		ldd r27,Z+31
 5436 1be4 0196      		adiw r24,1
 5437 1be6 A11D      		adc r26,__zero_reg__
 5438 1be8 B11D      		adc r27,__zero_reg__
 5439 1bea 848F      		std Z+28,r24
 5440 1bec 958F      		std Z+29,r25
 5441 1bee A68F      		std Z+30,r26
 5442 1bf0 B78F      		std Z+31,r27
 5443               	.LM746:
 5444 1bf2 8091 0000 		lds r24,OSCtxSwCtr
 5445 1bf6 9091 0000 		lds r25,(OSCtxSwCtr)+1
 5446 1bfa A091 0000 		lds r26,(OSCtxSwCtr)+2
 5447 1bfe B091 0000 		lds r27,(OSCtxSwCtr)+3
 5448 1c02 0196      		adiw r24,1
 5449 1c04 A11D      		adc r26,__zero_reg__
 5450 1c06 B11D      		adc r27,__zero_reg__
 5451 1c08 8093 0000 		sts OSCtxSwCtr,r24
 5452 1c0c 9093 0000 		sts (OSCtxSwCtr)+1,r25
 5453 1c10 A093 0000 		sts (OSCtxSwCtr)+2,r26
 5454 1c14 B093 0000 		sts (OSCtxSwCtr)+3,r27
 5455               	.LM747:
 5456 1c18 0E94 0000 		call OSCtxSw
 5457 1c1c A091 0000 		lds r26,OSTCBCur
 5458 1c20 B091 0000 		lds r27,(OSTCBCur)+1
 5459               	.L268:
 5460               	.LM748:
 5461               	/* #APP */
 5462               	 ;  1230 "./..\..\..\source\os_core.c" 1
 5463 1c24 7894      		sei
 5464               	 ;  0 "" 2
 5465               	/* #NOAPP */
 5466               	.LBE163:
 5467               	.LBE162:
 5468               	.LBE161:
 5469               	.LBE160:
 5470               	.LBB164:
 5471               	.LBB165:
 5472               	.LM749:
GAS LISTING C:\DOCUME~1\KEUNSO~1\LOCALS~1\Temp/ccWaaqlF.s 			page 97


 5473               	/* #APP */
 5474               	 ;  44 "./..\..\..\source\os_time.c" 1
 5475 1c26 F894      		cli
 5476               	 ;  0 "" 2
 5477               	.LM750:
 5478               	/* #NOAPP */
 5479 1c28 5996      		adiw r26,25
 5480 1c2a EC91      		ld r30,X
 5481 1c2c 5997      		sbiw r26,25
 5482 1c2e F0E0      		ldi r31,lo8(0)
 5483 1c30 E050      		subi r30,lo8(-(OSRdyTbl))
 5484 1c32 F040      		sbci r31,hi8(-(OSRdyTbl))
 5485 1c34 5A96      		adiw r26,26
 5486 1c36 8C91      		ld r24,X
 5487 1c38 5A97      		sbiw r26,26
 5488 1c3a 8095      		com r24
 5489 1c3c 9081      		ld r25,Z
 5490 1c3e 8923      		and r24,r25
 5491 1c40 8083      		st Z,r24
 5492               	.LM751:
 5493 1c42 8823      		tst r24
 5494 1c44 01F4      		brne .L269
 5495               	.LM752:
 5496 1c46 5B96      		adiw r26,27
 5497 1c48 9C91      		ld r25,X
 5498 1c4a 5B97      		sbiw r26,27
 5499 1c4c 9095      		com r25
 5500 1c4e 8091 0000 		lds r24,OSRdyGrp
 5501 1c52 8923      		and r24,r25
 5502 1c54 8093 0000 		sts OSRdyGrp,r24
 5503               	.L269:
 5504               	.LM753:
 5505 1c58 5596      		adiw r26,20+1
 5506 1c5a 1C93      		st X,r17
 5507 1c5c 0E93      		st -X,r16
 5508 1c5e 5497      		sbiw r26,20
 5509               	.LM754:
 5510               	/* #APP */
 5511               	 ;  51 "./..\..\..\source\os_time.c" 1
 5512 1c60 7894      		sei
 5513               	 ;  0 "" 2
 5514               	/* #NOAPP */
 5515               	.LBB166:
 5516               	.LBB167:
 5517               	.LM755:
 5518               	/* #APP */
 5519               	 ;  1215 "./..\..\..\source\os_core.c" 1
 5520 1c62 F894      		cli
 5521               	 ;  0 "" 2
 5522               	.LM756:
 5523               	/* #NOAPP */
 5524 1c64 8091 0000 		lds r24,OSIntNesting
 5525 1c68 8823      		tst r24
 5526 1c6a 01F0      		breq .+2
 5527 1c6c 00C0      		rjmp .L270
 5528               	.LM757:
 5529 1c6e 8091 0000 		lds r24,OSLockNesting
GAS LISTING C:\DOCUME~1\KEUNSO~1\LOCALS~1\Temp/ccWaaqlF.s 			page 98


 5530 1c72 8823      		tst r24
 5531 1c74 01F0      		breq .+2
 5532 1c76 00C0      		rjmp .L270
 5533               	.LM758:
 5534 1c78 E091 0000 		lds r30,OSRdyGrp
 5535 1c7c F0E0      		ldi r31,lo8(0)
 5536 1c7e E050      		subi r30,lo8(-(OSUnMapTbl))
 5537 1c80 F040      		sbci r31,hi8(-(OSUnMapTbl))
 5538 1c82 8081      		ld r24,Z
 5539               	.LVL399:
 5540               	.LM759:
 5541 1c84 E82F      		mov r30,r24
 5542 1c86 F0E0      		ldi r31,lo8(0)
 5543               	.LVL400:
 5544 1c88 E050      		subi r30,lo8(-(OSRdyTbl))
 5545 1c8a F040      		sbci r31,hi8(-(OSRdyTbl))
 5546               	.LVL401:
 5547 1c8c E081      		ld r30,Z
 5548               	.LVL402:
 5549 1c8e F0E0      		ldi r31,lo8(0)
 5550               	.LVL403:
 5551 1c90 E050      		subi r30,lo8(-(OSUnMapTbl))
 5552 1c92 F040      		sbci r31,hi8(-(OSUnMapTbl))
 5553 1c94 982F      		mov r25,r24
 5554               	.LVL404:
 5555 1c96 990F      		lsl r25
 5556 1c98 990F      		lsl r25
 5557 1c9a 990F      		lsl r25
 5558 1c9c 8081      		ld r24,Z
 5559               	.LVL405:
 5560 1c9e 980F      		add r25,r24
 5561 1ca0 9093 0000 		sts OSPrioHighRdy,r25
 5562               	.LM760:
 5563 1ca4 8091 0000 		lds r24,OSPrioCur
 5564 1ca8 9817      		cp r25,r24
 5565 1caa 01F0      		breq .L270
 5566               	.LM761:
 5567 1cac E92F      		mov r30,r25
 5568 1cae F0E0      		ldi r31,lo8(0)
 5569 1cb0 EE0F      		lsl r30
 5570 1cb2 FF1F      		rol r31
 5571 1cb4 E050      		subi r30,lo8(-(OSTCBPrioTbl))
 5572 1cb6 F040      		sbci r31,hi8(-(OSTCBPrioTbl))
 5573 1cb8 0190      		ld __tmp_reg__,Z+
 5574 1cba F081      		ld r31,Z
 5575 1cbc E02D      		mov r30,__tmp_reg__
 5576 1cbe F093 0000 		sts (OSTCBHighRdy)+1,r31
 5577 1cc2 E093 0000 		sts OSTCBHighRdy,r30
 5578               	.LM762:
 5579 1cc6 848D      		ldd r24,Z+28
 5580 1cc8 958D      		ldd r25,Z+29
 5581 1cca A68D      		ldd r26,Z+30
 5582 1ccc B78D      		ldd r27,Z+31
 5583 1cce 0196      		adiw r24,1
 5584 1cd0 A11D      		adc r26,__zero_reg__
 5585 1cd2 B11D      		adc r27,__zero_reg__
 5586 1cd4 848F      		std Z+28,r24
GAS LISTING C:\DOCUME~1\KEUNSO~1\LOCALS~1\Temp/ccWaaqlF.s 			page 99


 5587 1cd6 958F      		std Z+29,r25
 5588 1cd8 A68F      		std Z+30,r26
 5589 1cda B78F      		std Z+31,r27
 5590               	.LM763:
 5591 1cdc 8091 0000 		lds r24,OSCtxSwCtr
 5592 1ce0 9091 0000 		lds r25,(OSCtxSwCtr)+1
 5593 1ce4 A091 0000 		lds r26,(OSCtxSwCtr)+2
 5594 1ce8 B091 0000 		lds r27,(OSCtxSwCtr)+3
 5595 1cec 0196      		adiw r24,1
 5596 1cee A11D      		adc r26,__zero_reg__
 5597 1cf0 B11D      		adc r27,__zero_reg__
 5598 1cf2 8093 0000 		sts OSCtxSwCtr,r24
 5599 1cf6 9093 0000 		sts (OSCtxSwCtr)+1,r25
 5600 1cfa A093 0000 		sts (OSCtxSwCtr)+2,r26
 5601 1cfe B093 0000 		sts (OSCtxSwCtr)+3,r27
 5602               	.LM764:
 5603 1d02 0E94 0000 		call OSCtxSw
 5604               	.L270:
 5605               	.LM765:
 5606               	/* #APP */
 5607               	 ;  1230 "./..\..\..\source\os_core.c" 1
 5608 1d06 7894      		sei
 5609               	 ;  0 "" 2
 5610               	/* #NOAPP */
 5611               	.LBE167:
 5612               	.LBE166:
 5613               	.LBE165:
 5614               	.LBE164:
 5615               	.LM766:
 5616 1d08 2197      		sbiw r28,1
 5617               	.LM767:
 5618 1d0a 01F0      		breq .+2
 5619 1d0c 00C0      		rjmp .L273
 5620               	.L266:
 5621 1d0e 80E0      		ldi r24,lo8(0)
 5622 1d10 00C0      		rjmp .L261
 5623               	.LFE40:
 5624               		.size	OSTimeDlyHMSM, .-OSTimeDlyHMSM
 5625               	.global	OSMapTbl
 5626               		.data
 5627               		.type	OSMapTbl, @object
 5628               		.size	OSMapTbl, 8
 5629               	OSMapTbl:
 5630 0000 01        		.byte	1
 5631 0001 02        		.byte	2
 5632 0002 04        		.byte	4
 5633 0003 08        		.byte	8
 5634 0004 10        		.byte	16
 5635 0005 20        		.byte	32
 5636 0006 40        		.byte	64
 5637 0007 80        		.byte	-128
 5638               	.global	OSUnMapTbl
 5639               		.type	OSUnMapTbl, @object
 5640               		.size	OSUnMapTbl, 256
 5641               	OSUnMapTbl:
 5642 0008 00        		.byte	0
 5643 0009 00        		.byte	0
GAS LISTING C:\DOCUME~1\KEUNSO~1\LOCALS~1\Temp/ccWaaqlF.s 			page 100


 5644 000a 01        		.byte	1
 5645 000b 00        		.byte	0
 5646 000c 02        		.byte	2
 5647 000d 00        		.byte	0
 5648 000e 01        		.byte	1
 5649 000f 00        		.byte	0
 5650 0010 03        		.byte	3
 5651 0011 00        		.byte	0
 5652 0012 01        		.byte	1
 5653 0013 00        		.byte	0
 5654 0014 02        		.byte	2
 5655 0015 00        		.byte	0
 5656 0016 01        		.byte	1
 5657 0017 00        		.byte	0
 5658 0018 04        		.byte	4
 5659 0019 00        		.byte	0
 5660 001a 01        		.byte	1
 5661 001b 00        		.byte	0
 5662 001c 02        		.byte	2
 5663 001d 00        		.byte	0
 5664 001e 01        		.byte	1
 5665 001f 00        		.byte	0
 5666 0020 03        		.byte	3
 5667 0021 00        		.byte	0
 5668 0022 01        		.byte	1
 5669 0023 00        		.byte	0
 5670 0024 02        		.byte	2
 5671 0025 00        		.byte	0
 5672 0026 01        		.byte	1
 5673 0027 00        		.byte	0
 5674 0028 05        		.byte	5
 5675 0029 00        		.byte	0
 5676 002a 01        		.byte	1
 5677 002b 00        		.byte	0
 5678 002c 02        		.byte	2
 5679 002d 00        		.byte	0
 5680 002e 01        		.byte	1
 5681 002f 00        		.byte	0
 5682 0030 03        		.byte	3
 5683 0031 00        		.byte	0
 5684 0032 01        		.byte	1
 5685 0033 00        		.byte	0
 5686 0034 02        		.byte	2
 5687 0035 00        		.byte	0
 5688 0036 01        		.byte	1
 5689 0037 00        		.byte	0
 5690 0038 04        		.byte	4
 5691 0039 00        		.byte	0
 5692 003a 01        		.byte	1
 5693 003b 00        		.byte	0
 5694 003c 02        		.byte	2
 5695 003d 00        		.byte	0
 5696 003e 01        		.byte	1
 5697 003f 00        		.byte	0
 5698 0040 03        		.byte	3
 5699 0041 00        		.byte	0
 5700 0042 01        		.byte	1
GAS LISTING C:\DOCUME~1\KEUNSO~1\LOCALS~1\Temp/ccWaaqlF.s 			page 101


 5701 0043 00        		.byte	0
 5702 0044 02        		.byte	2
 5703 0045 00        		.byte	0
 5704 0046 01        		.byte	1
 5705 0047 00        		.byte	0
 5706 0048 06        		.byte	6
 5707 0049 00        		.byte	0
 5708 004a 01        		.byte	1
 5709 004b 00        		.byte	0
 5710 004c 02        		.byte	2
 5711 004d 00        		.byte	0
 5712 004e 01        		.byte	1
 5713 004f 00        		.byte	0
 5714 0050 03        		.byte	3
 5715 0051 00        		.byte	0
 5716 0052 01        		.byte	1
 5717 0053 00        		.byte	0
 5718 0054 02        		.byte	2
 5719 0055 00        		.byte	0
 5720 0056 01        		.byte	1
 5721 0057 00        		.byte	0
 5722 0058 04        		.byte	4
 5723 0059 00        		.byte	0
 5724 005a 01        		.byte	1
 5725 005b 00        		.byte	0
 5726 005c 02        		.byte	2
 5727 005d 00        		.byte	0
 5728 005e 01        		.byte	1
 5729 005f 00        		.byte	0
 5730 0060 03        		.byte	3
 5731 0061 00        		.byte	0
 5732 0062 01        		.byte	1
 5733 0063 00        		.byte	0
 5734 0064 02        		.byte	2
 5735 0065 00        		.byte	0
 5736 0066 01        		.byte	1
 5737 0067 00        		.byte	0
 5738 0068 05        		.byte	5
 5739 0069 00        		.byte	0
 5740 006a 01        		.byte	1
 5741 006b 00        		.byte	0
 5742 006c 02        		.byte	2
 5743 006d 00        		.byte	0
 5744 006e 01        		.byte	1
 5745 006f 00        		.byte	0
 5746 0070 03        		.byte	3
 5747 0071 00        		.byte	0
 5748 0072 01        		.byte	1
 5749 0073 00        		.byte	0
 5750 0074 02        		.byte	2
 5751 0075 00        		.byte	0
 5752 0076 01        		.byte	1
 5753 0077 00        		.byte	0
 5754 0078 04        		.byte	4
 5755 0079 00        		.byte	0
 5756 007a 01        		.byte	1
 5757 007b 00        		.byte	0
GAS LISTING C:\DOCUME~1\KEUNSO~1\LOCALS~1\Temp/ccWaaqlF.s 			page 102


 5758 007c 02        		.byte	2
 5759 007d 00        		.byte	0
 5760 007e 01        		.byte	1
 5761 007f 00        		.byte	0
 5762 0080 03        		.byte	3
 5763 0081 00        		.byte	0
 5764 0082 01        		.byte	1
 5765 0083 00        		.byte	0
 5766 0084 02        		.byte	2
 5767 0085 00        		.byte	0
 5768 0086 01        		.byte	1
 5769 0087 00        		.byte	0
 5770 0088 07        		.byte	7
 5771 0089 00        		.byte	0
 5772 008a 01        		.byte	1
 5773 008b 00        		.byte	0
 5774 008c 02        		.byte	2
 5775 008d 00        		.byte	0
 5776 008e 01        		.byte	1
 5777 008f 00        		.byte	0
 5778 0090 03        		.byte	3
 5779 0091 00        		.byte	0
 5780 0092 01        		.byte	1
 5781 0093 00        		.byte	0
 5782 0094 02        		.byte	2
 5783 0095 00        		.byte	0
 5784 0096 01        		.byte	1
 5785 0097 00        		.byte	0
 5786 0098 04        		.byte	4
 5787 0099 00        		.byte	0
 5788 009a 01        		.byte	1
 5789 009b 00        		.byte	0
 5790 009c 02        		.byte	2
 5791 009d 00        		.byte	0
 5792 009e 01        		.byte	1
 5793 009f 00        		.byte	0
 5794 00a0 03        		.byte	3
 5795 00a1 00        		.byte	0
 5796 00a2 01        		.byte	1
 5797 00a3 00        		.byte	0
 5798 00a4 02        		.byte	2
 5799 00a5 00        		.byte	0
 5800 00a6 01        		.byte	1
 5801 00a7 00        		.byte	0
 5802 00a8 05        		.byte	5
 5803 00a9 00        		.byte	0
 5804 00aa 01        		.byte	1
 5805 00ab 00        		.byte	0
 5806 00ac 02        		.byte	2
 5807 00ad 00        		.byte	0
 5808 00ae 01        		.byte	1
 5809 00af 00        		.byte	0
 5810 00b0 03        		.byte	3
 5811 00b1 00        		.byte	0
 5812 00b2 01        		.byte	1
 5813 00b3 00        		.byte	0
 5814 00b4 02        		.byte	2
GAS LISTING C:\DOCUME~1\KEUNSO~1\LOCALS~1\Temp/ccWaaqlF.s 			page 103


 5815 00b5 00        		.byte	0
 5816 00b6 01        		.byte	1
 5817 00b7 00        		.byte	0
 5818 00b8 04        		.byte	4
 5819 00b9 00        		.byte	0
 5820 00ba 01        		.byte	1
 5821 00bb 00        		.byte	0
 5822 00bc 02        		.byte	2
 5823 00bd 00        		.byte	0
 5824 00be 01        		.byte	1
 5825 00bf 00        		.byte	0
 5826 00c0 03        		.byte	3
 5827 00c1 00        		.byte	0
 5828 00c2 01        		.byte	1
 5829 00c3 00        		.byte	0
 5830 00c4 02        		.byte	2
 5831 00c5 00        		.byte	0
 5832 00c6 01        		.byte	1
 5833 00c7 00        		.byte	0
 5834 00c8 06        		.byte	6
 5835 00c9 00        		.byte	0
 5836 00ca 01        		.byte	1
 5837 00cb 00        		.byte	0
 5838 00cc 02        		.byte	2
 5839 00cd 00        		.byte	0
 5840 00ce 01        		.byte	1
 5841 00cf 00        		.byte	0
 5842 00d0 03        		.byte	3
 5843 00d1 00        		.byte	0
 5844 00d2 01        		.byte	1
 5845 00d3 00        		.byte	0
 5846 00d4 02        		.byte	2
 5847 00d5 00        		.byte	0
 5848 00d6 01        		.byte	1
 5849 00d7 00        		.byte	0
 5850 00d8 04        		.byte	4
 5851 00d9 00        		.byte	0
 5852 00da 01        		.byte	1
 5853 00db 00        		.byte	0
 5854 00dc 02        		.byte	2
 5855 00dd 00        		.byte	0
 5856 00de 01        		.byte	1
 5857 00df 00        		.byte	0
 5858 00e0 03        		.byte	3
 5859 00e1 00        		.byte	0
 5860 00e2 01        		.byte	1
 5861 00e3 00        		.byte	0
 5862 00e4 02        		.byte	2
 5863 00e5 00        		.byte	0
 5864 00e6 01        		.byte	1
 5865 00e7 00        		.byte	0
 5866 00e8 05        		.byte	5
 5867 00e9 00        		.byte	0
 5868 00ea 01        		.byte	1
 5869 00eb 00        		.byte	0
 5870 00ec 02        		.byte	2
 5871 00ed 00        		.byte	0
GAS LISTING C:\DOCUME~1\KEUNSO~1\LOCALS~1\Temp/ccWaaqlF.s 			page 104


 5872 00ee 01        		.byte	1
 5873 00ef 00        		.byte	0
 5874 00f0 03        		.byte	3
 5875 00f1 00        		.byte	0
 5876 00f2 01        		.byte	1
 5877 00f3 00        		.byte	0
 5878 00f4 02        		.byte	2
 5879 00f5 00        		.byte	0
 5880 00f6 01        		.byte	1
 5881 00f7 00        		.byte	0
 5882 00f8 04        		.byte	4
 5883 00f9 00        		.byte	0
 5884 00fa 01        		.byte	1
 5885 00fb 00        		.byte	0
 5886 00fc 02        		.byte	2
 5887 00fd 00        		.byte	0
 5888 00fe 01        		.byte	1
 5889 00ff 00        		.byte	0
 5890 0100 03        		.byte	3
 5891 0101 00        		.byte	0
 5892 0102 01        		.byte	1
 5893 0103 00        		.byte	0
 5894 0104 02        		.byte	2
 5895 0105 00        		.byte	0
 5896 0106 01        		.byte	1
 5897 0107 00        		.byte	0
 5898               	.global	OSDebugEn
 5899               		.type	OSDebugEn, @object
 5900               		.size	OSDebugEn, 2
 5901               	OSDebugEn:
 5902 0108 0000      		.skip 2,0
 5903               		.comm OSCtxSwCtr,4,1
 5904               		.comm OSEventFreeList,2,1
 5905               		.comm OSEventTbl,120,1
 5906               		.comm OSCPUUsage,1,1
 5907               		.comm OSIdleCtrMax,4,1
 5908               		.comm OSIdleCtrRun,4,1
 5909               		.comm OSStatRdy,1,1
 5910               		.comm OSTaskStatStk,512,1
 5911               		.comm OSIntNesting,1,1
 5912               		.comm OSIntExitY,1,1
 5913               		.comm OSLockNesting,1,1
 5914               		.comm OSPrioCur,1,1
 5915               		.comm OSPrioHighRdy,1,1
 5916               		.comm OSRdyGrp,1,1
 5917               		.comm OSRdyTbl,2,1
 5918               		.comm OSRunning,1,1
 5919               		.comm OSTaskCtr,1,1
 5920               		.comm OSIdleCtr,4,1
 5921               		.comm OSTaskIdleStk,512,1
 5922               		.comm OSTCBCur,2,1
 5923               		.comm OSTCBFreeList,2,1
 5924               		.comm OSTCBHighRdy,2,1
 5925               		.comm OSTCBList,2,1
 5926               		.comm OSTCBPrioTbl,26,1
 5927               		.comm OSTCBTbl,1014,1
 5928               		.comm OSTime,4,1
GAS LISTING C:\DOCUME~1\KEUNSO~1\LOCALS~1\Temp/ccWaaqlF.s 			page 105


 5929               		.section	.debug_frame,"",@progbits
 5930               	.Lframe0:
 5931 0000 0C00 0000 		.long	.LECIE0-.LSCIE0
 5932               	.LSCIE0:
 5933 0004 FFFF FFFF 		.long	0xffffffff
 5934 0008 01        		.byte	0x1
 5935 0009 00        		.string	""
 5936 000a 01        		.uleb128 0x1
 5937 000b 7F        		.sleb128 -1
 5938 000c 24        		.byte	0x24
 5939 000d 0C        		.byte	0xc
 5940 000e 20        		.uleb128 0x20
 5941 000f 00        		.uleb128 0x0
 5942               		.p2align	2
 5943               	.LECIE0:
 5944               	.LSFDE0:
 5945 0010 0C00 0000 		.long	.LEFDE0-.LASFDE0
 5946               	.LASFDE0:
 5947 0014 0000 0000 		.long	.Lframe0
 5948 0018 0000 0000 		.long	.LFB5
 5949 001c 1A00 0000 		.long	.LFE5-.LFB5
 5950               		.p2align	2
 5951               	.LEFDE0:
 5952               	.LSFDE2:
 5953 0020 0C00 0000 		.long	.LEFDE2-.LASFDE2
 5954               	.LASFDE2:
 5955 0024 0000 0000 		.long	.Lframe0
 5956 0028 0000 0000 		.long	.LFB10
 5957 002c 0600 0000 		.long	.LFE10-.LFB10
 5958               		.p2align	2
 5959               	.LEFDE2:
 5960               	.LSFDE4:
 5961 0030 0C00 0000 		.long	.LEFDE4-.LASFDE4
 5962               	.LASFDE4:
 5963 0034 0000 0000 		.long	.Lframe0
 5964 0038 0000 0000 		.long	.LFB11
 5965 003c B000 0000 		.long	.LFE11-.LFB11
 5966               		.p2align	2
 5967               	.LEFDE4:
 5968               	.LSFDE6:
 5969 0040 0C00 0000 		.long	.LEFDE6-.LASFDE6
 5970               	.LASFDE6:
 5971 0044 0000 0000 		.long	.Lframe0
 5972 0048 0000 0000 		.long	.LFB12
 5973 004c 7000 0000 		.long	.LFE12-.LFB12
 5974               		.p2align	2
 5975               	.LEFDE6:
 5976               	.LSFDE8:
 5977 0050 0C00 0000 		.long	.LEFDE8-.LASFDE8
 5978               	.LASFDE8:
 5979 0054 0000 0000 		.long	.Lframe0
 5980 0058 0000 0000 		.long	.LFB13
 5981 005c 5200 0000 		.long	.LFE13-.LFB13
 5982               		.p2align	2
 5983               	.LEFDE8:
 5984               	.LSFDE10:
 5985 0060 0C00 0000 		.long	.LEFDE10-.LASFDE10
GAS LISTING C:\DOCUME~1\KEUNSO~1\LOCALS~1\Temp/ccWaaqlF.s 			page 106


 5986               	.LASFDE10:
 5987 0064 0000 0000 		.long	.Lframe0
 5988 0068 0000 0000 		.long	.LFB14
 5989 006c 0C00 0000 		.long	.LFE14-.LFB14
 5990               		.p2align	2
 5991               	.LEFDE10:
 5992               	.LSFDE12:
 5993 0070 0C00 0000 		.long	.LEFDE12-.LASFDE12
 5994               	.LASFDE12:
 5995 0074 0000 0000 		.long	.Lframe0
 5996 0078 0000 0000 		.long	.LFB26
 5997 007c 3400 0000 		.long	.LFE26-.LFB26
 5998               		.p2align	2
 5999               	.LEFDE12:
 6000               	.LSFDE14:
 6001 0080 0C00 0000 		.long	.LEFDE14-.LASFDE14
 6002               	.LASFDE14:
 6003 0084 0000 0000 		.long	.Lframe0
 6004 0088 0000 0000 		.long	.LFB31
 6005 008c 3A00 0000 		.long	.LFE31-.LFB31
 6006               		.p2align	2
 6007               	.LEFDE14:
 6008               	.LSFDE16:
 6009 0090 0C00 0000 		.long	.LEFDE16-.LASFDE16
 6010               	.LASFDE16:
 6011 0094 0000 0000 		.long	.Lframe0
 6012 0098 0000 0000 		.long	.LFB36
 6013 009c F000 0000 		.long	.LFE36-.LFB36
 6014               		.p2align	2
 6015               	.LEFDE16:
 6016               	.LSFDE18:
 6017 00a0 0C00 0000 		.long	.LEFDE18-.LASFDE18
 6018               	.LASFDE18:
 6019 00a4 0000 0000 		.long	.Lframe0
 6020 00a8 0000 0000 		.long	.LFB38
 6021 00ac 2400 0000 		.long	.LFE38-.LFB38
 6022               		.p2align	2
 6023               	.LEFDE18:
 6024               	.LSFDE20:
 6025 00b0 0C00 0000 		.long	.LEFDE20-.LASFDE20
 6026               	.LASFDE20:
 6027 00b4 0000 0000 		.long	.Lframe0
 6028 00b8 0000 0000 		.long	.LFB42
 6029 00bc 1E00 0000 		.long	.LFE42-.LFB42
 6030               		.p2align	2
 6031               	.LEFDE20:
 6032               	.LSFDE22:
 6033 00c0 0C00 0000 		.long	.LEFDE22-.LASFDE22
 6034               	.LASFDE22:
 6035 00c4 0000 0000 		.long	.Lframe0
 6036 00c8 0000 0000 		.long	.LFB43
 6037 00cc 1600 0000 		.long	.LFE43-.LFB43
 6038               		.p2align	2
 6039               	.LEFDE22:
 6040               	.LSFDE24:
 6041 00d0 0C00 0000 		.long	.LEFDE24-.LASFDE24
 6042               	.LASFDE24:
GAS LISTING C:\DOCUME~1\KEUNSO~1\LOCALS~1\Temp/ccWaaqlF.s 			page 107


 6043 00d4 0000 0000 		.long	.Lframe0
 6044 00d8 0000 0000 		.long	.LFB37
 6045 00dc 4400 0000 		.long	.LFE37-.LFB37
 6046               		.p2align	2
 6047               	.LEFDE24:
 6048               	.LSFDE26:
 6049 00e0 0C00 0000 		.long	.LEFDE26-.LASFDE26
 6050               	.LASFDE26:
 6051 00e4 0000 0000 		.long	.Lframe0
 6052 00e8 0000 0000 		.long	.LFB35
 6053 00ec 6E00 0000 		.long	.LFE35-.LFB35
 6054               		.p2align	2
 6055               	.LEFDE26:
 6056               	.LSFDE28:
 6057 00f0 0C00 0000 		.long	.LEFDE28-.LASFDE28
 6058               	.LASFDE28:
 6059 00f4 0000 0000 		.long	.Lframe0
 6060 00f8 0000 0000 		.long	.LFB34
 6061 00fc 7800 0000 		.long	.LFE34-.LFB34
 6062               		.p2align	2
 6063               	.LEFDE28:
 6064               	.LSFDE30:
 6065 0100 0C00 0000 		.long	.LEFDE30-.LASFDE30
 6066               	.LASFDE30:
 6067 0104 0000 0000 		.long	.Lframe0
 6068 0108 0000 0000 		.long	.LFB3
 6069 010c 5E00 0000 		.long	.LFE3-.LFB3
 6070               		.p2align	2
 6071               	.LEFDE30:
 6072               	.LSFDE32:
 6073 0110 0C00 0000 		.long	.LEFDE32-.LASFDE32
 6074               	.LASFDE32:
 6075 0114 0000 0000 		.long	.Lframe0
 6076 0118 0000 0000 		.long	.LFB2
 6077 011c 6000 0000 		.long	.LFE2-.LFB2
 6078               		.p2align	2
 6079               	.LEFDE32:
 6080               	.LSFDE34:
 6081 0120 0C00 0000 		.long	.LEFDE34-.LASFDE34
 6082               	.LASFDE34:
 6083 0124 0000 0000 		.long	.Lframe0
 6084 0128 0000 0000 		.long	.LFB27
 6085 012c 5600 0000 		.long	.LFE27-.LFB27
 6086               		.p2align	2
 6087               	.LEFDE34:
 6088               	.LSFDE36:
 6089 0130 0C00 0000 		.long	.LEFDE36-.LASFDE36
 6090               	.LASFDE36:
 6091 0134 0000 0000 		.long	.Lframe0
 6092 0138 0000 0000 		.long	.LFB25
 6093 013c 2E01 0000 		.long	.LFE25-.LFB25
 6094               		.p2align	2
 6095               	.LEFDE36:
 6096               	.LSFDE38:
 6097 0140 0C00 0000 		.long	.LEFDE38-.LASFDE38
 6098               	.LASFDE38:
 6099 0144 0000 0000 		.long	.Lframe0
GAS LISTING C:\DOCUME~1\KEUNSO~1\LOCALS~1\Temp/ccWaaqlF.s 			page 108


 6100 0148 0000 0000 		.long	.LFB22
 6101 014c 3000 0000 		.long	.LFE22-.LFB22
 6102               		.p2align	2
 6103               	.LEFDE38:
 6104               	.LSFDE40:
 6105 0150 0C00 0000 		.long	.LEFDE40-.LASFDE40
 6106               	.LASFDE40:
 6107 0154 0000 0000 		.long	.Lframe0
 6108 0158 0000 0000 		.long	.LFB21
 6109 015c A800 0000 		.long	.LFE21-.LFB21
 6110               		.p2align	2
 6111               	.LEFDE40:
 6112               	.LSFDE42:
 6113 0160 0C00 0000 		.long	.LEFDE42-.LASFDE42
 6114               	.LASFDE42:
 6115 0164 0000 0000 		.long	.Lframe0
 6116 0168 0000 0000 		.long	.LFB41
 6117 016c 7E00 0000 		.long	.LFE41-.LFB41
 6118               		.p2align	2
 6119               	.LEFDE42:
 6120               	.LSFDE44:
 6121 0170 0C00 0000 		.long	.LEFDE44-.LASFDE44
 6122               	.LASFDE44:
 6123 0174 0000 0000 		.long	.Lframe0
 6124 0178 0000 0000 		.long	.LFB33
 6125 017c 1401 0000 		.long	.LFE33-.LFB33
 6126               		.p2align	2
 6127               	.LEFDE44:
 6128               	.LSFDE46:
 6129 0180 0C00 0000 		.long	.LEFDE46-.LASFDE46
 6130               	.LASFDE46:
 6131 0184 0000 0000 		.long	.Lframe0
 6132 0188 0000 0000 		.long	.LFB32
 6133 018c B000 0000 		.long	.LFE32-.LFB32
 6134               		.p2align	2
 6135               	.LEFDE46:
 6136               	.LSFDE48:
 6137 0190 0C00 0000 		.long	.LEFDE48-.LASFDE48
 6138               	.LASFDE48:
 6139 0194 0000 0000 		.long	.Lframe0
 6140 0198 0000 0000 		.long	.LFB30
 6141 019c 4C00 0000 		.long	.LFE30-.LFB30
 6142               		.p2align	2
 6143               	.LEFDE48:
 6144               	.LSFDE50:
 6145 01a0 0C00 0000 		.long	.LEFDE50-.LASFDE50
 6146               	.LASFDE50:
 6147 01a4 0000 0000 		.long	.Lframe0
 6148 01a8 0000 0000 		.long	.LFB29
 6149 01ac B600 0000 		.long	.LFE29-.LFB29
 6150               		.p2align	2
 6151               	.LEFDE50:
 6152               	.LSFDE52:
 6153 01b0 0C00 0000 		.long	.LEFDE52-.LASFDE52
 6154               	.LASFDE52:
 6155 01b4 0000 0000 		.long	.Lframe0
 6156 01b8 0000 0000 		.long	.LFB9
GAS LISTING C:\DOCUME~1\KEUNSO~1\LOCALS~1\Temp/ccWaaqlF.s 			page 109


 6157 01bc BE00 0000 		.long	.LFE9-.LFB9
 6158               		.p2align	2
 6159               	.LEFDE52:
 6160               	.LSFDE54:
 6161 01c0 0C00 0000 		.long	.LEFDE54-.LASFDE54
 6162               	.LASFDE54:
 6163 01c4 0000 0000 		.long	.Lframe0
 6164 01c8 0000 0000 		.long	.LFB7
 6165 01cc 5A00 0000 		.long	.LFE7-.LFB7
 6166               		.p2align	2
 6167               	.LEFDE54:
 6168               	.LSFDE56:
 6169 01d0 0C00 0000 		.long	.LEFDE56-.LASFDE56
 6170               	.LASFDE56:
 6171 01d4 0000 0000 		.long	.Lframe0
 6172 01d8 0000 0000 		.long	.LFB6
 6173 01dc BE00 0000 		.long	.LFE6-.LFB6
 6174               		.p2align	2
 6175               	.LEFDE56:
 6176               	.LSFDE58:
 6177 01e0 0C00 0000 		.long	.LEFDE58-.LASFDE58
 6178               	.LASFDE58:
 6179 01e4 0000 0000 		.long	.Lframe0
 6180 01e8 0000 0000 		.long	.LFB24
 6181 01ec C400 0000 		.long	.LFE24-.LFB24
 6182               		.p2align	2
 6183               	.LEFDE58:
 6184               	.LSFDE60:
 6185 01f0 0C00 0000 		.long	.LEFDE60-.LASFDE60
 6186               	.LASFDE60:
 6187 01f4 0000 0000 		.long	.Lframe0
 6188 01f8 0000 0000 		.long	.LFB28
 6189 01fc 8E01 0000 		.long	.LFE28-.LFB28
 6190               		.p2align	2
 6191               	.LEFDE60:
 6192               	.LSFDE62:
 6193 0200 0C00 0000 		.long	.LEFDE62-.LASFDE62
 6194               	.LASFDE62:
 6195 0204 0000 0000 		.long	.Lframe0
 6196 0208 0000 0000 		.long	.LFB4
 6197 020c 8C03 0000 		.long	.LFE4-.LFB4
 6198               		.p2align	2
 6199               	.LEFDE62:
 6200               	.LSFDE64:
 6201 0210 0C00 0000 		.long	.LEFDE64-.LASFDE64
 6202               	.LASFDE64:
 6203 0214 0000 0000 		.long	.Lframe0
 6204 0218 0000 0000 		.long	.LFB23
 6205 021c 8E03 0000 		.long	.LFE23-.LFB23
 6206               		.p2align	2
 6207               	.LEFDE64:
 6208               	.LSFDE66:
 6209 0220 0C00 0000 		.long	.LEFDE66-.LASFDE66
 6210               	.LASFDE66:
 6211 0224 0000 0000 		.long	.Lframe0
 6212 0228 0000 0000 		.long	.LFB39
 6213 022c F600 0000 		.long	.LFE39-.LFB39
GAS LISTING C:\DOCUME~1\KEUNSO~1\LOCALS~1\Temp/ccWaaqlF.s 			page 110


 6214               		.p2align	2
 6215               	.LEFDE66:
 6216               	.LSFDE68:
 6217 0230 0C00 0000 		.long	.LEFDE68-.LASFDE68
 6218               	.LASFDE68:
 6219 0234 0000 0000 		.long	.Lframe0
 6220 0238 0000 0000 		.long	.LFB8
 6221 023c 1C02 0000 		.long	.LFE8-.LFB8
 6222               		.p2align	2
 6223               	.LEFDE68:
 6224               	.LSFDE70:
 6225 0240 0C00 0000 		.long	.LEFDE70-.LASFDE70
 6226               	.LASFDE70:
 6227 0244 0000 0000 		.long	.Lframe0
 6228 0248 0000 0000 		.long	.LFB40
 6229 024c E203 0000 		.long	.LFE40-.LFB40
 6230               		.p2align	2
 6231               	.LEFDE70:
 6232               		.text
 6233               	.Letext0:
 6234               		.section	.debug_loc,"",@progbits
 6235               	.Ldebug_loc0:
 6236               	.LLST3:
 6237 0000 2000 0000 		.long	.LVL0-.Ltext0
 6238 0004 5E00 0000 		.long	.LVL4-.Ltext0
 6239 0008 0600      		.word	0x6
 6240 000a 68        		.byte	0x68
 6241 000b 93        		.byte	0x93
 6242 000c 01        		.uleb128 0x1
 6243 000d 69        		.byte	0x69
 6244 000e 93        		.byte	0x93
 6245 000f 01        		.uleb128 0x1
 6246 0010 5E00 0000 		.long	.LVL4-.Ltext0
 6247 0014 CC00 0000 		.long	.LVL17-.Ltext0
 6248 0018 0600      		.word	0x6
 6249 001a 6C        		.byte	0x6c
 6250 001b 93        		.byte	0x93
 6251 001c 01        		.uleb128 0x1
 6252 001d 6D        		.byte	0x6d
 6253 001e 93        		.byte	0x93
 6254 001f 01        		.uleb128 0x1
 6255 0020 0000 0000 		.long	0x0
 6256 0024 0000 0000 		.long	0x0
 6257               	.LLST4:
 6258 0028 2000 0000 		.long	.LVL0-.Ltext0
 6259 002c 3A00 0000 		.long	.LVL2-.Ltext0
 6260 0030 0600      		.word	0x6
 6261 0032 66        		.byte	0x66
 6262 0033 93        		.byte	0x93
 6263 0034 01        		.uleb128 0x1
 6264 0035 67        		.byte	0x67
 6265 0036 93        		.byte	0x93
 6266 0037 01        		.uleb128 0x1
 6267 0038 0000 0000 		.long	0x0
 6268 003c 0000 0000 		.long	0x0
 6269               	.LLST5:
 6270 0040 2000 0000 		.long	.LVL0-.Ltext0
GAS LISTING C:\DOCUME~1\KEUNSO~1\LOCALS~1\Temp/ccWaaqlF.s 			page 111


 6271 0044 4600 0000 		.long	.LVL3-.Ltext0
 6272 0048 0100      		.word	0x1
 6273 004a 64        		.byte	0x64
 6274 004b 4600 0000 		.long	.LVL3-.Ltext0
 6275 004f CE00 0000 		.long	.LVL18-.Ltext0
 6276 0053 0100      		.word	0x1
 6277 0055 61        		.byte	0x61
 6278 0056 0000 0000 		.long	0x0
 6279 005a 0000 0000 		.long	0x0
 6280               	.LLST6:
 6281 005e 9800 0000 		.long	.LVL13-.Ltext0
 6282 0062 BC00 0000 		.long	.LVL14-.Ltext0
 6283 0066 0600      		.word	0x6
 6284 0068 6E        		.byte	0x6e
 6285 0069 93        		.byte	0x93
 6286 006a 01        		.uleb128 0x1
 6287 006b 6F        		.byte	0x6f
 6288 006c 93        		.byte	0x93
 6289 006d 01        		.uleb128 0x1
 6290 006e C600 0000 		.long	.LVL15-.Ltext0
 6291 0072 D000 0000 		.long	.LFE11-.Ltext0
 6292 0076 0600      		.word	0x6
 6293 0078 6E        		.byte	0x6e
 6294 0079 93        		.byte	0x93
 6295 007a 01        		.uleb128 0x1
 6296 007b 6F        		.byte	0x6f
 6297 007c 93        		.byte	0x93
 6298 007d 01        		.uleb128 0x1
 6299 007e 0000 0000 		.long	0x0
 6300 0082 0000 0000 		.long	0x0
 6301               	.LLST7:
 6302 0086 5E00 0000 		.long	.LVL4-.Ltext0
 6303 008a 6200 0000 		.long	.LVL5-.Ltext0
 6304 008e 0100      		.word	0x1
 6305 0090 68        		.byte	0x68
 6306 0091 6200 0000 		.long	.LVL5-.Ltext0
 6307 0095 8800 0000 		.long	.LVL9-.Ltext0
 6308 0099 0600      		.word	0x6
 6309 009b 6E        		.byte	0x6e
 6310 009c 93        		.byte	0x93
 6311 009d 01        		.uleb128 0x1
 6312 009e 6F        		.byte	0x6f
 6313 009f 93        		.byte	0x93
 6314 00a0 01        		.uleb128 0x1
 6315 00a1 0000 0000 		.long	0x0
 6316 00a5 0000 0000 		.long	0x0
 6317               	.LLST8:
 6318 00a9 3800 0000 		.long	.LVL1-.Ltext0
 6319 00ad 6E00 0000 		.long	.LVL8-.Ltext0
 6320 00b1 0100      		.word	0x1
 6321 00b3 62        		.byte	0x62
 6322 00b4 0000 0000 		.long	0x0
 6323 00b8 0000 0000 		.long	0x0
 6324               	.LLST9:
 6325 00bc 6E00 0000 		.long	.LVL8-.Ltext0
 6326 00c0 8A00 0000 		.long	.LVL10-.Ltext0
 6327 00c4 0100      		.word	0x1
GAS LISTING C:\DOCUME~1\KEUNSO~1\LOCALS~1\Temp/ccWaaqlF.s 			page 112


 6328 00c6 62        		.byte	0x62
 6329 00c7 8A00 0000 		.long	.LVL10-.Ltext0
 6330 00cb 9800 0000 		.long	.LVL13-.Ltext0
 6331 00cf 0600      		.word	0x6
 6332 00d1 6E        		.byte	0x6e
 6333 00d2 93        		.byte	0x93
 6334 00d3 01        		.uleb128 0x1
 6335 00d4 6F        		.byte	0x6f
 6336 00d5 93        		.byte	0x93
 6337 00d6 01        		.uleb128 0x1
 6338 00d7 C800 0000 		.long	.LVL16-.Ltext0
 6339 00db D000 0000 		.long	.LFE11-.Ltext0
 6340 00df 0600      		.word	0x6
 6341 00e1 62        		.byte	0x62
 6342 00e2 93        		.byte	0x93
 6343 00e3 01        		.uleb128 0x1
 6344 00e4 6F        		.byte	0x6f
 6345 00e5 93        		.byte	0x93
 6346 00e6 01        		.uleb128 0x1
 6347 00e7 0000 0000 		.long	0x0
 6348 00eb 0000 0000 		.long	0x0
 6349               	.LLST11:
 6350 00ef D000 0000 		.long	.LVL19-.Ltext0
 6351 00f3 EE00 0000 		.long	.LVL20-.Ltext0
 6352 00f7 0600      		.word	0x6
 6353 00f9 68        		.byte	0x68
 6354 00fa 93        		.byte	0x93
 6355 00fb 01        		.uleb128 0x1
 6356 00fc 69        		.byte	0x69
 6357 00fd 93        		.byte	0x93
 6358 00fe 01        		.uleb128 0x1
 6359 00ff EE00 0000 		.long	.LVL20-.Ltext0
 6360 0103 3801 0000 		.long	.LVL21-.Ltext0
 6361 0107 0600      		.word	0x6
 6362 0109 6C        		.byte	0x6c
 6363 010a 93        		.byte	0x93
 6364 010b 01        		.uleb128 0x1
 6365 010c 6D        		.byte	0x6d
 6366 010d 93        		.byte	0x93
 6367 010e 01        		.uleb128 0x1
 6368 010f 3A01 0000 		.long	.LVL22-.Ltext0
 6369 0113 4001 0000 		.long	.LFE12-.Ltext0
 6370 0117 0600      		.word	0x6
 6371 0119 6C        		.byte	0x6c
 6372 011a 93        		.byte	0x93
 6373 011b 01        		.uleb128 0x1
 6374 011c 6D        		.byte	0x6d
 6375 011d 93        		.byte	0x93
 6376 011e 01        		.uleb128 0x1
 6377 011f 0000 0000 		.long	0x0
 6378 0123 0000 0000 		.long	0x0
 6379               	.LLST13:
 6380 0127 4001 0000 		.long	.LVL23-.Ltext0
 6381 012b 5601 0000 		.long	.LVL24-.Ltext0
 6382 012f 0600      		.word	0x6
 6383 0131 68        		.byte	0x68
 6384 0132 93        		.byte	0x93
GAS LISTING C:\DOCUME~1\KEUNSO~1\LOCALS~1\Temp/ccWaaqlF.s 			page 113


 6385 0133 01        		.uleb128 0x1
 6386 0134 69        		.byte	0x69
 6387 0135 93        		.byte	0x93
 6388 0136 01        		.uleb128 0x1
 6389 0137 5601 0000 		.long	.LVL24-.Ltext0
 6390 013b 9001 0000 		.long	.LVL25-.Ltext0
 6391 013f 0600      		.word	0x6
 6392 0141 6C        		.byte	0x6c
 6393 0142 93        		.byte	0x93
 6394 0143 01        		.uleb128 0x1
 6395 0144 6D        		.byte	0x6d
 6396 0145 93        		.byte	0x93
 6397 0146 01        		.uleb128 0x1
 6398 0147 0000 0000 		.long	0x0
 6399 014b 0000 0000 		.long	0x0
 6400               	.LLST16:
 6401 014f 9E01 0000 		.long	.LVL27-.Ltext0
 6402 0153 A401 0000 		.long	.LVL28-.Ltext0
 6403 0157 0600      		.word	0x6
 6404 0159 68        		.byte	0x68
 6405 015a 93        		.byte	0x93
 6406 015b 01        		.uleb128 0x1
 6407 015c 69        		.byte	0x69
 6408 015d 93        		.byte	0x93
 6409 015e 01        		.uleb128 0x1
 6410 015f A401 0000 		.long	.LVL28-.Ltext0
 6411 0163 D201 0000 		.long	.LFE26-.Ltext0
 6412 0167 0600      		.word	0x6
 6413 0169 6E        		.byte	0x6e
 6414 016a 93        		.byte	0x93
 6415 016b 01        		.uleb128 0x1
 6416 016c 6F        		.byte	0x6f
 6417 016d 93        		.byte	0x93
 6418 016e 01        		.uleb128 0x1
 6419 016f 0000 0000 		.long	0x0
 6420 0173 0000 0000 		.long	0x0
 6421               	.LLST17:
 6422 0177 AC01 0000 		.long	.LVL29-.Ltext0
 6423 017b B201 0000 		.long	.LVL31-.Ltext0
 6424 017f 0600      		.word	0x6
 6425 0181 62        		.byte	0x62
 6426 0182 93        		.byte	0x93
 6427 0183 01        		.uleb128 0x1
 6428 0184 63        		.byte	0x63
 6429 0185 93        		.byte	0x93
 6430 0186 01        		.uleb128 0x1
 6431 0187 B801 0000 		.long	.LVL32-.Ltext0
 6432 018b D201 0000 		.long	.LFE26-.Ltext0
 6433 018f 0600      		.word	0x6
 6434 0191 62        		.byte	0x62
 6435 0192 93        		.byte	0x93
 6436 0193 01        		.uleb128 0x1
 6437 0194 63        		.byte	0x63
 6438 0195 93        		.byte	0x93
 6439 0196 01        		.uleb128 0x1
 6440 0197 0000 0000 		.long	0x0
 6441 019b 0000 0000 		.long	0x0
GAS LISTING C:\DOCUME~1\KEUNSO~1\LOCALS~1\Temp/ccWaaqlF.s 			page 114


 6442               	.LLST19:
 6443 019f D201 0000 		.long	.LVL34-.Ltext0
 6444 01a3 DC01 0000 		.long	.LVL35-.Ltext0
 6445 01a7 0600      		.word	0x6
 6446 01a9 68        		.byte	0x68
 6447 01aa 93        		.byte	0x93
 6448 01ab 01        		.uleb128 0x1
 6449 01ac 69        		.byte	0x69
 6450 01ad 93        		.byte	0x93
 6451 01ae 01        		.uleb128 0x1
 6452 01af DC01 0000 		.long	.LVL35-.Ltext0
 6453 01b3 0C02 0000 		.long	.LFE31-.Ltext0
 6454 01b7 0600      		.word	0x6
 6455 01b9 6E        		.byte	0x6e
 6456 01ba 93        		.byte	0x93
 6457 01bb 01        		.uleb128 0x1
 6458 01bc 6F        		.byte	0x6f
 6459 01bd 93        		.byte	0x93
 6460 01be 01        		.uleb128 0x1
 6461 01bf 0000 0000 		.long	0x0
 6462 01c3 0000 0000 		.long	0x0
 6463               	.LLST20:
 6464 01c7 D201 0000 		.long	.LVL34-.Ltext0
 6465 01cb E001 0000 		.long	.LVL36-.Ltext0
 6466 01cf 0600      		.word	0x6
 6467 01d1 66        		.byte	0x66
 6468 01d2 93        		.byte	0x93
 6469 01d3 01        		.uleb128 0x1
 6470 01d4 67        		.byte	0x67
 6471 01d5 93        		.byte	0x93
 6472 01d6 01        		.uleb128 0x1
 6473 01d7 E001 0000 		.long	.LVL36-.Ltext0
 6474 01db 0C02 0000 		.long	.LFE31-.Ltext0
 6475 01df 0600      		.word	0x6
 6476 01e1 6A        		.byte	0x6a
 6477 01e2 93        		.byte	0x93
 6478 01e3 01        		.uleb128 0x1
 6479 01e4 6B        		.byte	0x6b
 6480 01e5 93        		.byte	0x93
 6481 01e6 01        		.uleb128 0x1
 6482 01e7 0000 0000 		.long	0x0
 6483 01eb 0000 0000 		.long	0x0
 6484               	.LLST22:
 6485 01ef 0C02 0000 		.long	.LVL37-.Ltext0
 6486 01f3 3602 0000 		.long	.LVL39-.Ltext0
 6487 01f7 0100      		.word	0x1
 6488 01f9 68        		.byte	0x68
 6489 01fa 3602 0000 		.long	.LVL39-.Ltext0
 6490 01fe 4402 0000 		.long	.LVL42-.Ltext0
 6491 0202 0600      		.word	0x6
 6492 0204 6E        		.byte	0x6e
 6493 0205 93        		.byte	0x93
 6494 0206 01        		.uleb128 0x1
 6495 0207 6F        		.byte	0x6f
 6496 0208 93        		.byte	0x93
 6497 0209 01        		.uleb128 0x1
 6498 020a 6802 0000 		.long	.LVL44-.Ltext0
GAS LISTING C:\DOCUME~1\KEUNSO~1\LOCALS~1\Temp/ccWaaqlF.s 			page 115


 6499 020e 7402 0000 		.long	.LVL46-.Ltext0
 6500 0212 0100      		.word	0x1
 6501 0214 68        		.byte	0x68
 6502 0215 0000 0000 		.long	0x0
 6503 0219 0000 0000 		.long	0x0
 6504               	.LLST23:
 6505 021d 0C02 0000 		.long	.LVL37-.Ltext0
 6506 0221 3202 0000 		.long	.LVL38-.Ltext0
 6507 0225 0600      		.word	0x6
 6508 0227 66        		.byte	0x66
 6509 0228 93        		.byte	0x93
 6510 0229 01        		.uleb128 0x1
 6511 022a 67        		.byte	0x67
 6512 022b 93        		.byte	0x93
 6513 022c 01        		.uleb128 0x1
 6514 022d 3202 0000 		.long	.LVL38-.Ltext0
 6515 0231 5E02 0000 		.long	.LVL43-.Ltext0
 6516 0235 0600      		.word	0x6
 6517 0237 6C        		.byte	0x6c
 6518 0238 93        		.byte	0x93
 6519 0239 01        		.uleb128 0x1
 6520 023a 6D        		.byte	0x6d
 6521 023b 93        		.byte	0x93
 6522 023c 01        		.uleb128 0x1
 6523 023d 5E02 0000 		.long	.LVL43-.Ltext0
 6524 0241 6802 0000 		.long	.LVL44-.Ltext0
 6525 0245 0600      		.word	0x6
 6526 0247 66        		.byte	0x66
 6527 0248 93        		.byte	0x93
 6528 0249 01        		.uleb128 0x1
 6529 024a 67        		.byte	0x67
 6530 024b 93        		.byte	0x93
 6531 024c 01        		.uleb128 0x1
 6532 024d 6802 0000 		.long	.LVL44-.Ltext0
 6533 0251 7C02 0000 		.long	.LVL47-.Ltext0
 6534 0255 0600      		.word	0x6
 6535 0257 6C        		.byte	0x6c
 6536 0258 93        		.byte	0x93
 6537 0259 01        		.uleb128 0x1
 6538 025a 6D        		.byte	0x6d
 6539 025b 93        		.byte	0x93
 6540 025c 01        		.uleb128 0x1
 6541 025d 7C02 0000 		.long	.LVL47-.Ltext0
 6542 0261 8602 0000 		.long	.LVL48-.Ltext0
 6543 0265 0600      		.word	0x6
 6544 0267 66        		.byte	0x66
 6545 0268 93        		.byte	0x93
 6546 0269 01        		.uleb128 0x1
 6547 026a 67        		.byte	0x67
 6548 026b 93        		.byte	0x93
 6549 026c 01        		.uleb128 0x1
 6550 026d 8602 0000 		.long	.LVL48-.Ltext0
 6551 0271 D602 0000 		.long	.LVL54-.Ltext0
 6552 0275 0600      		.word	0x6
 6553 0277 6C        		.byte	0x6c
 6554 0278 93        		.byte	0x93
 6555 0279 01        		.uleb128 0x1
GAS LISTING C:\DOCUME~1\KEUNSO~1\LOCALS~1\Temp/ccWaaqlF.s 			page 116


 6556 027a 6D        		.byte	0x6d
 6557 027b 93        		.byte	0x93
 6558 027c 01        		.uleb128 0x1
 6559 027d D602 0000 		.long	.LVL54-.Ltext0
 6560 0281 E002 0000 		.long	.LVL56-.Ltext0
 6561 0285 0600      		.word	0x6
 6562 0287 66        		.byte	0x66
 6563 0288 93        		.byte	0x93
 6564 0289 01        		.uleb128 0x1
 6565 028a 67        		.byte	0x67
 6566 028b 93        		.byte	0x93
 6567 028c 01        		.uleb128 0x1
 6568 028d E002 0000 		.long	.LVL56-.Ltext0
 6569 0291 E802 0000 		.long	.LVL57-.Ltext0
 6570 0295 0600      		.word	0x6
 6571 0297 6C        		.byte	0x6c
 6572 0298 93        		.byte	0x93
 6573 0299 01        		.uleb128 0x1
 6574 029a 6D        		.byte	0x6d
 6575 029b 93        		.byte	0x93
 6576 029c 01        		.uleb128 0x1
 6577 029d E802 0000 		.long	.LVL57-.Ltext0
 6578 02a1 F202 0000 		.long	.LVL58-.Ltext0
 6579 02a5 0600      		.word	0x6
 6580 02a7 66        		.byte	0x66
 6581 02a8 93        		.byte	0x93
 6582 02a9 01        		.uleb128 0x1
 6583 02aa 67        		.byte	0x67
 6584 02ab 93        		.byte	0x93
 6585 02ac 01        		.uleb128 0x1
 6586 02ad F202 0000 		.long	.LVL58-.Ltext0
 6587 02b1 FC02 0000 		.long	.LFE36-.Ltext0
 6588 02b5 0600      		.word	0x6
 6589 02b7 6C        		.byte	0x6c
 6590 02b8 93        		.byte	0x93
 6591 02b9 01        		.uleb128 0x1
 6592 02ba 6D        		.byte	0x6d
 6593 02bb 93        		.byte	0x93
 6594 02bc 01        		.uleb128 0x1
 6595 02bd 0000 0000 		.long	0x0
 6596 02c1 0000 0000 		.long	0x0
 6597               	.LLST24:
 6598 02c5 4402 0000 		.long	.LVL42-.Ltext0
 6599 02c9 6802 0000 		.long	.LVL44-.Ltext0
 6600 02cd 0600      		.word	0x6
 6601 02cf 6E        		.byte	0x6e
 6602 02d0 93        		.byte	0x93
 6603 02d1 01        		.uleb128 0x1
 6604 02d2 6F        		.byte	0x6f
 6605 02d3 93        		.byte	0x93
 6606 02d4 01        		.uleb128 0x1
 6607 02d5 7402 0000 		.long	.LVL46-.Ltext0
 6608 02d9 AE02 0000 		.long	.LVL52-.Ltext0
 6609 02dd 0600      		.word	0x6
 6610 02df 6E        		.byte	0x6e
 6611 02e0 93        		.byte	0x93
 6612 02e1 01        		.uleb128 0x1
GAS LISTING C:\DOCUME~1\KEUNSO~1\LOCALS~1\Temp/ccWaaqlF.s 			page 117


 6613 02e2 6F        		.byte	0x6f
 6614 02e3 93        		.byte	0x93
 6615 02e4 01        		.uleb128 0x1
 6616 02e5 B802 0000 		.long	.LVL53-.Ltext0
 6617 02e9 FC02 0000 		.long	.LFE36-.Ltext0
 6618 02ed 0600      		.word	0x6
 6619 02ef 6E        		.byte	0x6e
 6620 02f0 93        		.byte	0x93
 6621 02f1 01        		.uleb128 0x1
 6622 02f2 6F        		.byte	0x6f
 6623 02f3 93        		.byte	0x93
 6624 02f4 01        		.uleb128 0x1
 6625 02f5 0000 0000 		.long	0x0
 6626 02f9 0000 0000 		.long	0x0
 6627               	.LLST25:
 6628 02fd 9202 0000 		.long	.LVL50-.Ltext0
 6629 0301 E002 0000 		.long	.LVL56-.Ltext0
 6630 0305 0600      		.word	0x6
 6631 0307 6A        		.byte	0x6a
 6632 0308 93        		.byte	0x93
 6633 0309 01        		.uleb128 0x1
 6634 030a 6B        		.byte	0x6b
 6635 030b 93        		.byte	0x93
 6636 030c 01        		.uleb128 0x1
 6637 030d F202 0000 		.long	.LVL58-.Ltext0
 6638 0311 FC02 0000 		.long	.LFE36-.Ltext0
 6639 0315 0600      		.word	0x6
 6640 0317 6A        		.byte	0x6a
 6641 0318 93        		.byte	0x93
 6642 0319 01        		.uleb128 0x1
 6643 031a 6B        		.byte	0x6b
 6644 031b 93        		.byte	0x93
 6645 031c 01        		.uleb128 0x1
 6646 031d 0000 0000 		.long	0x0
 6647 0321 0000 0000 		.long	0x0
 6648               	.LLST26:
 6649 0325 A202 0000 		.long	.LVL51-.Ltext0
 6650 0329 E002 0000 		.long	.LVL56-.Ltext0
 6651 032d 0C00      		.word	0xc
 6652 032f 62        		.byte	0x62
 6653 0330 93        		.byte	0x93
 6654 0331 01        		.uleb128 0x1
 6655 0332 63        		.byte	0x63
 6656 0333 93        		.byte	0x93
 6657 0334 01        		.uleb128 0x1
 6658 0335 64        		.byte	0x64
 6659 0336 93        		.byte	0x93
 6660 0337 01        		.uleb128 0x1
 6661 0338 65        		.byte	0x65
 6662 0339 93        		.byte	0x93
 6663 033a 01        		.uleb128 0x1
 6664 033b FA02 0000 		.long	.LVL59-.Ltext0
 6665 033f FC02 0000 		.long	.LFE36-.Ltext0
 6666 0343 0C00      		.word	0xc
 6667 0345 62        		.byte	0x62
 6668 0346 93        		.byte	0x93
 6669 0347 01        		.uleb128 0x1
GAS LISTING C:\DOCUME~1\KEUNSO~1\LOCALS~1\Temp/ccWaaqlF.s 			page 118


 6670 0348 63        		.byte	0x63
 6671 0349 93        		.byte	0x93
 6672 034a 01        		.uleb128 0x1
 6673 034b 64        		.byte	0x64
 6674 034c 93        		.byte	0x93
 6675 034d 01        		.uleb128 0x1
 6676 034e 65        		.byte	0x65
 6677 034f 93        		.byte	0x93
 6678 0350 01        		.uleb128 0x1
 6679 0351 0000 0000 		.long	0x0
 6680 0355 0000 0000 		.long	0x0
 6681               	.LLST27:
 6682 0359 8E02 0000 		.long	.LVL49-.Ltext0
 6683 035d DE02 0000 		.long	.LVL55-.Ltext0
 6684 0361 0C00      		.word	0xc
 6685 0363 5E        		.byte	0x5e
 6686 0364 93        		.byte	0x93
 6687 0365 01        		.uleb128 0x1
 6688 0366 5F        		.byte	0x5f
 6689 0367 93        		.byte	0x93
 6690 0368 01        		.uleb128 0x1
 6691 0369 60        		.byte	0x60
 6692 036a 93        		.byte	0x93
 6693 036b 01        		.uleb128 0x1
 6694 036c 61        		.byte	0x61
 6695 036d 93        		.byte	0x93
 6696 036e 01        		.uleb128 0x1
 6697 036f F202 0000 		.long	.LVL58-.Ltext0
 6698 0373 FC02 0000 		.long	.LFE36-.Ltext0
 6699 0377 0C00      		.word	0xc
 6700 0379 5E        		.byte	0x5e
 6701 037a 93        		.byte	0x93
 6702 037b 01        		.uleb128 0x1
 6703 037c 5F        		.byte	0x5f
 6704 037d 93        		.byte	0x93
 6705 037e 01        		.uleb128 0x1
 6706 037f 60        		.byte	0x60
 6707 0380 93        		.byte	0x93
 6708 0381 01        		.uleb128 0x1
 6709 0382 61        		.byte	0x61
 6710 0383 93        		.byte	0x93
 6711 0384 01        		.uleb128 0x1
 6712 0385 0000 0000 		.long	0x0
 6713 0389 0000 0000 		.long	0x0
 6714               	.LLST29:
 6715 038d FC02 0000 		.long	.LVL60-.Ltext0
 6716 0391 0403 0000 		.long	.LVL61-.Ltext0
 6717 0395 0600      		.word	0x6
 6718 0397 68        		.byte	0x68
 6719 0398 93        		.byte	0x93
 6720 0399 01        		.uleb128 0x1
 6721 039a 69        		.byte	0x69
 6722 039b 93        		.byte	0x93
 6723 039c 01        		.uleb128 0x1
 6724 039d 0403 0000 		.long	.LVL61-.Ltext0
 6725 03a1 2003 0000 		.long	.LFE38-.Ltext0
 6726 03a5 0600      		.word	0x6
GAS LISTING C:\DOCUME~1\KEUNSO~1\LOCALS~1\Temp/ccWaaqlF.s 			page 119


 6727 03a7 6E        		.byte	0x6e
 6728 03a8 93        		.byte	0x93
 6729 03a9 01        		.uleb128 0x1
 6730 03aa 6F        		.byte	0x6f
 6731 03ab 93        		.byte	0x93
 6732 03ac 01        		.uleb128 0x1
 6733 03ad 0000 0000 		.long	0x0
 6734 03b1 0000 0000 		.long	0x0
 6735               	.LLST33:
 6736 03b5 5403 0000 		.long	.LVL68-.Ltext0
 6737 03b9 5E03 0000 		.long	.LVL69-.Ltext0
 6738 03bd 0100      		.word	0x1
 6739 03bf 68        		.byte	0x68
 6740 03c0 5E03 0000 		.long	.LVL69-.Ltext0
 6741 03c4 6C03 0000 		.long	.LVL72-.Ltext0
 6742 03c8 0600      		.word	0x6
 6743 03ca 6E        		.byte	0x6e
 6744 03cb 93        		.byte	0x93
 6745 03cc 01        		.uleb128 0x1
 6746 03cd 6F        		.byte	0x6f
 6747 03ce 93        		.byte	0x93
 6748 03cf 01        		.uleb128 0x1
 6749 03d0 8C03 0000 		.long	.LVL76-.Ltext0
 6750 03d4 9803 0000 		.long	.LFE37-.Ltext0
 6751 03d8 0100      		.word	0x1
 6752 03da 68        		.byte	0x68
 6753 03db 0000 0000 		.long	0x0
 6754 03df 0000 0000 		.long	0x0
 6755               	.LLST34:
 6756 03e3 5403 0000 		.long	.LVL68-.Ltext0
 6757 03e7 7403 0000 		.long	.LVL73-.Ltext0
 6758 03eb 0600      		.word	0x6
 6759 03ed 66        		.byte	0x66
 6760 03ee 93        		.byte	0x93
 6761 03ef 01        		.uleb128 0x1
 6762 03f0 67        		.byte	0x67
 6763 03f1 93        		.byte	0x93
 6764 03f2 01        		.uleb128 0x1
 6765 03f3 7403 0000 		.long	.LVL73-.Ltext0
 6766 03f7 7A03 0000 		.long	.LVL74-.Ltext0
 6767 03fb 0600      		.word	0x6
 6768 03fd 62        		.byte	0x62
 6769 03fe 93        		.byte	0x93
 6770 03ff 01        		.uleb128 0x1
 6771 0400 67        		.byte	0x67
 6772 0401 93        		.byte	0x93
 6773 0402 01        		.uleb128 0x1
 6774 0403 7A03 0000 		.long	.LVL74-.Ltext0
 6775 0407 8603 0000 		.long	.LVL75-.Ltext0
 6776 040b 0600      		.word	0x6
 6777 040d 6A        		.byte	0x6a
 6778 040e 93        		.byte	0x93
 6779 040f 01        		.uleb128 0x1
 6780 0410 6B        		.byte	0x6b
 6781 0411 93        		.byte	0x93
 6782 0412 01        		.uleb128 0x1
 6783 0413 8603 0000 		.long	.LVL75-.Ltext0
GAS LISTING C:\DOCUME~1\KEUNSO~1\LOCALS~1\Temp/ccWaaqlF.s 			page 120


 6784 0417 9803 0000 		.long	.LFE37-.Ltext0
 6785 041b 0600      		.word	0x6
 6786 041d 66        		.byte	0x66
 6787 041e 93        		.byte	0x93
 6788 041f 01        		.uleb128 0x1
 6789 0420 67        		.byte	0x67
 6790 0421 93        		.byte	0x93
 6791 0422 01        		.uleb128 0x1
 6792 0423 0000 0000 		.long	0x0
 6793 0427 0000 0000 		.long	0x0
 6794               	.LLST35:
 6795 042b 6C03 0000 		.long	.LVL72-.Ltext0
 6796 042f 8C03 0000 		.long	.LVL76-.Ltext0
 6797 0433 0600      		.word	0x6
 6798 0435 6E        		.byte	0x6e
 6799 0436 93        		.byte	0x93
 6800 0437 01        		.uleb128 0x1
 6801 0438 6F        		.byte	0x6f
 6802 0439 93        		.byte	0x93
 6803 043a 01        		.uleb128 0x1
 6804 043b 0000 0000 		.long	0x0
 6805 043f 0000 0000 		.long	0x0
 6806               	.LLST37:
 6807 0443 9803 0000 		.long	.LVL78-.Ltext0
 6808 0447 AA03 0000 		.long	.LVL80-.Ltext0
 6809 044b 0100      		.word	0x1
 6810 044d 68        		.byte	0x68
 6811 044e AA03 0000 		.long	.LVL80-.Ltext0
 6812 0452 C203 0000 		.long	.LVL85-.Ltext0
 6813 0456 0600      		.word	0x6
 6814 0458 6E        		.byte	0x6e
 6815 0459 93        		.byte	0x93
 6816 045a 01        		.uleb128 0x1
 6817 045b 6F        		.byte	0x6f
 6818 045c 93        		.byte	0x93
 6819 045d 01        		.uleb128 0x1
 6820 045e EE03 0000 		.long	.LVL93-.Ltext0
 6821 0462 FA03 0000 		.long	.LVL95-.Ltext0
 6822 0466 0100      		.word	0x1
 6823 0468 68        		.byte	0x68
 6824 0469 FA03 0000 		.long	.LVL95-.Ltext0
 6825 046d 0604 0000 		.long	.LFE35-.Ltext0
 6826 0471 0600      		.word	0x6
 6827 0473 6E        		.byte	0x6e
 6828 0474 93        		.byte	0x93
 6829 0475 01        		.uleb128 0x1
 6830 0476 6F        		.byte	0x6f
 6831 0477 93        		.byte	0x93
 6832 0478 01        		.uleb128 0x1
 6833 0479 0000 0000 		.long	0x0
 6834 047d 0000 0000 		.long	0x0
 6835               	.LLST38:
 6836 0481 9803 0000 		.long	.LVL78-.Ltext0
 6837 0485 BE03 0000 		.long	.LVL84-.Ltext0
 6838 0489 0600      		.word	0x6
 6839 048b 66        		.byte	0x66
 6840 048c 93        		.byte	0x93
GAS LISTING C:\DOCUME~1\KEUNSO~1\LOCALS~1\Temp/ccWaaqlF.s 			page 121


 6841 048d 01        		.uleb128 0x1
 6842 048e 67        		.byte	0x67
 6843 048f 93        		.byte	0x93
 6844 0490 01        		.uleb128 0x1
 6845 0491 BE03 0000 		.long	.LVL84-.Ltext0
 6846 0495 D203 0000 		.long	.LVL86-.Ltext0
 6847 0499 0600      		.word	0x6
 6848 049b 6A        		.byte	0x6a
 6849 049c 93        		.byte	0x93
 6850 049d 01        		.uleb128 0x1
 6851 049e 67        		.byte	0x67
 6852 049f 93        		.byte	0x93
 6853 04a0 01        		.uleb128 0x1
 6854 04a1 D203 0000 		.long	.LVL86-.Ltext0
 6855 04a5 E403 0000 		.long	.LVL91-.Ltext0
 6856 04a9 0600      		.word	0x6
 6857 04ab 6A        		.byte	0x6a
 6858 04ac 93        		.byte	0x93
 6859 04ad 01        		.uleb128 0x1
 6860 04ae 6B        		.byte	0x6b
 6861 04af 93        		.byte	0x93
 6862 04b0 01        		.uleb128 0x1
 6863 04b1 EE03 0000 		.long	.LVL93-.Ltext0
 6864 04b5 0604 0000 		.long	.LFE35-.Ltext0
 6865 04b9 0600      		.word	0x6
 6866 04bb 66        		.byte	0x66
 6867 04bc 93        		.byte	0x93
 6868 04bd 01        		.uleb128 0x1
 6869 04be 67        		.byte	0x67
 6870 04bf 93        		.byte	0x93
 6871 04c0 01        		.uleb128 0x1
 6872 04c1 0000 0000 		.long	0x0
 6873 04c5 0000 0000 		.long	0x0
 6874               	.LLST39:
 6875 04c9 9803 0000 		.long	.LVL78-.Ltext0
 6876 04cd A603 0000 		.long	.LVL79-.Ltext0
 6877 04d1 0600      		.word	0x6
 6878 04d3 64        		.byte	0x64
 6879 04d4 93        		.byte	0x93
 6880 04d5 01        		.uleb128 0x1
 6881 04d6 65        		.byte	0x65
 6882 04d7 93        		.byte	0x93
 6883 04d8 01        		.uleb128 0x1
 6884 04d9 A603 0000 		.long	.LVL79-.Ltext0
 6885 04dd DC03 0000 		.long	.LVL88-.Ltext0
 6886 04e1 0600      		.word	0x6
 6887 04e3 6C        		.byte	0x6c
 6888 04e4 93        		.byte	0x93
 6889 04e5 01        		.uleb128 0x1
 6890 04e6 6D        		.byte	0x6d
 6891 04e7 93        		.byte	0x93
 6892 04e8 01        		.uleb128 0x1
 6893 04e9 DC03 0000 		.long	.LVL88-.Ltext0
 6894 04ed DE03 0000 		.long	.LVL89-.Ltext0
 6895 04f1 0600      		.word	0x6
 6896 04f3 64        		.byte	0x64
 6897 04f4 93        		.byte	0x93
GAS LISTING C:\DOCUME~1\KEUNSO~1\LOCALS~1\Temp/ccWaaqlF.s 			page 122


 6898 04f5 01        		.uleb128 0x1
 6899 04f6 65        		.byte	0x65
 6900 04f7 93        		.byte	0x93
 6901 04f8 01        		.uleb128 0x1
 6902 04f9 DE03 0000 		.long	.LVL89-.Ltext0
 6903 04fd EC03 0000 		.long	.LVL92-.Ltext0
 6904 0501 0600      		.word	0x6
 6905 0503 6C        		.byte	0x6c
 6906 0504 93        		.byte	0x93
 6907 0505 01        		.uleb128 0x1
 6908 0506 6D        		.byte	0x6d
 6909 0507 93        		.byte	0x93
 6910 0508 01        		.uleb128 0x1
 6911 0509 EE03 0000 		.long	.LVL93-.Ltext0
 6912 050d 0404 0000 		.long	.LVL97-.Ltext0
 6913 0511 0600      		.word	0x6
 6914 0513 6C        		.byte	0x6c
 6915 0514 93        		.byte	0x93
 6916 0515 01        		.uleb128 0x1
 6917 0516 6D        		.byte	0x6d
 6918 0517 93        		.byte	0x93
 6919 0518 01        		.uleb128 0x1
 6920 0519 0404 0000 		.long	.LVL97-.Ltext0
 6921 051d 0604 0000 		.long	.LFE35-.Ltext0
 6922 0521 0600      		.word	0x6
 6923 0523 64        		.byte	0x64
 6924 0524 93        		.byte	0x93
 6925 0525 01        		.uleb128 0x1
 6926 0526 65        		.byte	0x65
 6927 0527 93        		.byte	0x93
 6928 0528 01        		.uleb128 0x1
 6929 0529 0000 0000 		.long	0x0
 6930 052d 0000 0000 		.long	0x0
 6931               	.LLST40:
 6932 0531 B603 0000 		.long	.LVL83-.Ltext0
 6933 0535 D603 0000 		.long	.LVL87-.Ltext0
 6934 0539 0600      		.word	0x6
 6935 053b 68        		.byte	0x68
 6936 053c 93        		.byte	0x93
 6937 053d 01        		.uleb128 0x1
 6938 053e 69        		.byte	0x69
 6939 053f 93        		.byte	0x93
 6940 0540 01        		.uleb128 0x1
 6941 0541 DE03 0000 		.long	.LVL89-.Ltext0
 6942 0545 E003 0000 		.long	.LVL90-.Ltext0
 6943 0549 0600      		.word	0x6
 6944 054b 68        		.byte	0x68
 6945 054c 93        		.byte	0x93
 6946 054d 01        		.uleb128 0x1
 6947 054e 69        		.byte	0x69
 6948 054f 93        		.byte	0x93
 6949 0550 01        		.uleb128 0x1
 6950 0551 FA03 0000 		.long	.LVL95-.Ltext0
 6951 0555 FE03 0000 		.long	.LVL96-.Ltext0
 6952 0559 0600      		.word	0x6
 6953 055b 68        		.byte	0x68
 6954 055c 93        		.byte	0x93
GAS LISTING C:\DOCUME~1\KEUNSO~1\LOCALS~1\Temp/ccWaaqlF.s 			page 123


 6955 055d 01        		.uleb128 0x1
 6956 055e 69        		.byte	0x69
 6957 055f 93        		.byte	0x93
 6958 0560 01        		.uleb128 0x1
 6959 0561 0000 0000 		.long	0x0
 6960 0565 0000 0000 		.long	0x0
 6961               	.LLST42:
 6962 0569 0604 0000 		.long	.LVL98-.Ltext0
 6963 056d 2004 0000 		.long	.LVL101-.Ltext0
 6964 0571 0100      		.word	0x1
 6965 0573 68        		.byte	0x68
 6966 0574 2004 0000 		.long	.LVL101-.Ltext0
 6967 0578 3E04 0000 		.long	.LVL105-.Ltext0
 6968 057c 0600      		.word	0x6
 6969 057e 6E        		.byte	0x6e
 6970 057f 93        		.byte	0x93
 6971 0580 01        		.uleb128 0x1
 6972 0581 6F        		.byte	0x6f
 6973 0582 93        		.byte	0x93
 6974 0583 01        		.uleb128 0x1
 6975 0584 6004 0000 		.long	.LVL111-.Ltext0
 6976 0588 6C04 0000 		.long	.LVL113-.Ltext0
 6977 058c 0100      		.word	0x1
 6978 058e 68        		.byte	0x68
 6979 058f 6C04 0000 		.long	.LVL113-.Ltext0
 6980 0593 7E04 0000 		.long	.LFE34-.Ltext0
 6981 0597 0600      		.word	0x6
 6982 0599 6E        		.byte	0x6e
 6983 059a 93        		.byte	0x93
 6984 059b 01        		.uleb128 0x1
 6985 059c 6F        		.byte	0x6f
 6986 059d 93        		.byte	0x93
 6987 059e 01        		.uleb128 0x1
 6988 059f 0000 0000 		.long	0x0
 6989 05a3 0000 0000 		.long	0x0
 6990               	.LLST43:
 6991 05a7 0604 0000 		.long	.LVL98-.Ltext0
 6992 05ab 1204 0000 		.long	.LVL99-.Ltext0
 6993 05af 0600      		.word	0x6
 6994 05b1 66        		.byte	0x66
 6995 05b2 93        		.byte	0x93
 6996 05b3 01        		.uleb128 0x1
 6997 05b4 67        		.byte	0x67
 6998 05b5 93        		.byte	0x93
 6999 05b6 01        		.uleb128 0x1
 7000 05b7 1204 0000 		.long	.LVL99-.Ltext0
 7001 05bb 1C04 0000 		.long	.LVL100-.Ltext0
 7002 05bf 0600      		.word	0x6
 7003 05c1 61        		.byte	0x61
 7004 05c2 93        		.byte	0x93
 7005 05c3 01        		.uleb128 0x1
 7006 05c4 67        		.byte	0x67
 7007 05c5 93        		.byte	0x93
 7008 05c6 01        		.uleb128 0x1
 7009 05c7 1C04 0000 		.long	.LVL100-.Ltext0
 7010 05cb 5C04 0000 		.long	.LVL109-.Ltext0
 7011 05cf 0600      		.word	0x6
GAS LISTING C:\DOCUME~1\KEUNSO~1\LOCALS~1\Temp/ccWaaqlF.s 			page 124


 7012 05d1 61        		.byte	0x61
 7013 05d2 93        		.byte	0x93
 7014 05d3 01        		.uleb128 0x1
 7015 05d4 60        		.byte	0x60
 7016 05d5 93        		.byte	0x93
 7017 05d6 01        		.uleb128 0x1
 7018 05d7 5C04 0000 		.long	.LVL109-.Ltext0
 7019 05db 6004 0000 		.long	.LVL111-.Ltext0
 7020 05df 0600      		.word	0x6
 7021 05e1 6A        		.byte	0x6a
 7022 05e2 93        		.byte	0x93
 7023 05e3 01        		.uleb128 0x1
 7024 05e4 6B        		.byte	0x6b
 7025 05e5 93        		.byte	0x93
 7026 05e6 01        		.uleb128 0x1
 7027 05e7 6004 0000 		.long	.LVL111-.Ltext0
 7028 05eb 7A04 0000 		.long	.LVL117-.Ltext0
 7029 05ef 0600      		.word	0x6
 7030 05f1 61        		.byte	0x61
 7031 05f2 93        		.byte	0x93
 7032 05f3 01        		.uleb128 0x1
 7033 05f4 60        		.byte	0x60
 7034 05f5 93        		.byte	0x93
 7035 05f6 01        		.uleb128 0x1
 7036 05f7 0000 0000 		.long	0x0
 7037 05fb 0000 0000 		.long	0x0
 7038               	.LLST44:
 7039 05ff 0604 0000 		.long	.LVL98-.Ltext0
 7040 0603 1C04 0000 		.long	.LVL100-.Ltext0
 7041 0607 0600      		.word	0x6
 7042 0609 64        		.byte	0x64
 7043 060a 93        		.byte	0x93
 7044 060b 01        		.uleb128 0x1
 7045 060c 65        		.byte	0x65
 7046 060d 93        		.byte	0x93
 7047 060e 01        		.uleb128 0x1
 7048 060f 1C04 0000 		.long	.LVL100-.Ltext0
 7049 0613 5A04 0000 		.long	.LVL108-.Ltext0
 7050 0617 0600      		.word	0x6
 7051 0619 6C        		.byte	0x6c
 7052 061a 93        		.byte	0x93
 7053 061b 01        		.uleb128 0x1
 7054 061c 6D        		.byte	0x6d
 7055 061d 93        		.byte	0x93
 7056 061e 01        		.uleb128 0x1
 7057 061f 6004 0000 		.long	.LVL111-.Ltext0
 7058 0623 7804 0000 		.long	.LVL116-.Ltext0
 7059 0627 0600      		.word	0x6
 7060 0629 6C        		.byte	0x6c
 7061 062a 93        		.byte	0x93
 7062 062b 01        		.uleb128 0x1
 7063 062c 6D        		.byte	0x6d
 7064 062d 93        		.byte	0x93
 7065 062e 01        		.uleb128 0x1
 7066 062f 0000 0000 		.long	0x0
 7067 0633 0000 0000 		.long	0x0
 7068               	.LLST45:
GAS LISTING C:\DOCUME~1\KEUNSO~1\LOCALS~1\Temp/ccWaaqlF.s 			page 125


 7069 0637 2C04 0000 		.long	.LVL104-.Ltext0
 7070 063b 3E04 0000 		.long	.LVL105-.Ltext0
 7071 063f 0600      		.word	0x6
 7072 0641 66        		.byte	0x66
 7073 0642 93        		.byte	0x93
 7074 0643 01        		.uleb128 0x1
 7075 0644 67        		.byte	0x67
 7076 0645 93        		.byte	0x93
 7077 0646 01        		.uleb128 0x1
 7078 0647 6C04 0000 		.long	.LVL113-.Ltext0
 7079 064b 7E04 0000 		.long	.LFE34-.Ltext0
 7080 064f 0600      		.word	0x6
 7081 0651 66        		.byte	0x66
 7082 0652 93        		.byte	0x93
 7083 0653 01        		.uleb128 0x1
 7084 0654 67        		.byte	0x67
 7085 0655 93        		.byte	0x93
 7086 0656 01        		.uleb128 0x1
 7087 0657 0000 0000 		.long	0x0
 7088 065b 0000 0000 		.long	0x0
 7089               	.LLST46:
 7090 065f 5004 0000 		.long	.LVL106-.Ltext0
 7091 0663 5604 0000 		.long	.LVL107-.Ltext0
 7092 0667 0100      		.word	0x1
 7093 0669 68        		.byte	0x68
 7094 066a 7404 0000 		.long	.LVL114-.Ltext0
 7095 066e 7404 0000 		.long	.LVL115-.Ltext0
 7096 0672 0100      		.word	0x1
 7097 0674 68        		.byte	0x68
 7098 0675 0000 0000 		.long	0x0
 7099 0679 0000 0000 		.long	0x0
 7100               	.LLST48:
 7101 067d 7E04 0000 		.long	.LVL119-.Ltext0
 7102 0681 9204 0000 		.long	.LVL120-.Ltext0
 7103 0685 0600      		.word	0x6
 7104 0687 68        		.byte	0x68
 7105 0688 93        		.byte	0x93
 7106 0689 01        		.uleb128 0x1
 7107 068a 69        		.byte	0x69
 7108 068b 93        		.byte	0x93
 7109 068c 01        		.uleb128 0x1
 7110 068d 9204 0000 		.long	.LVL120-.Ltext0
 7111 0691 D204 0000 		.long	.LVL128-.Ltext0
 7112 0695 0600      		.word	0x6
 7113 0697 62        		.byte	0x62
 7114 0698 93        		.byte	0x93
 7115 0699 01        		.uleb128 0x1
 7116 069a 63        		.byte	0x63
 7117 069b 93        		.byte	0x93
 7118 069c 01        		.uleb128 0x1
 7119 069d 0000 0000 		.long	0x0
 7120 06a1 0000 0000 		.long	0x0
 7121               	.LLST49:
 7122 06a5 7E04 0000 		.long	.LVL119-.Ltext0
 7123 06a9 9C04 0000 		.long	.LVL122-.Ltext0
 7124 06ad 0600      		.word	0x6
 7125 06af 66        		.byte	0x66
GAS LISTING C:\DOCUME~1\KEUNSO~1\LOCALS~1\Temp/ccWaaqlF.s 			page 126


 7126 06b0 93        		.byte	0x93
 7127 06b1 01        		.uleb128 0x1
 7128 06b2 67        		.byte	0x67
 7129 06b3 93        		.byte	0x93
 7130 06b4 01        		.uleb128 0x1
 7131 06b5 9C04 0000 		.long	.LVL122-.Ltext0
 7132 06b9 B004 0000 		.long	.LVL123-.Ltext0
 7133 06bd 0600      		.word	0x6
 7134 06bf 6A        		.byte	0x6a
 7135 06c0 93        		.byte	0x93
 7136 06c1 01        		.uleb128 0x1
 7137 06c2 67        		.byte	0x67
 7138 06c3 93        		.byte	0x93
 7139 06c4 01        		.uleb128 0x1
 7140 06c5 B004 0000 		.long	.LVL123-.Ltext0
 7141 06c9 BC04 0000 		.long	.LVL125-.Ltext0
 7142 06cd 0600      		.word	0x6
 7143 06cf 6A        		.byte	0x6a
 7144 06d0 93        		.byte	0x93
 7145 06d1 01        		.uleb128 0x1
 7146 06d2 6B        		.byte	0x6b
 7147 06d3 93        		.byte	0x93
 7148 06d4 01        		.uleb128 0x1
 7149 06d5 BC04 0000 		.long	.LVL125-.Ltext0
 7150 06d9 C804 0000 		.long	.LVL127-.Ltext0
 7151 06dd 0600      		.word	0x6
 7152 06df 66        		.byte	0x66
 7153 06e0 93        		.byte	0x93
 7154 06e1 01        		.uleb128 0x1
 7155 06e2 67        		.byte	0x67
 7156 06e3 93        		.byte	0x93
 7157 06e4 01        		.uleb128 0x1
 7158 06e5 C804 0000 		.long	.LVL127-.Ltext0
 7159 06e9 D204 0000 		.long	.LVL128-.Ltext0
 7160 06ed 0600      		.word	0x6
 7161 06ef 6A        		.byte	0x6a
 7162 06f0 93        		.byte	0x93
 7163 06f1 01        		.uleb128 0x1
 7164 06f2 6B        		.byte	0x6b
 7165 06f3 93        		.byte	0x93
 7166 06f4 01        		.uleb128 0x1
 7167 06f5 0000 0000 		.long	0x0
 7168 06f9 0000 0000 		.long	0x0
 7169               	.LLST50:
 7170 06fd 7E04 0000 		.long	.LVL119-.Ltext0
 7171 0701 9804 0000 		.long	.LVL121-.Ltext0
 7172 0705 0600      		.word	0x6
 7173 0707 64        		.byte	0x64
 7174 0708 93        		.byte	0x93
 7175 0709 01        		.uleb128 0x1
 7176 070a 65        		.byte	0x65
 7177 070b 93        		.byte	0x93
 7178 070c 01        		.uleb128 0x1
 7179 070d 9804 0000 		.long	.LVL121-.Ltext0
 7180 0711 BA04 0000 		.long	.LVL124-.Ltext0
 7181 0715 0600      		.word	0x6
 7182 0717 6C        		.byte	0x6c
GAS LISTING C:\DOCUME~1\KEUNSO~1\LOCALS~1\Temp/ccWaaqlF.s 			page 127


 7183 0718 93        		.byte	0x93
 7184 0719 01        		.uleb128 0x1
 7185 071a 6D        		.byte	0x6d
 7186 071b 93        		.byte	0x93
 7187 071c 01        		.uleb128 0x1
 7188 071d BA04 0000 		.long	.LVL124-.Ltext0
 7189 0721 BC04 0000 		.long	.LVL125-.Ltext0
 7190 0725 0600      		.word	0x6
 7191 0727 64        		.byte	0x64
 7192 0728 93        		.byte	0x93
 7193 0729 01        		.uleb128 0x1
 7194 072a 65        		.byte	0x65
 7195 072b 93        		.byte	0x93
 7196 072c 01        		.uleb128 0x1
 7197 072d BC04 0000 		.long	.LVL125-.Ltext0
 7198 0731 C604 0000 		.long	.LVL126-.Ltext0
 7199 0735 0600      		.word	0x6
 7200 0737 6C        		.byte	0x6c
 7201 0738 93        		.byte	0x93
 7202 0739 01        		.uleb128 0x1
 7203 073a 6D        		.byte	0x6d
 7204 073b 93        		.byte	0x93
 7205 073c 01        		.uleb128 0x1
 7206 073d C604 0000 		.long	.LVL126-.Ltext0
 7207 0741 C804 0000 		.long	.LVL127-.Ltext0
 7208 0745 0600      		.word	0x6
 7209 0747 64        		.byte	0x64
 7210 0748 93        		.byte	0x93
 7211 0749 01        		.uleb128 0x1
 7212 074a 65        		.byte	0x65
 7213 074b 93        		.byte	0x93
 7214 074c 01        		.uleb128 0x1
 7215 074d C804 0000 		.long	.LVL127-.Ltext0
 7216 0751 DA04 0000 		.long	.LVL129-.Ltext0
 7217 0755 0600      		.word	0x6
 7218 0757 6C        		.byte	0x6c
 7219 0758 93        		.byte	0x93
 7220 0759 01        		.uleb128 0x1
 7221 075a 6D        		.byte	0x6d
 7222 075b 93        		.byte	0x93
 7223 075c 01        		.uleb128 0x1
 7224 075d 0000 0000 		.long	0x0
 7225 0761 0000 0000 		.long	0x0
 7226               	.LLST52:
 7227 0765 DC04 0000 		.long	.LVL130-.Ltext0
 7228 0769 F404 0000 		.long	.LVL132-.Ltext0
 7229 076d 0600      		.word	0x6
 7230 076f 68        		.byte	0x68
 7231 0770 93        		.byte	0x93
 7232 0771 01        		.uleb128 0x1
 7233 0772 69        		.byte	0x69
 7234 0773 93        		.byte	0x93
 7235 0774 01        		.uleb128 0x1
 7236 0775 F404 0000 		.long	.LVL132-.Ltext0
 7237 0779 0805 0000 		.long	.LVL134-.Ltext0
 7238 077d 0600      		.word	0x6
 7239 077f 6E        		.byte	0x6e
GAS LISTING C:\DOCUME~1\KEUNSO~1\LOCALS~1\Temp/ccWaaqlF.s 			page 128


 7240 0780 93        		.byte	0x93
 7241 0781 01        		.uleb128 0x1
 7242 0782 6F        		.byte	0x6f
 7243 0783 93        		.byte	0x93
 7244 0784 01        		.uleb128 0x1
 7245 0785 2A05 0000 		.long	.LVL140-.Ltext0
 7246 0789 3C05 0000 		.long	.LFE2-.Ltext0
 7247 078d 0600      		.word	0x6
 7248 078f 6E        		.byte	0x6e
 7249 0790 93        		.byte	0x93
 7250 0791 01        		.uleb128 0x1
 7251 0792 6F        		.byte	0x6f
 7252 0793 93        		.byte	0x93
 7253 0794 01        		.uleb128 0x1
 7254 0795 0000 0000 		.long	0x0
 7255 0799 0000 0000 		.long	0x0
 7256               	.LLST53:
 7257 079d DC04 0000 		.long	.LVL130-.Ltext0
 7258 07a1 EC04 0000 		.long	.LVL131-.Ltext0
 7259 07a5 0600      		.word	0x6
 7260 07a7 66        		.byte	0x66
 7261 07a8 93        		.byte	0x93
 7262 07a9 01        		.uleb128 0x1
 7263 07aa 67        		.byte	0x67
 7264 07ab 93        		.byte	0x93
 7265 07ac 01        		.uleb128 0x1
 7266 07ad EC04 0000 		.long	.LVL131-.Ltext0
 7267 07b1 FA04 0000 		.long	.LVL133-.Ltext0
 7268 07b5 0600      		.word	0x6
 7269 07b7 61        		.byte	0x61
 7270 07b8 93        		.byte	0x93
 7271 07b9 01        		.uleb128 0x1
 7272 07ba 67        		.byte	0x67
 7273 07bb 93        		.byte	0x93
 7274 07bc 01        		.uleb128 0x1
 7275 07bd FA04 0000 		.long	.LVL133-.Ltext0
 7276 07c1 2605 0000 		.long	.LVL138-.Ltext0
 7277 07c5 0600      		.word	0x6
 7278 07c7 61        		.byte	0x61
 7279 07c8 93        		.byte	0x93
 7280 07c9 01        		.uleb128 0x1
 7281 07ca 60        		.byte	0x60
 7282 07cb 93        		.byte	0x93
 7283 07cc 01        		.uleb128 0x1
 7284 07cd 2605 0000 		.long	.LVL138-.Ltext0
 7285 07d1 2A05 0000 		.long	.LVL140-.Ltext0
 7286 07d5 0600      		.word	0x6
 7287 07d7 6A        		.byte	0x6a
 7288 07d8 93        		.byte	0x93
 7289 07d9 01        		.uleb128 0x1
 7290 07da 6B        		.byte	0x6b
 7291 07db 93        		.byte	0x93
 7292 07dc 01        		.uleb128 0x1
 7293 07dd 2A05 0000 		.long	.LVL140-.Ltext0
 7294 07e1 3805 0000 		.long	.LVL144-.Ltext0
 7295 07e5 0600      		.word	0x6
 7296 07e7 61        		.byte	0x61
GAS LISTING C:\DOCUME~1\KEUNSO~1\LOCALS~1\Temp/ccWaaqlF.s 			page 129


 7297 07e8 93        		.byte	0x93
 7298 07e9 01        		.uleb128 0x1
 7299 07ea 60        		.byte	0x60
 7300 07eb 93        		.byte	0x93
 7301 07ec 01        		.uleb128 0x1
 7302 07ed 3805 0000 		.long	.LVL144-.Ltext0
 7303 07f1 3C05 0000 		.long	.LFE2-.Ltext0
 7304 07f5 0600      		.word	0x6
 7305 07f7 66        		.byte	0x66
 7306 07f8 93        		.byte	0x93
 7307 07f9 01        		.uleb128 0x1
 7308 07fa 67        		.byte	0x67
 7309 07fb 93        		.byte	0x93
 7310 07fc 01        		.uleb128 0x1
 7311 07fd 0000 0000 		.long	0x0
 7312 0801 0000 0000 		.long	0x0
 7313               	.LLST54:
 7314 0805 DC04 0000 		.long	.LVL130-.Ltext0
 7315 0809 FA04 0000 		.long	.LVL133-.Ltext0
 7316 080d 0600      		.word	0x6
 7317 080f 64        		.byte	0x64
 7318 0810 93        		.byte	0x93
 7319 0811 01        		.uleb128 0x1
 7320 0812 65        		.byte	0x65
 7321 0813 93        		.byte	0x93
 7322 0814 01        		.uleb128 0x1
 7323 0815 FA04 0000 		.long	.LVL133-.Ltext0
 7324 0819 2405 0000 		.long	.LVL137-.Ltext0
 7325 081d 0600      		.word	0x6
 7326 081f 6C        		.byte	0x6c
 7327 0820 93        		.byte	0x93
 7328 0821 01        		.uleb128 0x1
 7329 0822 6D        		.byte	0x6d
 7330 0823 93        		.byte	0x93
 7331 0824 01        		.uleb128 0x1
 7332 0825 2A05 0000 		.long	.LVL140-.Ltext0
 7333 0829 3605 0000 		.long	.LVL143-.Ltext0
 7334 082d 0600      		.word	0x6
 7335 082f 6C        		.byte	0x6c
 7336 0830 93        		.byte	0x93
 7337 0831 01        		.uleb128 0x1
 7338 0832 6D        		.byte	0x6d
 7339 0833 93        		.byte	0x93
 7340 0834 01        		.uleb128 0x1
 7341 0835 3605 0000 		.long	.LVL143-.Ltext0
 7342 0839 3C05 0000 		.long	.LFE2-.Ltext0
 7343 083d 0600      		.word	0x6
 7344 083f 64        		.byte	0x64
 7345 0840 93        		.byte	0x93
 7346 0841 01        		.uleb128 0x1
 7347 0842 65        		.byte	0x65
 7348 0843 93        		.byte	0x93
 7349 0844 01        		.uleb128 0x1
 7350 0845 0000 0000 		.long	0x0
 7351 0849 0000 0000 		.long	0x0
 7352               	.LLST55:
 7353 084d 1A05 0000 		.long	.LVL135-.Ltext0
GAS LISTING C:\DOCUME~1\KEUNSO~1\LOCALS~1\Temp/ccWaaqlF.s 			page 130


 7354 0851 2005 0000 		.long	.LVL136-.Ltext0
 7355 0855 0100      		.word	0x1
 7356 0857 68        		.byte	0x68
 7357 0858 3205 0000 		.long	.LVL141-.Ltext0
 7358 085c 3205 0000 		.long	.LVL142-.Ltext0
 7359 0860 0100      		.word	0x1
 7360 0862 68        		.byte	0x68
 7361 0863 0000 0000 		.long	0x0
 7362 0867 0000 0000 		.long	0x0
 7363               	.LLST57:
 7364 086b 3C05 0000 		.long	.LVL146-.Ltext0
 7365 086f 4405 0000 		.long	.LVL147-.Ltext0
 7366 0873 0600      		.word	0x6
 7367 0875 68        		.byte	0x68
 7368 0876 93        		.byte	0x93
 7369 0877 01        		.uleb128 0x1
 7370 0878 69        		.byte	0x69
 7371 0879 93        		.byte	0x93
 7372 087a 01        		.uleb128 0x1
 7373 087b 4405 0000 		.long	.LVL147-.Ltext0
 7374 087f 9205 0000 		.long	.LFE27-.Ltext0
 7375 0883 0600      		.word	0x6
 7376 0885 62        		.byte	0x62
 7377 0886 93        		.byte	0x93
 7378 0887 01        		.uleb128 0x1
 7379 0888 63        		.byte	0x63
 7380 0889 93        		.byte	0x93
 7381 088a 01        		.uleb128 0x1
 7382 088b 0000 0000 		.long	0x0
 7383 088f 0000 0000 		.long	0x0
 7384               	.LLST58:
 7385 0893 5205 0000 		.long	.LVL148-.Ltext0
 7386 0897 8805 0000 		.long	.LVL150-.Ltext0
 7387 089b 0600      		.word	0x6
 7388 089d 6E        		.byte	0x6e
 7389 089e 93        		.byte	0x93
 7390 089f 01        		.uleb128 0x1
 7391 08a0 6F        		.byte	0x6f
 7392 08a1 93        		.byte	0x93
 7393 08a2 01        		.uleb128 0x1
 7394 08a3 8C05 0000 		.long	.LVL151-.Ltext0
 7395 08a7 9205 0000 		.long	.LFE27-.Ltext0
 7396 08ab 0600      		.word	0x6
 7397 08ad 6E        		.byte	0x6e
 7398 08ae 93        		.byte	0x93
 7399 08af 01        		.uleb128 0x1
 7400 08b0 6F        		.byte	0x6f
 7401 08b1 93        		.byte	0x93
 7402 08b2 01        		.uleb128 0x1
 7403 08b3 0000 0000 		.long	0x0
 7404 08b7 0000 0000 		.long	0x0
 7405               	.LLST60:
 7406 08bb 9205 0000 		.long	.LVL153-.Ltext0
 7407 08bf BA05 0000 		.long	.LVL158-.Ltext0
 7408 08c3 0100      		.word	0x1
 7409 08c5 68        		.byte	0x68
 7410 08c6 BA05 0000 		.long	.LVL158-.Ltext0
GAS LISTING C:\DOCUME~1\KEUNSO~1\LOCALS~1\Temp/ccWaaqlF.s 			page 131


 7411 08ca 5606 0000 		.long	.LVL163-.Ltext0
 7412 08ce 0100      		.word	0x1
 7413 08d0 59        		.byte	0x59
 7414 08d1 5606 0000 		.long	.LVL163-.Ltext0
 7415 08d5 6A06 0000 		.long	.LVL166-.Ltext0
 7416 08d9 0600      		.word	0x6
 7417 08db 6E        		.byte	0x6e
 7418 08dc 93        		.byte	0x93
 7419 08dd 01        		.uleb128 0x1
 7420 08de 6F        		.byte	0x6f
 7421 08df 93        		.byte	0x93
 7422 08e0 01        		.uleb128 0x1
 7423 08e1 A206 0000 		.long	.LVL168-.Ltext0
 7424 08e5 B806 0000 		.long	.LVL173-.Ltext0
 7425 08e9 0100      		.word	0x1
 7426 08eb 59        		.byte	0x59
 7427 08ec BA06 0000 		.long	.LVL174-.Ltext0
 7428 08f0 C006 0000 		.long	.LFE25-.Ltext0
 7429 08f4 0100      		.word	0x1
 7430 08f6 59        		.byte	0x59
 7431 08f7 0000 0000 		.long	0x0
 7432 08fb 0000 0000 		.long	0x0
 7433               	.LLST61:
 7434 08ff 9205 0000 		.long	.LVL153-.Ltext0
 7435 0903 4806 0000 		.long	.LVL162-.Ltext0
 7436 0907 0600      		.word	0x6
 7437 0909 66        		.byte	0x66
 7438 090a 93        		.byte	0x93
 7439 090b 01        		.uleb128 0x1
 7440 090c 67        		.byte	0x67
 7441 090d 93        		.byte	0x93
 7442 090e 01        		.uleb128 0x1
 7443 090f A206 0000 		.long	.LVL168-.Ltext0
 7444 0913 C006 0000 		.long	.LFE25-.Ltext0
 7445 0917 0600      		.word	0x6
 7446 0919 66        		.byte	0x66
 7447 091a 93        		.byte	0x93
 7448 091b 01        		.uleb128 0x1
 7449 091c 67        		.byte	0x67
 7450 091d 93        		.byte	0x93
 7451 091e 01        		.uleb128 0x1
 7452 091f 0000 0000 		.long	0x0
 7453 0923 0000 0000 		.long	0x0
 7454               	.LLST62:
 7455 0927 9205 0000 		.long	.LVL153-.Ltext0
 7456 092b 4806 0000 		.long	.LVL162-.Ltext0
 7457 092f 0600      		.word	0x6
 7458 0931 64        		.byte	0x64
 7459 0932 93        		.byte	0x93
 7460 0933 01        		.uleb128 0x1
 7461 0934 65        		.byte	0x65
 7462 0935 93        		.byte	0x93
 7463 0936 01        		.uleb128 0x1
 7464 0937 A206 0000 		.long	.LVL168-.Ltext0
 7465 093b C006 0000 		.long	.LFE25-.Ltext0
 7466 093f 0600      		.word	0x6
 7467 0941 64        		.byte	0x64
GAS LISTING C:\DOCUME~1\KEUNSO~1\LOCALS~1\Temp/ccWaaqlF.s 			page 132


 7468 0942 93        		.byte	0x93
 7469 0943 01        		.uleb128 0x1
 7470 0944 65        		.byte	0x65
 7471 0945 93        		.byte	0x93
 7472 0946 01        		.uleb128 0x1
 7473 0947 0000 0000 		.long	0x0
 7474 094b 0000 0000 		.long	0x0
 7475               	.LLST63:
 7476 094f 9205 0000 		.long	.LVL153-.Ltext0
 7477 0953 4806 0000 		.long	.LVL162-.Ltext0
 7478 0957 0600      		.word	0x6
 7479 0959 62        		.byte	0x62
 7480 095a 93        		.byte	0x93
 7481 095b 01        		.uleb128 0x1
 7482 095c 63        		.byte	0x63
 7483 095d 93        		.byte	0x93
 7484 095e 01        		.uleb128 0x1
 7485 095f A206 0000 		.long	.LVL168-.Ltext0
 7486 0963 C006 0000 		.long	.LFE25-.Ltext0
 7487 0967 0600      		.word	0x6
 7488 0969 62        		.byte	0x62
 7489 096a 93        		.byte	0x93
 7490 096b 01        		.uleb128 0x1
 7491 096c 63        		.byte	0x63
 7492 096d 93        		.byte	0x93
 7493 096e 01        		.uleb128 0x1
 7494 096f 0000 0000 		.long	0x0
 7495 0973 0000 0000 		.long	0x0
 7496               	.LLST64:
 7497 0977 9205 0000 		.long	.LVL153-.Ltext0
 7498 097b 9E05 0000 		.long	.LVL156-.Ltext0
 7499 097f 0C00      		.word	0xc
 7500 0981 5E        		.byte	0x5e
 7501 0982 93        		.byte	0x93
 7502 0983 01        		.uleb128 0x1
 7503 0984 5F        		.byte	0x5f
 7504 0985 93        		.byte	0x93
 7505 0986 01        		.uleb128 0x1
 7506 0987 60        		.byte	0x60
 7507 0988 93        		.byte	0x93
 7508 0989 01        		.uleb128 0x1
 7509 098a 61        		.byte	0x61
 7510 098b 93        		.byte	0x93
 7511 098c 01        		.uleb128 0x1
 7512 098d E005 0000 		.long	.LVL160-.Ltext0
 7513 0991 AE06 0000 		.long	.LVL170-.Ltext0
 7514 0995 0C00      		.word	0xc
 7515 0997 5E        		.byte	0x5e
 7516 0998 93        		.byte	0x93
 7517 0999 01        		.uleb128 0x1
 7518 099a 5F        		.byte	0x5f
 7519 099b 93        		.byte	0x93
 7520 099c 01        		.uleb128 0x1
 7521 099d 60        		.byte	0x60
 7522 099e 93        		.byte	0x93
 7523 099f 01        		.uleb128 0x1
 7524 09a0 61        		.byte	0x61
GAS LISTING C:\DOCUME~1\KEUNSO~1\LOCALS~1\Temp/ccWaaqlF.s 			page 133


 7525 09a1 93        		.byte	0x93
 7526 09a2 01        		.uleb128 0x1
 7527 09a3 0000 0000 		.long	0x0
 7528 09a7 0000 0000 		.long	0x0
 7529               	.LLST65:
 7530 09ab 9205 0000 		.long	.LVL153-.Ltext0
 7531 09af 9A05 0000 		.long	.LVL155-.Ltext0
 7532 09b3 0600      		.word	0x6
 7533 09b5 5C        		.byte	0x5c
 7534 09b6 93        		.byte	0x93
 7535 09b7 01        		.uleb128 0x1
 7536 09b8 5D        		.byte	0x5d
 7537 09b9 93        		.byte	0x93
 7538 09ba 01        		.uleb128 0x1
 7539 09bb D805 0000 		.long	.LVL159-.Ltext0
 7540 09bf B206 0000 		.long	.LVL171-.Ltext0
 7541 09c3 0600      		.word	0x6
 7542 09c5 5C        		.byte	0x5c
 7543 09c6 93        		.byte	0x93
 7544 09c7 01        		.uleb128 0x1
 7545 09c8 5D        		.byte	0x5d
 7546 09c9 93        		.byte	0x93
 7547 09ca 01        		.uleb128 0x1
 7548 09cb 0000 0000 		.long	0x0
 7549 09cf 0000 0000 		.long	0x0
 7550               	.LLST66:
 7551 09d3 9205 0000 		.long	.LVL153-.Ltext0
 7552 09d7 9605 0000 		.long	.LVL154-.Ltext0
 7553 09db 0600      		.word	0x6
 7554 09dd 5A        		.byte	0x5a
 7555 09de 93        		.byte	0x93
 7556 09df 01        		.uleb128 0x1
 7557 09e0 5B        		.byte	0x5b
 7558 09e1 93        		.byte	0x93
 7559 09e2 01        		.uleb128 0x1
 7560 09e3 E805 0000 		.long	.LVL161-.Ltext0
 7561 09e7 B606 0000 		.long	.LVL172-.Ltext0
 7562 09eb 0600      		.word	0x6
 7563 09ed 5A        		.byte	0x5a
 7564 09ee 93        		.byte	0x93
 7565 09ef 01        		.uleb128 0x1
 7566 09f0 5B        		.byte	0x5b
 7567 09f1 93        		.byte	0x93
 7568 09f2 01        		.uleb128 0x1
 7569 09f3 0000 0000 		.long	0x0
 7570 09f7 0000 0000 		.long	0x0
 7571               	.LLST67:
 7572 09fb B405 0000 		.long	.LVL157-.Ltext0
 7573 09ff A606 0000 		.long	.LVL169-.Ltext0
 7574 0a03 0600      		.word	0x6
 7575 0a05 6C        		.byte	0x6c
 7576 0a06 93        		.byte	0x93
 7577 0a07 01        		.uleb128 0x1
 7578 0a08 6D        		.byte	0x6d
 7579 0a09 93        		.byte	0x93
 7580 0a0a 01        		.uleb128 0x1
 7581 0a0b BA06 0000 		.long	.LVL174-.Ltext0
GAS LISTING C:\DOCUME~1\KEUNSO~1\LOCALS~1\Temp/ccWaaqlF.s 			page 134


 7582 0a0f C006 0000 		.long	.LFE25-.Ltext0
 7583 0a13 0600      		.word	0x6
 7584 0a15 6C        		.byte	0x6c
 7585 0a16 93        		.byte	0x93
 7586 0a17 01        		.uleb128 0x1
 7587 0a18 6D        		.byte	0x6d
 7588 0a19 93        		.byte	0x93
 7589 0a1a 01        		.uleb128 0x1
 7590 0a1b 0000 0000 		.long	0x0
 7591 0a1f 0000 0000 		.long	0x0
 7592               	.LLST69:
 7593 0a23 C006 0000 		.long	.LVL175-.Ltext0
 7594 0a27 D206 0000 		.long	.LVL176-.Ltext0
 7595 0a2b 0600      		.word	0x6
 7596 0a2d 68        		.byte	0x68
 7597 0a2e 93        		.byte	0x93
 7598 0a2f 01        		.uleb128 0x1
 7599 0a30 69        		.byte	0x69
 7600 0a31 93        		.byte	0x93
 7601 0a32 01        		.uleb128 0x1
 7602 0a33 0000 0000 		.long	0x0
 7603 0a37 0000 0000 		.long	0x0
 7604               	.LLST71:
 7605 0a3b 1207 0000 		.long	.LVL177-.Ltext0
 7606 0a3f 1607 0000 		.long	.LVL178-.Ltext0
 7607 0a43 0100      		.word	0x1
 7608 0a45 68        		.byte	0x68
 7609 0a46 1607 0000 		.long	.LVL178-.Ltext0
 7610 0a4a 1C07 0000 		.long	.LVL180-.Ltext0
 7611 0a4e 0600      		.word	0x6
 7612 0a50 6E        		.byte	0x6e
 7613 0a51 93        		.byte	0x93
 7614 0a52 01        		.uleb128 0x1
 7615 0a53 6F        		.byte	0x6f
 7616 0a54 93        		.byte	0x93
 7617 0a55 01        		.uleb128 0x1
 7618 0a56 2407 0000 		.long	.LVL182-.Ltext0
 7619 0a5a 2C07 0000 		.long	.LVL183-.Ltext0
 7620 0a5e 0100      		.word	0x1
 7621 0a60 68        		.byte	0x68
 7622 0a61 0000 0000 		.long	0x0
 7623 0a65 0000 0000 		.long	0x0
 7624               	.LLST73:
 7625 0a69 9807 0000 		.long	.LVL184-.Ltext0
 7626 0a6d A207 0000 		.long	.LVL185-.Ltext0
 7627 0a71 0100      		.word	0x1
 7628 0a73 68        		.byte	0x68
 7629 0a74 A207 0000 		.long	.LVL185-.Ltext0
 7630 0a78 C407 0000 		.long	.LVL189-.Ltext0
 7631 0a7c 0600      		.word	0x6
 7632 0a7e 6E        		.byte	0x6e
 7633 0a7f 93        		.byte	0x93
 7634 0a80 01        		.uleb128 0x1
 7635 0a81 6F        		.byte	0x6f
 7636 0a82 93        		.byte	0x93
 7637 0a83 01        		.uleb128 0x1
 7638 0a84 C407 0000 		.long	.LVL189-.Ltext0
GAS LISTING C:\DOCUME~1\KEUNSO~1\LOCALS~1\Temp/ccWaaqlF.s 			page 135


 7639 0a88 C607 0000 		.long	.LVL190-.Ltext0
 7640 0a8c 0100      		.word	0x1
 7641 0a8e 68        		.byte	0x68
 7642 0a8f C807 0000 		.long	.LVL191-.Ltext0
 7643 0a93 FC07 0000 		.long	.LVL192-.Ltext0
 7644 0a97 0600      		.word	0x6
 7645 0a99 6E        		.byte	0x6e
 7646 0a9a 93        		.byte	0x93
 7647 0a9b 01        		.uleb128 0x1
 7648 0a9c 6F        		.byte	0x6f
 7649 0a9d 93        		.byte	0x93
 7650 0a9e 01        		.uleb128 0x1
 7651 0a9f 0000 0000 		.long	0x0
 7652 0aa3 0000 0000 		.long	0x0
 7653               	.LLST74:
 7654 0aa7 AE07 0000 		.long	.LVL188-.Ltext0
 7655 0aab C407 0000 		.long	.LVL189-.Ltext0
 7656 0aaf 0600      		.word	0x6
 7657 0ab1 6A        		.byte	0x6a
 7658 0ab2 93        		.byte	0x93
 7659 0ab3 01        		.uleb128 0x1
 7660 0ab4 6B        		.byte	0x6b
 7661 0ab5 93        		.byte	0x93
 7662 0ab6 01        		.uleb128 0x1
 7663 0ab7 C807 0000 		.long	.LVL191-.Ltext0
 7664 0abb 1208 0000 		.long	.LVL194-.Ltext0
 7665 0abf 0600      		.word	0x6
 7666 0ac1 6A        		.byte	0x6a
 7667 0ac2 93        		.byte	0x93
 7668 0ac3 01        		.uleb128 0x1
 7669 0ac4 6B        		.byte	0x6b
 7670 0ac5 93        		.byte	0x93
 7671 0ac6 01        		.uleb128 0x1
 7672 0ac7 0000 0000 		.long	0x0
 7673 0acb 0000 0000 		.long	0x0
 7674               	.LLST76:
 7675 0acf 1608 0000 		.long	.LVL195-.Ltext0
 7676 0ad3 6E08 0000 		.long	.LVL202-.Ltext0
 7677 0ad7 0600      		.word	0x6
 7678 0ad9 68        		.byte	0x68
 7679 0ada 93        		.byte	0x93
 7680 0adb 01        		.uleb128 0x1
 7681 0adc 69        		.byte	0x69
 7682 0add 93        		.byte	0x93
 7683 0ade 01        		.uleb128 0x1
 7684 0adf 6E08 0000 		.long	.LVL202-.Ltext0
 7685 0ae3 9A08 0000 		.long	.LVL207-.Ltext0
 7686 0ae7 0600      		.word	0x6
 7687 0ae9 56        		.byte	0x56
 7688 0aea 93        		.byte	0x93
 7689 0aeb 01        		.uleb128 0x1
 7690 0aec 57        		.byte	0x57
 7691 0aed 93        		.byte	0x93
 7692 0aee 01        		.uleb128 0x1
 7693 0aef A408 0000 		.long	.LVL210-.Ltext0
 7694 0af3 2A09 0000 		.long	.LFE33-.Ltext0
 7695 0af7 0600      		.word	0x6
GAS LISTING C:\DOCUME~1\KEUNSO~1\LOCALS~1\Temp/ccWaaqlF.s 			page 136


 7696 0af9 56        		.byte	0x56
 7697 0afa 93        		.byte	0x93
 7698 0afb 01        		.uleb128 0x1
 7699 0afc 57        		.byte	0x57
 7700 0afd 93        		.byte	0x93
 7701 0afe 01        		.uleb128 0x1
 7702 0aff 0000 0000 		.long	0x0
 7703 0b03 0000 0000 		.long	0x0
 7704               	.LLST77:
 7705 0b07 1608 0000 		.long	.LVL195-.Ltext0
 7706 0b0b 7208 0000 		.long	.LVL203-.Ltext0
 7707 0b0f 0600      		.word	0x6
 7708 0b11 66        		.byte	0x66
 7709 0b12 93        		.byte	0x93
 7710 0b13 01        		.uleb128 0x1
 7711 0b14 67        		.byte	0x67
 7712 0b15 93        		.byte	0x93
 7713 0b16 01        		.uleb128 0x1
 7714 0b17 7208 0000 		.long	.LVL203-.Ltext0
 7715 0b1b 9E08 0000 		.long	.LVL208-.Ltext0
 7716 0b1f 0600      		.word	0x6
 7717 0b21 54        		.byte	0x54
 7718 0b22 93        		.byte	0x93
 7719 0b23 01        		.uleb128 0x1
 7720 0b24 55        		.byte	0x55
 7721 0b25 93        		.byte	0x93
 7722 0b26 01        		.uleb128 0x1
 7723 0b27 9E08 0000 		.long	.LVL208-.Ltext0
 7724 0b2b A408 0000 		.long	.LVL210-.Ltext0
 7725 0b2f 0600      		.word	0x6
 7726 0b31 66        		.byte	0x66
 7727 0b32 93        		.byte	0x93
 7728 0b33 01        		.uleb128 0x1
 7729 0b34 67        		.byte	0x67
 7730 0b35 93        		.byte	0x93
 7731 0b36 01        		.uleb128 0x1
 7732 0b37 A408 0000 		.long	.LVL210-.Ltext0
 7733 0b3b 2A09 0000 		.long	.LFE33-.Ltext0
 7734 0b3f 0600      		.word	0x6
 7735 0b41 54        		.byte	0x54
 7736 0b42 93        		.byte	0x93
 7737 0b43 01        		.uleb128 0x1
 7738 0b44 55        		.byte	0x55
 7739 0b45 93        		.byte	0x93
 7740 0b46 01        		.uleb128 0x1
 7741 0b47 0000 0000 		.long	0x0
 7742 0b4b 0000 0000 		.long	0x0
 7743               	.LLST78:
 7744 0b4f 1608 0000 		.long	.LVL195-.Ltext0
 7745 0b53 7208 0000 		.long	.LVL203-.Ltext0
 7746 0b57 0600      		.word	0x6
 7747 0b59 64        		.byte	0x64
 7748 0b5a 93        		.byte	0x93
 7749 0b5b 01        		.uleb128 0x1
 7750 0b5c 65        		.byte	0x65
 7751 0b5d 93        		.byte	0x93
 7752 0b5e 01        		.uleb128 0x1
GAS LISTING C:\DOCUME~1\KEUNSO~1\LOCALS~1\Temp/ccWaaqlF.s 			page 137


 7753 0b5f 7208 0000 		.long	.LVL203-.Ltext0
 7754 0b63 A208 0000 		.long	.LVL209-.Ltext0
 7755 0b67 0600      		.word	0x6
 7756 0b69 52        		.byte	0x52
 7757 0b6a 93        		.byte	0x93
 7758 0b6b 01        		.uleb128 0x1
 7759 0b6c 53        		.byte	0x53
 7760 0b6d 93        		.byte	0x93
 7761 0b6e 01        		.uleb128 0x1
 7762 0b6f A208 0000 		.long	.LVL209-.Ltext0
 7763 0b73 A408 0000 		.long	.LVL210-.Ltext0
 7764 0b77 0600      		.word	0x6
 7765 0b79 64        		.byte	0x64
 7766 0b7a 93        		.byte	0x93
 7767 0b7b 01        		.uleb128 0x1
 7768 0b7c 65        		.byte	0x65
 7769 0b7d 93        		.byte	0x93
 7770 0b7e 01        		.uleb128 0x1
 7771 0b7f A408 0000 		.long	.LVL210-.Ltext0
 7772 0b83 2A09 0000 		.long	.LFE33-.Ltext0
 7773 0b87 0600      		.word	0x6
 7774 0b89 52        		.byte	0x52
 7775 0b8a 93        		.byte	0x93
 7776 0b8b 01        		.uleb128 0x1
 7777 0b8c 53        		.byte	0x53
 7778 0b8d 93        		.byte	0x93
 7779 0b8e 01        		.uleb128 0x1
 7780 0b8f 0000 0000 		.long	0x0
 7781 0b93 0000 0000 		.long	0x0
 7782               	.LLST79:
 7783 0b97 1608 0000 		.long	.LVL195-.Ltext0
 7784 0b9b 5808 0000 		.long	.LVL201-.Ltext0
 7785 0b9f 0100      		.word	0x1
 7786 0ba1 62        		.byte	0x62
 7787 0ba2 5808 0000 		.long	.LVL201-.Ltext0
 7788 0ba6 2A09 0000 		.long	.LFE33-.Ltext0
 7789 0baa 0200      		.word	0x2
 7790 0bac 8C        		.byte	0x8c
 7791 0bad 01        		.sleb128 1
 7792 0bae 0000 0000 		.long	0x0
 7793 0bb2 0000 0000 		.long	0x0
 7794               	.LLST80:
 7795 0bb6 1608 0000 		.long	.LVL195-.Ltext0
 7796 0bba 3408 0000 		.long	.LVL199-.Ltext0
 7797 0bbe 0600      		.word	0x6
 7798 0bc0 60        		.byte	0x60
 7799 0bc1 93        		.byte	0x93
 7800 0bc2 01        		.uleb128 0x1
 7801 0bc3 61        		.byte	0x61
 7802 0bc4 93        		.byte	0x93
 7803 0bc5 01        		.uleb128 0x1
 7804 0bc6 7608 0000 		.long	.LVL204-.Ltext0
 7805 0bca 8608 0000 		.long	.LVL206-.Ltext0
 7806 0bce 0600      		.word	0x6
 7807 0bd0 60        		.byte	0x60
 7808 0bd1 93        		.byte	0x93
 7809 0bd2 01        		.uleb128 0x1
GAS LISTING C:\DOCUME~1\KEUNSO~1\LOCALS~1\Temp/ccWaaqlF.s 			page 138


 7810 0bd3 61        		.byte	0x61
 7811 0bd4 93        		.byte	0x93
 7812 0bd5 01        		.uleb128 0x1
 7813 0bd6 E408 0000 		.long	.LVL214-.Ltext0
 7814 0bda 2A09 0000 		.long	.LFE33-.Ltext0
 7815 0bde 0600      		.word	0x6
 7816 0be0 60        		.byte	0x60
 7817 0be1 93        		.byte	0x93
 7818 0be2 01        		.uleb128 0x1
 7819 0be3 61        		.byte	0x61
 7820 0be4 93        		.byte	0x93
 7821 0be5 01        		.uleb128 0x1
 7822 0be6 0000 0000 		.long	0x0
 7823 0bea 0000 0000 		.long	0x0
 7824               	.LLST81:
 7825 0bee 1608 0000 		.long	.LVL195-.Ltext0
 7826 0bf2 3008 0000 		.long	.LVL198-.Ltext0
 7827 0bf6 0600      		.word	0x6
 7828 0bf8 5E        		.byte	0x5e
 7829 0bf9 93        		.byte	0x93
 7830 0bfa 01        		.uleb128 0x1
 7831 0bfb 5F        		.byte	0x5f
 7832 0bfc 93        		.byte	0x93
 7833 0bfd 01        		.uleb128 0x1
 7834 0bfe B208 0000 		.long	.LVL211-.Ltext0
 7835 0c02 EC08 0000 		.long	.LVL215-.Ltext0
 7836 0c06 0600      		.word	0x6
 7837 0c08 5E        		.byte	0x5e
 7838 0c09 93        		.byte	0x93
 7839 0c0a 01        		.uleb128 0x1
 7840 0c0b 5F        		.byte	0x5f
 7841 0c0c 93        		.byte	0x93
 7842 0c0d 01        		.uleb128 0x1
 7843 0c0e 0000 0000 		.long	0x0
 7844 0c12 0000 0000 		.long	0x0
 7845               	.LLST82:
 7846 0c16 1608 0000 		.long	.LVL195-.Ltext0
 7847 0c1a 2808 0000 		.long	.LVL197-.Ltext0
 7848 0c1e 0C00      		.word	0xc
 7849 0c20 5A        		.byte	0x5a
 7850 0c21 93        		.byte	0x93
 7851 0c22 01        		.uleb128 0x1
 7852 0c23 5B        		.byte	0x5b
 7853 0c24 93        		.byte	0x93
 7854 0c25 01        		.uleb128 0x1
 7855 0c26 5C        		.byte	0x5c
 7856 0c27 93        		.byte	0x93
 7857 0c28 01        		.uleb128 0x1
 7858 0c29 5D        		.byte	0x5d
 7859 0c2a 93        		.byte	0x93
 7860 0c2b 01        		.uleb128 0x1
 7861 0c2c BA08 0000 		.long	.LVL212-.Ltext0
 7862 0c30 F408 0000 		.long	.LVL216-.Ltext0
 7863 0c34 0C00      		.word	0xc
 7864 0c36 5A        		.byte	0x5a
 7865 0c37 93        		.byte	0x93
 7866 0c38 01        		.uleb128 0x1
GAS LISTING C:\DOCUME~1\KEUNSO~1\LOCALS~1\Temp/ccWaaqlF.s 			page 139


 7867 0c39 5B        		.byte	0x5b
 7868 0c3a 93        		.byte	0x93
 7869 0c3b 01        		.uleb128 0x1
 7870 0c3c 5C        		.byte	0x5c
 7871 0c3d 93        		.byte	0x93
 7872 0c3e 01        		.uleb128 0x1
 7873 0c3f 5D        		.byte	0x5d
 7874 0c40 93        		.byte	0x93
 7875 0c41 01        		.uleb128 0x1
 7876 0c42 0000 0000 		.long	0x0
 7877 0c46 0000 0000 		.long	0x0
 7878               	.LLST83:
 7879 0c4a 1608 0000 		.long	.LVL195-.Ltext0
 7880 0c4e 2408 0000 		.long	.LVL196-.Ltext0
 7881 0c52 0600      		.word	0x6
 7882 0c54 58        		.byte	0x58
 7883 0c55 93        		.byte	0x93
 7884 0c56 01        		.uleb128 0x1
 7885 0c57 59        		.byte	0x59
 7886 0c58 93        		.byte	0x93
 7887 0c59 01        		.uleb128 0x1
 7888 0c5a 5408 0000 		.long	.LVL200-.Ltext0
 7889 0c5e 5808 0000 		.long	.LVL201-.Ltext0
 7890 0c62 0600      		.word	0x6
 7891 0c64 58        		.byte	0x58
 7892 0c65 93        		.byte	0x93
 7893 0c66 01        		.uleb128 0x1
 7894 0c67 59        		.byte	0x59
 7895 0c68 93        		.byte	0x93
 7896 0c69 01        		.uleb128 0x1
 7897 0c6a 5808 0000 		.long	.LVL201-.Ltext0
 7898 0c6e 2A09 0000 		.long	.LFE33-.Ltext0
 7899 0c72 0200      		.word	0x2
 7900 0c74 8C        		.byte	0x8c
 7901 0c75 02        		.sleb128 2
 7902 0c76 0000 0000 		.long	0x0
 7903 0c7a 0000 0000 		.long	0x0
 7904               	.LLST84:
 7905 0c7e 1608 0000 		.long	.LVL195-.Ltext0
 7906 0c82 FE08 0000 		.long	.LVL219-.Ltext0
 7907 0c86 0200      		.word	0x2
 7908 0c88 91        		.byte	0x91
 7909 0c89 18        		.sleb128 24
 7910 0c8a FE08 0000 		.long	.LVL219-.Ltext0
 7911 0c8e 2A09 0000 		.long	.LFE33-.Ltext0
 7912 0c92 0200      		.word	0x2
 7913 0c94 8C        		.byte	0x8c
 7914 0c95 18        		.sleb128 24
 7915 0c96 0000 0000 		.long	0x0
 7916 0c9a 0000 0000 		.long	0x0
 7917               	.LLST85:
 7918 0c9e DA08 0000 		.long	.LVL213-.Ltext0
 7919 0ca2 F808 0000 		.long	.LVL217-.Ltext0
 7920 0ca6 0600      		.word	0x6
 7921 0ca8 66        		.byte	0x66
 7922 0ca9 93        		.byte	0x93
 7923 0caa 01        		.uleb128 0x1
GAS LISTING C:\DOCUME~1\KEUNSO~1\LOCALS~1\Temp/ccWaaqlF.s 			page 140


 7924 0cab 67        		.byte	0x67
 7925 0cac 93        		.byte	0x93
 7926 0cad 01        		.uleb128 0x1
 7927 0cae 0000 0000 		.long	0x0
 7928 0cb2 0000 0000 		.long	0x0
 7929               	.LLST86:
 7930 0cb6 7608 0000 		.long	.LVL204-.Ltext0
 7931 0cba 8408 0000 		.long	.LVL205-.Ltext0
 7932 0cbe 0100      		.word	0x1
 7933 0cc0 61        		.byte	0x61
 7934 0cc1 FA08 0000 		.long	.LVL218-.Ltext0
 7935 0cc5 FE08 0000 		.long	.LVL219-.Ltext0
 7936 0cc9 0100      		.word	0x1
 7937 0ccb 61        		.byte	0x61
 7938 0ccc FE08 0000 		.long	.LVL219-.Ltext0
 7939 0cd0 0409 0000 		.long	.LVL220-.Ltext0
 7940 0cd4 0100      		.word	0x1
 7941 0cd6 68        		.byte	0x68
 7942 0cd7 0409 0000 		.long	.LVL220-.Ltext0
 7943 0cdb 1C09 0000 		.long	.LVL221-.Ltext0
 7944 0cdf 0100      		.word	0x1
 7945 0ce1 61        		.byte	0x61
 7946 0ce2 1C09 0000 		.long	.LVL221-.Ltext0
 7947 0ce6 2A09 0000 		.long	.LFE33-.Ltext0
 7948 0cea 0100      		.word	0x1
 7949 0cec 68        		.byte	0x68
 7950 0ced 0000 0000 		.long	0x0
 7951 0cf1 0000 0000 		.long	0x0
 7952               	.LLST88:
 7953 0cf5 2A09 0000 		.long	.LVL222-.Ltext0
 7954 0cf9 5609 0000 		.long	.LVL223-.Ltext0
 7955 0cfd 0600      		.word	0x6
 7956 0cff 68        		.byte	0x68
 7957 0d00 93        		.byte	0x93
 7958 0d01 01        		.uleb128 0x1
 7959 0d02 69        		.byte	0x69
 7960 0d03 93        		.byte	0x93
 7961 0d04 01        		.uleb128 0x1
 7962 0d05 5609 0000 		.long	.LVL223-.Ltext0
 7963 0d09 8C09 0000 		.long	.LVL228-.Ltext0
 7964 0d0d 0600      		.word	0x6
 7965 0d0f 6E        		.byte	0x6e
 7966 0d10 93        		.byte	0x93
 7967 0d11 01        		.uleb128 0x1
 7968 0d12 6F        		.byte	0x6f
 7969 0d13 93        		.byte	0x93
 7970 0d14 01        		.uleb128 0x1
 7971 0d15 0000 0000 		.long	0x0
 7972 0d19 0000 0000 		.long	0x0
 7973               	.LLST89:
 7974 0d1d 2A09 0000 		.long	.LVL222-.Ltext0
 7975 0d21 8C09 0000 		.long	.LVL228-.Ltext0
 7976 0d25 0600      		.word	0x6
 7977 0d27 66        		.byte	0x66
 7978 0d28 93        		.byte	0x93
 7979 0d29 01        		.uleb128 0x1
 7980 0d2a 67        		.byte	0x67
GAS LISTING C:\DOCUME~1\KEUNSO~1\LOCALS~1\Temp/ccWaaqlF.s 			page 141


 7981 0d2b 93        		.byte	0x93
 7982 0d2c 01        		.uleb128 0x1
 7983 0d2d 0000 0000 		.long	0x0
 7984 0d31 0000 0000 		.long	0x0
 7985               	.LLST90:
 7986 0d35 2A09 0000 		.long	.LVL222-.Ltext0
 7987 0d39 8C09 0000 		.long	.LVL228-.Ltext0
 7988 0d3d 0600      		.word	0x6
 7989 0d3f 64        		.byte	0x64
 7990 0d40 93        		.byte	0x93
 7991 0d41 01        		.uleb128 0x1
 7992 0d42 65        		.byte	0x65
 7993 0d43 93        		.byte	0x93
 7994 0d44 01        		.uleb128 0x1
 7995 0d45 0000 0000 		.long	0x0
 7996 0d49 0000 0000 		.long	0x0
 7997               	.LLST91:
 7998 0d4d 2A09 0000 		.long	.LVL222-.Ltext0
 7999 0d51 8809 0000 		.long	.LVL227-.Ltext0
 8000 0d55 0100      		.word	0x1
 8001 0d57 62        		.byte	0x62
 8002 0d58 8809 0000 		.long	.LVL227-.Ltext0
 8003 0d5c B009 0000 		.long	.LVL231-.Ltext0
 8004 0d60 0100      		.word	0x1
 8005 0d62 61        		.byte	0x61
 8006 0d63 0000 0000 		.long	0x0
 8007 0d67 0000 0000 		.long	0x0
 8008               	.LLST92:
 8009 0d6b 9009 0000 		.long	.LVL229-.Ltext0
 8010 0d6f AE09 0000 		.long	.LVL230-.Ltext0
 8011 0d73 0600      		.word	0x6
 8012 0d75 66        		.byte	0x66
 8013 0d76 93        		.byte	0x93
 8014 0d77 01        		.uleb128 0x1
 8015 0d78 67        		.byte	0x67
 8016 0d79 93        		.byte	0x93
 8017 0d7a 01        		.uleb128 0x1
 8018 0d7b 0000 0000 		.long	0x0
 8019 0d7f 0000 0000 		.long	0x0
 8020               	.LLST93:
 8021 0d83 5E09 0000 		.long	.LVL224-.Ltext0
 8022 0d87 6609 0000 		.long	.LVL225-.Ltext0
 8023 0d8b 0100      		.word	0x1
 8024 0d8d 61        		.byte	0x61
 8025 0d8e B009 0000 		.long	.LVL231-.Ltext0
 8026 0d92 B409 0000 		.long	.LVL232-.Ltext0
 8027 0d96 0100      		.word	0x1
 8028 0d98 61        		.byte	0x61
 8029 0d99 B409 0000 		.long	.LVL232-.Ltext0
 8030 0d9d BA09 0000 		.long	.LVL233-.Ltext0
 8031 0da1 0100      		.word	0x1
 8032 0da3 68        		.byte	0x68
 8033 0da4 BA09 0000 		.long	.LVL233-.Ltext0
 8034 0da8 D009 0000 		.long	.LVL234-.Ltext0
 8035 0dac 0100      		.word	0x1
 8036 0dae 61        		.byte	0x61
 8037 0daf D009 0000 		.long	.LVL234-.Ltext0
GAS LISTING C:\DOCUME~1\KEUNSO~1\LOCALS~1\Temp/ccWaaqlF.s 			page 142


 8038 0db3 DA09 0000 		.long	.LFE32-.Ltext0
 8039 0db7 0100      		.word	0x1
 8040 0db9 68        		.byte	0x68
 8041 0dba 0000 0000 		.long	0x0
 8042 0dbe 0000 0000 		.long	0x0
 8043               	.LLST95:
 8044 0dc2 DA09 0000 		.long	.LVL235-.Ltext0
 8045 0dc6 E009 0000 		.long	.LVL236-.Ltext0
 8046 0dca 0600      		.word	0x6
 8047 0dcc 68        		.byte	0x68
 8048 0dcd 93        		.byte	0x93
 8049 0dce 01        		.uleb128 0x1
 8050 0dcf 69        		.byte	0x69
 8051 0dd0 93        		.byte	0x93
 8052 0dd1 01        		.uleb128 0x1
 8053 0dd2 E009 0000 		.long	.LVL236-.Ltext0
 8054 0dd6 1C0A 0000 		.long	.LVL237-.Ltext0
 8055 0dda 0600      		.word	0x6
 8056 0ddc 6E        		.byte	0x6e
 8057 0ddd 93        		.byte	0x93
 8058 0dde 01        		.uleb128 0x1
 8059 0ddf 6F        		.byte	0x6f
 8060 0de0 93        		.byte	0x93
 8061 0de1 01        		.uleb128 0x1
 8062 0de2 0000 0000 		.long	0x0
 8063 0de6 0000 0000 		.long	0x0
 8064               	.LLST97:
 8065 0dea 260A 0000 		.long	.LVL238-.Ltext0
 8066 0dee 3A0A 0000 		.long	.LVL239-.Ltext0
 8067 0df2 0600      		.word	0x6
 8068 0df4 68        		.byte	0x68
 8069 0df5 93        		.byte	0x93
 8070 0df6 01        		.uleb128 0x1
 8071 0df7 69        		.byte	0x69
 8072 0df8 93        		.byte	0x93
 8073 0df9 01        		.uleb128 0x1
 8074 0dfa 3A0A 0000 		.long	.LVL239-.Ltext0
 8075 0dfe 500A 0000 		.long	.LVL241-.Ltext0
 8076 0e02 0600      		.word	0x6
 8077 0e04 6C        		.byte	0x6c
 8078 0e05 93        		.byte	0x93
 8079 0e06 01        		.uleb128 0x1
 8080 0e07 6D        		.byte	0x6d
 8081 0e08 93        		.byte	0x93
 8082 0e09 01        		.uleb128 0x1
 8083 0e0a 560A 0000 		.long	.LVL243-.Ltext0
 8084 0e0e 620A 0000 		.long	.LVL244-.Ltext0
 8085 0e12 0600      		.word	0x6
 8086 0e14 6C        		.byte	0x6c
 8087 0e15 93        		.byte	0x93
 8088 0e16 01        		.uleb128 0x1
 8089 0e17 6D        		.byte	0x6d
 8090 0e18 93        		.byte	0x93
 8091 0e19 01        		.uleb128 0x1
 8092 0e1a 680A 0000 		.long	.LVL246-.Ltext0
 8093 0e1e 840A 0000 		.long	.LVL247-.Ltext0
 8094 0e22 0600      		.word	0x6
GAS LISTING C:\DOCUME~1\KEUNSO~1\LOCALS~1\Temp/ccWaaqlF.s 			page 143


 8095 0e24 6C        		.byte	0x6c
 8096 0e25 93        		.byte	0x93
 8097 0e26 01        		.uleb128 0x1
 8098 0e27 6D        		.byte	0x6d
 8099 0e28 93        		.byte	0x93
 8100 0e29 01        		.uleb128 0x1
 8101 0e2a 8A0A 0000 		.long	.LVL249-.Ltext0
 8102 0e2e DC0A 0000 		.long	.LFE29-.Ltext0
 8103 0e32 0600      		.word	0x6
 8104 0e34 6C        		.byte	0x6c
 8105 0e35 93        		.byte	0x93
 8106 0e36 01        		.uleb128 0x1
 8107 0e37 6D        		.byte	0x6d
 8108 0e38 93        		.byte	0x93
 8109 0e39 01        		.uleb128 0x1
 8110 0e3a 0000 0000 		.long	0x0
 8111 0e3e 0000 0000 		.long	0x0
 8112               	.LLST98:
 8113 0e42 260A 0000 		.long	.LVL238-.Ltext0
 8114 0e46 A40A 0000 		.long	.LVL250-.Ltext0
 8115 0e4a 0600      		.word	0x6
 8116 0e4c 66        		.byte	0x66
 8117 0e4d 93        		.byte	0x93
 8118 0e4e 01        		.uleb128 0x1
 8119 0e4f 67        		.byte	0x67
 8120 0e50 93        		.byte	0x93
 8121 0e51 01        		.uleb128 0x1
 8122 0e52 0000 0000 		.long	0x0
 8123 0e56 0000 0000 		.long	0x0
 8124               	.LLST99:
 8125 0e5a 260A 0000 		.long	.LVL238-.Ltext0
 8126 0e5e 3E0A 0000 		.long	.LVL240-.Ltext0
 8127 0e62 0600      		.word	0x6
 8128 0e64 64        		.byte	0x64
 8129 0e65 93        		.byte	0x93
 8130 0e66 01        		.uleb128 0x1
 8131 0e67 65        		.byte	0x65
 8132 0e68 93        		.byte	0x93
 8133 0e69 01        		.uleb128 0x1
 8134 0e6a 3E0A 0000 		.long	.LVL240-.Ltext0
 8135 0e6e 540A 0000 		.long	.LVL242-.Ltext0
 8136 0e72 0600      		.word	0x6
 8137 0e74 60        		.byte	0x60
 8138 0e75 93        		.byte	0x93
 8139 0e76 01        		.uleb128 0x1
 8140 0e77 61        		.byte	0x61
 8141 0e78 93        		.byte	0x93
 8142 0e79 01        		.uleb128 0x1
 8143 0e7a 540A 0000 		.long	.LVL242-.Ltext0
 8144 0e7e 560A 0000 		.long	.LVL243-.Ltext0
 8145 0e82 0600      		.word	0x6
 8146 0e84 64        		.byte	0x64
 8147 0e85 93        		.byte	0x93
 8148 0e86 01        		.uleb128 0x1
 8149 0e87 65        		.byte	0x65
 8150 0e88 93        		.byte	0x93
 8151 0e89 01        		.uleb128 0x1
GAS LISTING C:\DOCUME~1\KEUNSO~1\LOCALS~1\Temp/ccWaaqlF.s 			page 144


 8152 0e8a 560A 0000 		.long	.LVL243-.Ltext0
 8153 0e8e 660A 0000 		.long	.LVL245-.Ltext0
 8154 0e92 0600      		.word	0x6
 8155 0e94 60        		.byte	0x60
 8156 0e95 93        		.byte	0x93
 8157 0e96 01        		.uleb128 0x1
 8158 0e97 61        		.byte	0x61
 8159 0e98 93        		.byte	0x93
 8160 0e99 01        		.uleb128 0x1
 8161 0e9a 660A 0000 		.long	.LVL245-.Ltext0
 8162 0e9e 680A 0000 		.long	.LVL246-.Ltext0
 8163 0ea2 0600      		.word	0x6
 8164 0ea4 64        		.byte	0x64
 8165 0ea5 93        		.byte	0x93
 8166 0ea6 01        		.uleb128 0x1
 8167 0ea7 65        		.byte	0x65
 8168 0ea8 93        		.byte	0x93
 8169 0ea9 01        		.uleb128 0x1
 8170 0eaa 680A 0000 		.long	.LVL246-.Ltext0
 8171 0eae 880A 0000 		.long	.LVL248-.Ltext0
 8172 0eb2 0600      		.word	0x6
 8173 0eb4 60        		.byte	0x60
 8174 0eb5 93        		.byte	0x93
 8175 0eb6 01        		.uleb128 0x1
 8176 0eb7 61        		.byte	0x61
 8177 0eb8 93        		.byte	0x93
 8178 0eb9 01        		.uleb128 0x1
 8179 0eba 880A 0000 		.long	.LVL248-.Ltext0
 8180 0ebe 8A0A 0000 		.long	.LVL249-.Ltext0
 8181 0ec2 0600      		.word	0x6
 8182 0ec4 64        		.byte	0x64
 8183 0ec5 93        		.byte	0x93
 8184 0ec6 01        		.uleb128 0x1
 8185 0ec7 65        		.byte	0x65
 8186 0ec8 93        		.byte	0x93
 8187 0ec9 01        		.uleb128 0x1
 8188 0eca 8A0A 0000 		.long	.LVL249-.Ltext0
 8189 0ece DC0A 0000 		.long	.LFE29-.Ltext0
 8190 0ed2 0600      		.word	0x6
 8191 0ed4 60        		.byte	0x60
 8192 0ed5 93        		.byte	0x93
 8193 0ed6 01        		.uleb128 0x1
 8194 0ed7 61        		.byte	0x61
 8195 0ed8 93        		.byte	0x93
 8196 0ed9 01        		.uleb128 0x1
 8197 0eda 0000 0000 		.long	0x0
 8198 0ede 0000 0000 		.long	0x0
 8199               	.LLST101:
 8200 0ee2 120B 0000 		.long	.LVL251-.Ltext0
 8201 0ee6 140B 0000 		.long	.LVL252-.Ltext0
 8202 0eea 0600      		.word	0x6
 8203 0eec 6A        		.byte	0x6a
 8204 0eed 93        		.byte	0x93
 8205 0eee 01        		.uleb128 0x1
 8206 0eef 6B        		.byte	0x6b
 8207 0ef0 93        		.byte	0x93
 8208 0ef1 01        		.uleb128 0x1
GAS LISTING C:\DOCUME~1\KEUNSO~1\LOCALS~1\Temp/ccWaaqlF.s 			page 145


 8209 0ef2 1C0B 0000 		.long	.LVL253-.Ltext0
 8210 0ef6 9A0B 0000 		.long	.LFE9-.Ltext0
 8211 0efa 0600      		.word	0x6
 8212 0efc 6A        		.byte	0x6a
 8213 0efd 93        		.byte	0x93
 8214 0efe 01        		.uleb128 0x1
 8215 0eff 6B        		.byte	0x6b
 8216 0f00 93        		.byte	0x93
 8217 0f01 01        		.uleb128 0x1
 8218 0f02 0000 0000 		.long	0x0
 8219 0f06 0000 0000 		.long	0x0
 8220               	.LLST103:
 8221 0f0a AE0B 0000 		.long	.LVL254-.Ltext0
 8222 0f0e B20B 0000 		.long	.LVL255-.Ltext0
 8223 0f12 0100      		.word	0x1
 8224 0f14 6A        		.byte	0x6a
 8225 0f15 B20B 0000 		.long	.LVL255-.Ltext0
 8226 0f19 B80B 0000 		.long	.LVL257-.Ltext0
 8227 0f1d 0600      		.word	0x6
 8228 0f1f 6E        		.byte	0x6e
 8229 0f20 93        		.byte	0x93
 8230 0f21 01        		.uleb128 0x1
 8231 0f22 6F        		.byte	0x6f
 8232 0f23 93        		.byte	0x93
 8233 0f24 01        		.uleb128 0x1
 8234 0f25 C40B 0000 		.long	.LVL259-.Ltext0
 8235 0f29 F40B 0000 		.long	.LFE7-.Ltext0
 8236 0f2d 0100      		.word	0x1
 8237 0f2f 6A        		.byte	0x6a
 8238 0f30 0000 0000 		.long	0x0
 8239 0f34 0000 0000 		.long	0x0
 8240               	.LLST106:
 8241 0f38 C40C 0000 		.long	.LVL260-.Ltext0
 8242 0f3c 0A0D 0000 		.long	.LVL262-.Ltext0
 8243 0f40 0C00      		.word	0xc
 8244 0f42 5E        		.byte	0x5e
 8245 0f43 93        		.byte	0x93
 8246 0f44 01        		.uleb128 0x1
 8247 0f45 5F        		.byte	0x5f
 8248 0f46 93        		.byte	0x93
 8249 0f47 01        		.uleb128 0x1
 8250 0f48 60        		.byte	0x60
 8251 0f49 93        		.byte	0x93
 8252 0f4a 01        		.uleb128 0x1
 8253 0f4b 61        		.byte	0x61
 8254 0f4c 93        		.byte	0x93
 8255 0f4d 01        		.uleb128 0x1
 8256 0f4e 0C0D 0000 		.long	.LVL263-.Ltext0
 8257 0f52 760D 0000 		.long	.LFE24-.Ltext0
 8258 0f56 0C00      		.word	0xc
 8259 0f58 5E        		.byte	0x5e
 8260 0f59 93        		.byte	0x93
 8261 0f5a 01        		.uleb128 0x1
 8262 0f5b 5F        		.byte	0x5f
 8263 0f5c 93        		.byte	0x93
 8264 0f5d 01        		.uleb128 0x1
 8265 0f5e 60        		.byte	0x60
GAS LISTING C:\DOCUME~1\KEUNSO~1\LOCALS~1\Temp/ccWaaqlF.s 			page 146


 8266 0f5f 93        		.byte	0x93
 8267 0f60 01        		.uleb128 0x1
 8268 0f61 61        		.byte	0x61
 8269 0f62 93        		.byte	0x93
 8270 0f63 01        		.uleb128 0x1
 8271 0f64 0000 0000 		.long	0x0
 8272 0f68 0000 0000 		.long	0x0
 8273               	.LLST107:
 8274 0f6c C40C 0000 		.long	.LVL260-.Ltext0
 8275 0f70 020D 0000 		.long	.LVL261-.Ltext0
 8276 0f74 0600      		.word	0x6
 8277 0f76 6C        		.byte	0x6c
 8278 0f77 93        		.byte	0x93
 8279 0f78 01        		.uleb128 0x1
 8280 0f79 6D        		.byte	0x6d
 8281 0f7a 93        		.byte	0x93
 8282 0f7b 01        		.uleb128 0x1
 8283 0f7c 0C0D 0000 		.long	.LVL263-.Ltext0
 8284 0f80 760D 0000 		.long	.LFE24-.Ltext0
 8285 0f84 0600      		.word	0x6
 8286 0f86 6C        		.byte	0x6c
 8287 0f87 93        		.byte	0x93
 8288 0f88 01        		.uleb128 0x1
 8289 0f89 6D        		.byte	0x6d
 8290 0f8a 93        		.byte	0x93
 8291 0f8b 01        		.uleb128 0x1
 8292 0f8c 0000 0000 		.long	0x0
 8293 0f90 0000 0000 		.long	0x0
 8294               	.LLST109:
 8295 0f94 760D 0000 		.long	.LVL264-.Ltext0
 8296 0f98 900D 0000 		.long	.LVL265-.Ltext0
 8297 0f9c 0600      		.word	0x6
 8298 0f9e 68        		.byte	0x68
 8299 0f9f 93        		.byte	0x93
 8300 0fa0 01        		.uleb128 0x1
 8301 0fa1 69        		.byte	0x69
 8302 0fa2 93        		.byte	0x93
 8303 0fa3 01        		.uleb128 0x1
 8304 0fa4 900D 0000 		.long	.LVL265-.Ltext0
 8305 0fa8 AA0D 0000 		.long	.LVL270-.Ltext0
 8306 0fac 0600      		.word	0x6
 8307 0fae 6C        		.byte	0x6c
 8308 0faf 93        		.byte	0x93
 8309 0fb0 01        		.uleb128 0x1
 8310 0fb1 6D        		.byte	0x6d
 8311 0fb2 93        		.byte	0x93
 8312 0fb3 01        		.uleb128 0x1
 8313 0fb4 B60D 0000 		.long	.LVL272-.Ltext0
 8314 0fb8 040F 0000 		.long	.LFE28-.Ltext0
 8315 0fbc 0600      		.word	0x6
 8316 0fbe 6C        		.byte	0x6c
 8317 0fbf 93        		.byte	0x93
 8318 0fc0 01        		.uleb128 0x1
 8319 0fc1 6D        		.byte	0x6d
 8320 0fc2 93        		.byte	0x93
 8321 0fc3 01        		.uleb128 0x1
 8322 0fc4 0000 0000 		.long	0x0
GAS LISTING C:\DOCUME~1\KEUNSO~1\LOCALS~1\Temp/ccWaaqlF.s 			page 147


 8323 0fc8 0000 0000 		.long	0x0
 8324               	.LLST110:
 8325 0fcc 760D 0000 		.long	.LVL264-.Ltext0
 8326 0fd0 0A0E 0000 		.long	.LVL275-.Ltext0
 8327 0fd4 0100      		.word	0x1
 8328 0fd6 66        		.byte	0x66
 8329 0fd7 8E0E 0000 		.long	.LVL285-.Ltext0
 8330 0fdb D20E 0000 		.long	.LVL288-.Ltext0
 8331 0fdf 0100      		.word	0x1
 8332 0fe1 66        		.byte	0x66
 8333 0fe2 D40E 0000 		.long	.LVL289-.Ltext0
 8334 0fe6 040F 0000 		.long	.LFE28-.Ltext0
 8335 0fea 0100      		.word	0x1
 8336 0fec 66        		.byte	0x66
 8337 0fed 0000 0000 		.long	0x0
 8338 0ff1 0000 0000 		.long	0x0
 8339               	.LLST111:
 8340 0ff5 760D 0000 		.long	.LVL264-.Ltext0
 8341 0ff9 940D 0000 		.long	.LVL266-.Ltext0
 8342 0ffd 0600      		.word	0x6
 8343 0fff 64        		.byte	0x64
 8344 1000 93        		.byte	0x93
 8345 1001 01        		.uleb128 0x1
 8346 1002 65        		.byte	0x65
 8347 1003 93        		.byte	0x93
 8348 1004 01        		.uleb128 0x1
 8349 1005 940D 0000 		.long	.LVL266-.Ltext0
 8350 1009 A20D 0000 		.long	.LVL267-.Ltext0
 8351 100d 0600      		.word	0x6
 8352 100f 60        		.byte	0x60
 8353 1010 93        		.byte	0x93
 8354 1011 01        		.uleb128 0x1
 8355 1012 61        		.byte	0x61
 8356 1013 93        		.byte	0x93
 8357 1014 01        		.uleb128 0x1
 8358 1015 A20D 0000 		.long	.LVL267-.Ltext0
 8359 1019 B60D 0000 		.long	.LVL272-.Ltext0
 8360 101d 0600      		.word	0x6
 8361 101f 64        		.byte	0x64
 8362 1020 93        		.byte	0x93
 8363 1021 01        		.uleb128 0x1
 8364 1022 65        		.byte	0x65
 8365 1023 93        		.byte	0x93
 8366 1024 01        		.uleb128 0x1
 8367 1025 B60D 0000 		.long	.LVL272-.Ltext0
 8368 1029 040F 0000 		.long	.LFE28-.Ltext0
 8369 102d 0600      		.word	0x6
 8370 102f 60        		.byte	0x60
 8371 1030 93        		.byte	0x93
 8372 1031 01        		.uleb128 0x1
 8373 1032 61        		.byte	0x61
 8374 1033 93        		.byte	0x93
 8375 1034 01        		.uleb128 0x1
 8376 1035 0000 0000 		.long	0x0
 8377 1039 0000 0000 		.long	0x0
 8378               	.LLST112:
 8379 103d F80D 0000 		.long	.LVL273-.Ltext0
GAS LISTING C:\DOCUME~1\KEUNSO~1\LOCALS~1\Temp/ccWaaqlF.s 			page 148


 8380 1041 000E 0000 		.long	.LVL274-.Ltext0
 8381 1045 0600      		.word	0x6
 8382 1047 6E        		.byte	0x6e
 8383 1048 93        		.byte	0x93
 8384 1049 01        		.uleb128 0x1
 8385 104a 6F        		.byte	0x6f
 8386 104b 93        		.byte	0x93
 8387 104c 01        		.uleb128 0x1
 8388 104d 680E 0000 		.long	.LVL282-.Ltext0
 8389 1051 800E 0000 		.long	.LVL283-.Ltext0
 8390 1055 0600      		.word	0x6
 8391 1057 6E        		.byte	0x6e
 8392 1058 93        		.byte	0x93
 8393 1059 01        		.uleb128 0x1
 8394 105a 6F        		.byte	0x6f
 8395 105b 93        		.byte	0x93
 8396 105c 01        		.uleb128 0x1
 8397 105d 8A0E 0000 		.long	.LVL284-.Ltext0
 8398 1061 C60E 0000 		.long	.LVL286-.Ltext0
 8399 1065 0600      		.word	0x6
 8400 1067 6E        		.byte	0x6e
 8401 1068 93        		.byte	0x93
 8402 1069 01        		.uleb128 0x1
 8403 106a 6F        		.byte	0x6f
 8404 106b 93        		.byte	0x93
 8405 106c 01        		.uleb128 0x1
 8406 106d CE0E 0000 		.long	.LVL287-.Ltext0
 8407 1071 D20E 0000 		.long	.LVL288-.Ltext0
 8408 1075 0600      		.word	0x6
 8409 1077 6E        		.byte	0x6e
 8410 1078 93        		.byte	0x93
 8411 1079 01        		.uleb128 0x1
 8412 107a 6F        		.byte	0x6f
 8413 107b 93        		.byte	0x93
 8414 107c 01        		.uleb128 0x1
 8415 107d 0000 0000 		.long	0x0
 8416 1081 0000 0000 		.long	0x0
 8417               	.LLST113:
 8418 1085 2E0E 0000 		.long	.LVL276-.Ltext0
 8419 1089 320E 0000 		.long	.LVL277-.Ltext0
 8420 108d 0100      		.word	0x1
 8421 108f 62        		.byte	0x62
 8422 1090 320E 0000 		.long	.LVL277-.Ltext0
 8423 1094 560E 0000 		.long	.LVL279-.Ltext0
 8424 1098 0600      		.word	0x6
 8425 109a 6E        		.byte	0x6e
 8426 109b 93        		.byte	0x93
 8427 109c 01        		.uleb128 0x1
 8428 109d 6F        		.byte	0x6f
 8429 109e 93        		.byte	0x93
 8430 109f 01        		.uleb128 0x1
 8431 10a0 560E 0000 		.long	.LVL279-.Ltext0
 8432 10a4 5A0E 0000 		.long	.LVL280-.Ltext0
 8433 10a8 0600      		.word	0x6
 8434 10aa 62        		.byte	0x62
 8435 10ab 93        		.byte	0x93
 8436 10ac 01        		.uleb128 0x1
GAS LISTING C:\DOCUME~1\KEUNSO~1\LOCALS~1\Temp/ccWaaqlF.s 			page 149


 8437 10ad 6F        		.byte	0x6f
 8438 10ae 93        		.byte	0x93
 8439 10af 01        		.uleb128 0x1
 8440 10b0 5A0E 0000 		.long	.LVL280-.Ltext0
 8441 10b4 5E0E 0000 		.long	.LVL281-.Ltext0
 8442 10b8 0100      		.word	0x1
 8443 10ba 62        		.byte	0x62
 8444 10bb 0000 0000 		.long	0x0
 8445 10bf 0000 0000 		.long	0x0
 8446               	.LLST114:
 8447 10c3 A20D 0000 		.long	.LVL267-.Ltext0
 8448 10c7 B60D 0000 		.long	.LVL272-.Ltext0
 8449 10cb 0100      		.word	0x1
 8450 10cd 64        		.byte	0x64
 8451 10ce F80D 0000 		.long	.LVL273-.Ltext0
 8452 10d2 D20E 0000 		.long	.LVL288-.Ltext0
 8453 10d6 0100      		.word	0x1
 8454 10d8 64        		.byte	0x64
 8455 10d9 0000 0000 		.long	0x0
 8456 10dd 0000 0000 		.long	0x0
 8457               	.LLST115:
 8458 10e1 A20D 0000 		.long	.LVL267-.Ltext0
 8459 10e5 B60D 0000 		.long	.LVL272-.Ltext0
 8460 10e9 0100      		.word	0x1
 8461 10eb 65        		.byte	0x65
 8462 10ec F80D 0000 		.long	.LVL273-.Ltext0
 8463 10f0 D20E 0000 		.long	.LVL288-.Ltext0
 8464 10f4 0100      		.word	0x1
 8465 10f6 65        		.byte	0x65
 8466 10f7 0000 0000 		.long	0x0
 8467 10fb 0000 0000 		.long	0x0
 8468               	.LLST116:
 8469 10ff A20D 0000 		.long	.LVL267-.Ltext0
 8470 1103 B00D 0000 		.long	.LVL271-.Ltext0
 8471 1107 0100      		.word	0x1
 8472 1109 5F        		.byte	0x5f
 8473 110a F80D 0000 		.long	.LVL273-.Ltext0
 8474 110e D40E 0000 		.long	.LVL289-.Ltext0
 8475 1112 0100      		.word	0x1
 8476 1114 5F        		.byte	0x5f
 8477 1115 0000 0000 		.long	0x0
 8478 1119 0000 0000 		.long	0x0
 8479               	.LLST118:
 8480 111d B011 0000 		.long	.LVL290-.Ltext0
 8481 1121 D211 0000 		.long	.LVL291-.Ltext0
 8482 1125 0600      		.word	0x6
 8483 1127 66        		.byte	0x66
 8484 1128 93        		.byte	0x93
 8485 1129 01        		.uleb128 0x1
 8486 112a 67        		.byte	0x67
 8487 112b 93        		.byte	0x93
 8488 112c 01        		.uleb128 0x1
 8489 112d 0000 0000 		.long	0x0
 8490 1131 0000 0000 		.long	0x0
 8491               	.LLST119:
 8492 1135 3012 0000 		.long	.LVL292-.Ltext0
 8493 1139 5212 0000 		.long	.LVL293-.Ltext0
GAS LISTING C:\DOCUME~1\KEUNSO~1\LOCALS~1\Temp/ccWaaqlF.s 			page 150


 8494 113d 0600      		.word	0x6
 8495 113f 66        		.byte	0x66
 8496 1140 93        		.byte	0x93
 8497 1141 01        		.uleb128 0x1
 8498 1142 67        		.byte	0x67
 8499 1143 93        		.byte	0x93
 8500 1144 01        		.uleb128 0x1
 8501 1145 0000 0000 		.long	0x0
 8502 1149 0000 0000 		.long	0x0
 8503               	.LLST121:
 8504 114d 9012 0000 		.long	.LVL294-.Ltext0
 8505 1151 AE12 0000 		.long	.LVL295-.Ltext0
 8506 1155 0600      		.word	0x6
 8507 1157 68        		.byte	0x68
 8508 1158 93        		.byte	0x93
 8509 1159 01        		.uleb128 0x1
 8510 115a 69        		.byte	0x69
 8511 115b 93        		.byte	0x93
 8512 115c 01        		.uleb128 0x1
 8513 115d 0000 0000 		.long	0x0
 8514 1161 0000 0000 		.long	0x0
 8515               	.LLST122:
 8516 1165 1414 0000 		.long	.LVL308-.Ltext0
 8517 1169 3E14 0000 		.long	.LVL310-.Ltext0
 8518 116d 0C00      		.word	0xc
 8519 116f 66        		.byte	0x66
 8520 1170 93        		.byte	0x93
 8521 1171 01        		.uleb128 0x1
 8522 1172 67        		.byte	0x67
 8523 1173 93        		.byte	0x93
 8524 1174 01        		.uleb128 0x1
 8525 1175 68        		.byte	0x68
 8526 1176 93        		.byte	0x93
 8527 1177 01        		.uleb128 0x1
 8528 1178 69        		.byte	0x69
 8529 1179 93        		.byte	0x93
 8530 117a 01        		.uleb128 0x1
 8531 117b DC15 0000 		.long	.LVL325-.Ltext0
 8532 117f F015 0000 		.long	.LVL326-.Ltext0
 8533 1183 0C00      		.word	0xc
 8534 1185 66        		.byte	0x66
 8535 1186 93        		.byte	0x93
 8536 1187 01        		.uleb128 0x1
 8537 1188 67        		.byte	0x67
 8538 1189 93        		.byte	0x93
 8539 118a 01        		.uleb128 0x1
 8540 118b 68        		.byte	0x68
 8541 118c 93        		.byte	0x93
 8542 118d 01        		.uleb128 0x1
 8543 118e 69        		.byte	0x69
 8544 118f 93        		.byte	0x93
 8545 1190 01        		.uleb128 0x1
 8546 1191 0000 0000 		.long	0x0
 8547 1195 0000 0000 		.long	0x0
 8548               	.LLST123:
 8549 1199 D013 0000 		.long	.LVL306-.Ltext0
 8550 119d E213 0000 		.long	.LVL307-.Ltext0
GAS LISTING C:\DOCUME~1\KEUNSO~1\LOCALS~1\Temp/ccWaaqlF.s 			page 151


 8551 11a1 0C00      		.word	0xc
 8552 11a3 68        		.byte	0x68
 8553 11a4 93        		.byte	0x93
 8554 11a5 01        		.uleb128 0x1
 8555 11a6 69        		.byte	0x69
 8556 11a7 93        		.byte	0x93
 8557 11a8 01        		.uleb128 0x1
 8558 11a9 6A        		.byte	0x6a
 8559 11aa 93        		.byte	0x93
 8560 11ab 01        		.uleb128 0x1
 8561 11ac 65        		.byte	0x65
 8562 11ad 93        		.byte	0x93
 8563 11ae 01        		.uleb128 0x1
 8564 11af E213 0000 		.long	.LVL307-.Ltext0
 8565 11b3 1E16 0000 		.long	.LFE23-.Ltext0
 8566 11b7 0C00      		.word	0xc
 8567 11b9 5A        		.byte	0x5a
 8568 11ba 93        		.byte	0x93
 8569 11bb 01        		.uleb128 0x1
 8570 11bc 5B        		.byte	0x5b
 8571 11bd 93        		.byte	0x93
 8572 11be 01        		.uleb128 0x1
 8573 11bf 5C        		.byte	0x5c
 8574 11c0 93        		.byte	0x93
 8575 11c1 01        		.uleb128 0x1
 8576 11c2 5D        		.byte	0x5d
 8577 11c3 93        		.byte	0x93
 8578 11c4 01        		.uleb128 0x1
 8579 11c5 0000 0000 		.long	0x0
 8580 11c9 0000 0000 		.long	0x0
 8581               	.LLST124:
 8582 11cd 4014 0000 		.long	.LVL311-.Ltext0
 8583 11d1 4E14 0000 		.long	.LVL313-.Ltext0
 8584 11d5 0100      		.word	0x1
 8585 11d7 68        		.byte	0x68
 8586 11d8 1816 0000 		.long	.LVL330-.Ltext0
 8587 11dc 1E16 0000 		.long	.LFE23-.Ltext0
 8588 11e0 0100      		.word	0x1
 8589 11e2 68        		.byte	0x68
 8590 11e3 0000 0000 		.long	0x0
 8591 11e7 0000 0000 		.long	0x0
 8592               	.LLST125:
 8593 11eb 1E13 0000 		.long	.LVL296-.Ltext0
 8594 11ef 2213 0000 		.long	.LVL297-.Ltext0
 8595 11f3 0100      		.word	0x1
 8596 11f5 68        		.byte	0x68
 8597 11f6 2213 0000 		.long	.LVL297-.Ltext0
 8598 11fa 2813 0000 		.long	.LVL299-.Ltext0
 8599 11fe 0600      		.word	0x6
 8600 1200 6E        		.byte	0x6e
 8601 1201 93        		.byte	0x93
 8602 1202 01        		.uleb128 0x1
 8603 1203 6F        		.byte	0x6f
 8604 1204 93        		.byte	0x93
 8605 1205 01        		.uleb128 0x1
 8606 1206 3013 0000 		.long	.LVL301-.Ltext0
 8607 120a 3813 0000 		.long	.LVL302-.Ltext0
GAS LISTING C:\DOCUME~1\KEUNSO~1\LOCALS~1\Temp/ccWaaqlF.s 			page 152


 8608 120e 0100      		.word	0x1
 8609 1210 68        		.byte	0x68
 8610 1211 0000 0000 		.long	0x0
 8611 1215 0000 0000 		.long	0x0
 8612               	.LLST126:
 8613 1219 F614 0000 		.long	.LVL316-.Ltext0
 8614 121d FA14 0000 		.long	.LVL317-.Ltext0
 8615 1221 0100      		.word	0x1
 8616 1223 68        		.byte	0x68
 8617 1224 FA14 0000 		.long	.LVL317-.Ltext0
 8618 1228 0015 0000 		.long	.LVL319-.Ltext0
 8619 122c 0600      		.word	0x6
 8620 122e 6E        		.byte	0x6e
 8621 122f 93        		.byte	0x93
 8622 1230 01        		.uleb128 0x1
 8623 1231 6F        		.byte	0x6f
 8624 1232 93        		.byte	0x93
 8625 1233 01        		.uleb128 0x1
 8626 1234 0815 0000 		.long	.LVL321-.Ltext0
 8627 1238 1015 0000 		.long	.LVL322-.Ltext0
 8628 123c 0100      		.word	0x1
 8629 123e 68        		.byte	0x68
 8630 123f 0000 0000 		.long	0x0
 8631 1243 0000 0000 		.long	0x0
 8632               	.LLST127:
 8633 1247 5414 0000 		.long	.LVL314-.Ltext0
 8634 124b 9A14 0000 		.long	.LVL315-.Ltext0
 8635 124f 0600      		.word	0x6
 8636 1251 6A        		.byte	0x6a
 8637 1252 93        		.byte	0x93
 8638 1253 01        		.uleb128 0x1
 8639 1254 6B        		.byte	0x6b
 8640 1255 93        		.byte	0x93
 8641 1256 01        		.uleb128 0x1
 8642 1257 7C15 0000 		.long	.LVL324-.Ltext0
 8643 125b DC15 0000 		.long	.LVL325-.Ltext0
 8644 125f 0600      		.word	0x6
 8645 1261 6A        		.byte	0x6a
 8646 1262 93        		.byte	0x93
 8647 1263 01        		.uleb128 0x1
 8648 1264 6B        		.byte	0x6b
 8649 1265 93        		.byte	0x93
 8650 1266 01        		.uleb128 0x1
 8651 1267 0E16 0000 		.long	.LVL329-.Ltext0
 8652 126b 1816 0000 		.long	.LVL330-.Ltext0
 8653 126f 0600      		.word	0x6
 8654 1271 6A        		.byte	0x6a
 8655 1272 93        		.byte	0x93
 8656 1273 01        		.uleb128 0x1
 8657 1274 6B        		.byte	0x6b
 8658 1275 93        		.byte	0x93
 8659 1276 01        		.uleb128 0x1
 8660 1277 0000 0000 		.long	0x0
 8661 127b 0000 0000 		.long	0x0
 8662               	.LLST128:
 8663 127f E213 0000 		.long	.LVL307-.Ltext0
 8664 1283 3A14 0000 		.long	.LVL309-.Ltext0
GAS LISTING C:\DOCUME~1\KEUNSO~1\LOCALS~1\Temp/ccWaaqlF.s 			page 153


 8665 1287 0C00      		.word	0xc
 8666 1289 62        		.byte	0x62
 8667 128a 93        		.byte	0x93
 8668 128b 01        		.uleb128 0x1
 8669 128c 63        		.byte	0x63
 8670 128d 93        		.byte	0x93
 8671 128e 01        		.uleb128 0x1
 8672 128f 64        		.byte	0x64
 8673 1290 93        		.byte	0x93
 8674 1291 01        		.uleb128 0x1
 8675 1292 65        		.byte	0x65
 8676 1293 93        		.byte	0x93
 8677 1294 01        		.uleb128 0x1
 8678 1295 5414 0000 		.long	.LVL314-.Ltext0
 8679 1299 7815 0000 		.long	.LVL323-.Ltext0
 8680 129d 0C00      		.word	0xc
 8681 129f 62        		.byte	0x62
 8682 12a0 93        		.byte	0x93
 8683 12a1 01        		.uleb128 0x1
 8684 12a2 63        		.byte	0x63
 8685 12a3 93        		.byte	0x93
 8686 12a4 01        		.uleb128 0x1
 8687 12a5 64        		.byte	0x64
 8688 12a6 93        		.byte	0x93
 8689 12a7 01        		.uleb128 0x1
 8690 12a8 65        		.byte	0x65
 8691 12a9 93        		.byte	0x93
 8692 12aa 01        		.uleb128 0x1
 8693 12ab 7815 0000 		.long	.LVL323-.Ltext0
 8694 12af F815 0000 		.long	.LVL327-.Ltext0
 8695 12b3 0C00      		.word	0xc
 8696 12b5 62        		.byte	0x62
 8697 12b6 93        		.byte	0x93
 8698 12b7 01        		.uleb128 0x1
 8699 12b8 63        		.byte	0x63
 8700 12b9 93        		.byte	0x93
 8701 12ba 01        		.uleb128 0x1
 8702 12bb 64        		.byte	0x64
 8703 12bc 93        		.byte	0x93
 8704 12bd 01        		.uleb128 0x1
 8705 12be 65        		.byte	0x65
 8706 12bf 93        		.byte	0x93
 8707 12c0 01        		.uleb128 0x1
 8708 12c1 0E16 0000 		.long	.LVL329-.Ltext0
 8709 12c5 1816 0000 		.long	.LVL330-.Ltext0
 8710 12c9 0C00      		.word	0xc
 8711 12cb 62        		.byte	0x62
 8712 12cc 93        		.byte	0x93
 8713 12cd 01        		.uleb128 0x1
 8714 12ce 63        		.byte	0x63
 8715 12cf 93        		.byte	0x93
 8716 12d0 01        		.uleb128 0x1
 8717 12d1 64        		.byte	0x64
 8718 12d2 93        		.byte	0x93
 8719 12d3 01        		.uleb128 0x1
 8720 12d4 65        		.byte	0x65
 8721 12d5 93        		.byte	0x93
GAS LISTING C:\DOCUME~1\KEUNSO~1\LOCALS~1\Temp/ccWaaqlF.s 			page 154


 8722 12d6 01        		.uleb128 0x1
 8723 12d7 0000 0000 		.long	0x0
 8724 12db 0000 0000 		.long	0x0
 8725               	.LLST130:
 8726 12df 1E16 0000 		.long	.LVL331-.Ltext0
 8727 12e3 4416 0000 		.long	.LVL332-.Ltext0
 8728 12e7 0600      		.word	0x6
 8729 12e9 68        		.byte	0x68
 8730 12ea 93        		.byte	0x93
 8731 12eb 01        		.uleb128 0x1
 8732 12ec 69        		.byte	0x69
 8733 12ed 93        		.byte	0x93
 8734 12ee 01        		.uleb128 0x1
 8735 12ef 4416 0000 		.long	.LVL332-.Ltext0
 8736 12f3 BE16 0000 		.long	.LVL340-.Ltext0
 8737 12f7 0600      		.word	0x6
 8738 12f9 62        		.byte	0x62
 8739 12fa 93        		.byte	0x93
 8740 12fb 01        		.uleb128 0x1
 8741 12fc 63        		.byte	0x63
 8742 12fd 93        		.byte	0x93
 8743 12fe 01        		.uleb128 0x1
 8744 12ff 1017 0000 		.long	.LVL341-.Ltext0
 8745 1303 1417 0000 		.long	.LFE39-.Ltext0
 8746 1307 0600      		.word	0x6
 8747 1309 62        		.byte	0x62
 8748 130a 93        		.byte	0x93
 8749 130b 01        		.uleb128 0x1
 8750 130c 63        		.byte	0x63
 8751 130d 93        		.byte	0x93
 8752 130e 01        		.uleb128 0x1
 8753 130f 0000 0000 		.long	0x0
 8754 1313 0000 0000 		.long	0x0
 8755               	.LLST131:
 8756 1317 8E16 0000 		.long	.LVL333-.Ltext0
 8757 131b 9216 0000 		.long	.LVL334-.Ltext0
 8758 131f 0100      		.word	0x1
 8759 1321 68        		.byte	0x68
 8760 1322 9216 0000 		.long	.LVL334-.Ltext0
 8761 1326 9816 0000 		.long	.LVL336-.Ltext0
 8762 132a 0600      		.word	0x6
 8763 132c 6E        		.byte	0x6e
 8764 132d 93        		.byte	0x93
 8765 132e 01        		.uleb128 0x1
 8766 132f 6F        		.byte	0x6f
 8767 1330 93        		.byte	0x93
 8768 1331 01        		.uleb128 0x1
 8769 1332 A016 0000 		.long	.LVL338-.Ltext0
 8770 1336 A816 0000 		.long	.LVL339-.Ltext0
 8771 133a 0100      		.word	0x1
 8772 133c 68        		.byte	0x68
 8773 133d 0000 0000 		.long	0x0
 8774 1341 0000 0000 		.long	0x0
 8775               	.LLST133:
 8776 1345 7E17 0000 		.long	.LVL343-.Ltext0
 8777 1349 8217 0000 		.long	.LVL344-.Ltext0
 8778 134d 0100      		.word	0x1
GAS LISTING C:\DOCUME~1\KEUNSO~1\LOCALS~1\Temp/ccWaaqlF.s 			page 155


 8779 134f 68        		.byte	0x68
 8780 1350 8217 0000 		.long	.LVL344-.Ltext0
 8781 1354 8817 0000 		.long	.LVL346-.Ltext0
 8782 1358 0600      		.word	0x6
 8783 135a 6E        		.byte	0x6e
 8784 135b 93        		.byte	0x93
 8785 135c 01        		.uleb128 0x1
 8786 135d 6F        		.byte	0x6f
 8787 135e 93        		.byte	0x93
 8788 135f 01        		.uleb128 0x1
 8789 1360 9017 0000 		.long	.LVL348-.Ltext0
 8790 1364 9817 0000 		.long	.LVL349-.Ltext0
 8791 1368 0100      		.word	0x1
 8792 136a 68        		.byte	0x68
 8793 136b 0000 0000 		.long	0x0
 8794 136f 0000 0000 		.long	0x0
 8795               	.LLST134:
 8796 1373 8018 0000 		.long	.LVL350-.Ltext0
 8797 1377 8418 0000 		.long	.LVL351-.Ltext0
 8798 137b 0100      		.word	0x1
 8799 137d 68        		.byte	0x68
 8800 137e 8418 0000 		.long	.LVL351-.Ltext0
 8801 1382 8A18 0000 		.long	.LVL353-.Ltext0
 8802 1386 0600      		.word	0x6
 8803 1388 6E        		.byte	0x6e
 8804 1389 93        		.byte	0x93
 8805 138a 01        		.uleb128 0x1
 8806 138b 6F        		.byte	0x6f
 8807 138c 93        		.byte	0x93
 8808 138d 01        		.uleb128 0x1
 8809 138e 9218 0000 		.long	.LVL355-.Ltext0
 8810 1392 9A18 0000 		.long	.LVL356-.Ltext0
 8811 1396 0100      		.word	0x1
 8812 1398 68        		.byte	0x68
 8813 1399 0000 0000 		.long	0x0
 8814 139d 0000 0000 		.long	0x0
 8815               	.LLST136:
 8816 13a1 3019 0000 		.long	.LVL357-.Ltext0
 8817 13a5 5819 0000 		.long	.LVL359-.Ltext0
 8818 13a9 0100      		.word	0x1
 8819 13ab 68        		.byte	0x68
 8820 13ac 5819 0000 		.long	.LVL359-.Ltext0
 8821 13b0 7E19 0000 		.long	.LVL365-.Ltext0
 8822 13b4 0100      		.word	0x1
 8823 13b6 58        		.byte	0x58
 8824 13b7 8019 0000 		.long	.LVL366-.Ltext0
 8825 13bb 8419 0000 		.long	.LVL367-.Ltext0
 8826 13bf 0100      		.word	0x1
 8827 13c1 58        		.byte	0x58
 8828 13c2 8419 0000 		.long	.LVL367-.Ltext0
 8829 13c6 9419 0000 		.long	.LVL370-.Ltext0
 8830 13ca 0100      		.word	0x1
 8831 13cc 68        		.byte	0x68
 8832 13cd 9419 0000 		.long	.LVL370-.Ltext0
 8833 13d1 9619 0000 		.long	.LVL371-.Ltext0
 8834 13d5 0100      		.word	0x1
 8835 13d7 58        		.byte	0x58
GAS LISTING C:\DOCUME~1\KEUNSO~1\LOCALS~1\Temp/ccWaaqlF.s 			page 156


 8836 13d8 9619 0000 		.long	.LVL371-.Ltext0
 8837 13dc 9819 0000 		.long	.LVL372-.Ltext0
 8838 13e0 0100      		.word	0x1
 8839 13e2 68        		.byte	0x68
 8840 13e3 9819 0000 		.long	.LVL372-.Ltext0
 8841 13e7 F219 0000 		.long	.LVL379-.Ltext0
 8842 13eb 0100      		.word	0x1
 8843 13ed 58        		.byte	0x58
 8844 13ee F219 0000 		.long	.LVL379-.Ltext0
 8845 13f2 F619 0000 		.long	.LVL380-.Ltext0
 8846 13f6 0600      		.word	0x6
 8847 13f8 66        		.byte	0x66
 8848 13f9 93        		.byte	0x93
 8849 13fa 01        		.uleb128 0x1
 8850 13fb 67        		.byte	0x67
 8851 13fc 93        		.byte	0x93
 8852 13fd 01        		.uleb128 0x1
 8853 13fe F619 0000 		.long	.LVL380-.Ltext0
 8854 1402 021A 0000 		.long	.LVL381-.Ltext0
 8855 1406 0C00      		.word	0xc
 8856 1408 66        		.byte	0x66
 8857 1409 93        		.byte	0x93
 8858 140a 01        		.uleb128 0x1
 8859 140b 67        		.byte	0x67
 8860 140c 93        		.byte	0x93
 8861 140d 01        		.uleb128 0x1
 8862 140e 68        		.byte	0x68
 8863 140f 93        		.byte	0x93
 8864 1410 01        		.uleb128 0x1
 8865 1411 69        		.byte	0x69
 8866 1412 93        		.byte	0x93
 8867 1413 01        		.uleb128 0x1
 8868 1414 021A 0000 		.long	.LVL381-.Ltext0
 8869 1418 121D 0000 		.long	.LFE40-.Ltext0
 8870 141c 0100      		.word	0x1
 8871 141e 58        		.byte	0x58
 8872 141f 0000 0000 		.long	0x0
 8873 1423 0000 0000 		.long	0x0
 8874               	.LLST137:
 8875 1427 3019 0000 		.long	.LVL357-.Ltext0
 8876 142b 5219 0000 		.long	.LVL358-.Ltext0
 8877 142f 0100      		.word	0x1
 8878 1431 66        		.byte	0x66
 8879 1432 5219 0000 		.long	.LVL358-.Ltext0
 8880 1436 6C19 0000 		.long	.LVL363-.Ltext0
 8881 143a 0100      		.word	0x1
 8882 143c 61        		.byte	0x61
 8883 143d 6C19 0000 		.long	.LVL363-.Ltext0
 8884 1441 8019 0000 		.long	.LVL366-.Ltext0
 8885 1445 0100      		.word	0x1
 8886 1447 66        		.byte	0x66
 8887 1448 8019 0000 		.long	.LVL366-.Ltext0
 8888 144c 8819 0000 		.long	.LVL368-.Ltext0
 8889 1450 0100      		.word	0x1
 8890 1452 61        		.byte	0x61
 8891 1453 8819 0000 		.long	.LVL368-.Ltext0
 8892 1457 9619 0000 		.long	.LVL371-.Ltext0
GAS LISTING C:\DOCUME~1\KEUNSO~1\LOCALS~1\Temp/ccWaaqlF.s 			page 157


 8893 145b 0100      		.word	0x1
 8894 145d 66        		.byte	0x66
 8895 145e 9619 0000 		.long	.LVL371-.Ltext0
 8896 1462 CE19 0000 		.long	.LVL376-.Ltext0
 8897 1466 0100      		.word	0x1
 8898 1468 61        		.byte	0x61
 8899 1469 CE19 0000 		.long	.LVL376-.Ltext0
 8900 146d D219 0000 		.long	.LVL377-.Ltext0
 8901 1471 0600      		.word	0x6
 8902 1473 66        		.byte	0x66
 8903 1474 93        		.byte	0x93
 8904 1475 01        		.uleb128 0x1
 8905 1476 67        		.byte	0x67
 8906 1477 93        		.byte	0x93
 8907 1478 01        		.uleb128 0x1
 8908 1479 D219 0000 		.long	.LVL377-.Ltext0
 8909 147d DE19 0000 		.long	.LVL378-.Ltext0
 8910 1481 0C00      		.word	0xc
 8911 1483 66        		.byte	0x66
 8912 1484 93        		.byte	0x93
 8913 1485 01        		.uleb128 0x1
 8914 1486 67        		.byte	0x67
 8915 1487 93        		.byte	0x93
 8916 1488 01        		.uleb128 0x1
 8917 1489 68        		.byte	0x68
 8918 148a 93        		.byte	0x93
 8919 148b 01        		.uleb128 0x1
 8920 148c 69        		.byte	0x69
 8921 148d 93        		.byte	0x93
 8922 148e 01        		.uleb128 0x1
 8923 148f DE19 0000 		.long	.LVL378-.Ltext0
 8924 1493 121D 0000 		.long	.LFE40-.Ltext0
 8925 1497 0100      		.word	0x1
 8926 1499 61        		.byte	0x61
 8927 149a 0000 0000 		.long	0x0
 8928 149e 0000 0000 		.long	0x0
 8929               	.LLST138:
 8930 14a2 3019 0000 		.long	.LVL357-.Ltext0
 8931 14a6 5219 0000 		.long	.LVL358-.Ltext0
 8932 14aa 0100      		.word	0x1
 8933 14ac 64        		.byte	0x64
 8934 14ad 5219 0000 		.long	.LVL358-.Ltext0
 8935 14b1 7C19 0000 		.long	.LVL364-.Ltext0
 8936 14b5 0100      		.word	0x1
 8937 14b7 59        		.byte	0x59
 8938 14b8 7C19 0000 		.long	.LVL364-.Ltext0
 8939 14bc 8019 0000 		.long	.LVL366-.Ltext0
 8940 14c0 0100      		.word	0x1
 8941 14c2 64        		.byte	0x64
 8942 14c3 8019 0000 		.long	.LVL366-.Ltext0
 8943 14c7 8C19 0000 		.long	.LVL369-.Ltext0
 8944 14cb 0100      		.word	0x1
 8945 14cd 59        		.byte	0x59
 8946 14ce 8C19 0000 		.long	.LVL369-.Ltext0
 8947 14d2 9619 0000 		.long	.LVL371-.Ltext0
 8948 14d6 0100      		.word	0x1
 8949 14d8 64        		.byte	0x64
GAS LISTING C:\DOCUME~1\KEUNSO~1\LOCALS~1\Temp/ccWaaqlF.s 			page 158


 8950 14d9 9619 0000 		.long	.LVL371-.Ltext0
 8951 14dd 121D 0000 		.long	.LFE40-.Ltext0
 8952 14e1 0100      		.word	0x1
 8953 14e3 59        		.byte	0x59
 8954 14e4 0000 0000 		.long	0x0
 8955 14e8 0000 0000 		.long	0x0
 8956               	.LLST139:
 8957 14ec 3019 0000 		.long	.LVL357-.Ltext0
 8958 14f0 A219 0000 		.long	.LVL373-.Ltext0
 8959 14f4 0600      		.word	0x6
 8960 14f6 62        		.byte	0x62
 8961 14f7 93        		.byte	0x93
 8962 14f8 01        		.uleb128 0x1
 8963 14f9 63        		.byte	0x63
 8964 14fa 93        		.byte	0x93
 8965 14fb 01        		.uleb128 0x1
 8966 14fc A219 0000 		.long	.LVL373-.Ltext0
 8967 1500 AE19 0000 		.long	.LVL375-.Ltext0
 8968 1504 0C00      		.word	0xc
 8969 1506 66        		.byte	0x66
 8970 1507 93        		.byte	0x93
 8971 1508 01        		.uleb128 0x1
 8972 1509 67        		.byte	0x67
 8973 150a 93        		.byte	0x93
 8974 150b 01        		.uleb128 0x1
 8975 150c 68        		.byte	0x68
 8976 150d 93        		.byte	0x93
 8977 150e 01        		.uleb128 0x1
 8978 150f 69        		.byte	0x69
 8979 1510 93        		.byte	0x93
 8980 1511 01        		.uleb128 0x1
 8981 1512 0000 0000 		.long	0x0
 8982 1516 0000 0000 		.long	0x0
 8983               	.LLST140:
 8984 151a 261A 0000 		.long	.LVL382-.Ltext0
 8985 151e 361A 0000 		.long	.LVL384-.Ltext0
 8986 1522 0C00      		.word	0xc
 8987 1524 66        		.byte	0x66
 8988 1525 93        		.byte	0x93
 8989 1526 01        		.uleb128 0x1
 8990 1527 67        		.byte	0x67
 8991 1528 93        		.byte	0x93
 8992 1529 01        		.uleb128 0x1
 8993 152a 68        		.byte	0x68
 8994 152b 93        		.byte	0x93
 8995 152c 01        		.uleb128 0x1
 8996 152d 69        		.byte	0x69
 8997 152e 93        		.byte	0x93
 8998 152f 01        		.uleb128 0x1
 8999 1530 0000 0000 		.long	0x0
 9000 1534 0000 0000 		.long	0x0
 9001               	.LLST141:
 9002 1538 6619 0000 		.long	.LVL361-.Ltext0
 9003 153c 6A19 0000 		.long	.LVL362-.Ltext0
 9004 1540 0600      		.word	0x6
 9005 1542 6C        		.byte	0x6c
 9006 1543 93        		.byte	0x93
GAS LISTING C:\DOCUME~1\KEUNSO~1\LOCALS~1\Temp/ccWaaqlF.s 			page 159


 9007 1544 01        		.uleb128 0x1
 9008 1545 6D        		.byte	0x6d
 9009 1546 93        		.byte	0x93
 9010 1547 01        		.uleb128 0x1
 9011 1548 321A 0000 		.long	.LVL383-.Ltext0
 9012 154c 121D 0000 		.long	.LFE40-.Ltext0
 9013 1550 0600      		.word	0x6
 9014 1552 6C        		.byte	0x6c
 9015 1553 93        		.byte	0x93
 9016 1554 01        		.uleb128 0x1
 9017 1555 6D        		.byte	0x6d
 9018 1556 93        		.byte	0x93
 9019 1557 01        		.uleb128 0x1
 9020 1558 0000 0000 		.long	0x0
 9021 155c 0000 0000 		.long	0x0
 9022               	.LLST142:
 9023 1560 A61A 0000 		.long	.LVL385-.Ltext0
 9024 1564 AA1A 0000 		.long	.LVL386-.Ltext0
 9025 1568 0100      		.word	0x1
 9026 156a 68        		.byte	0x68
 9027 156b AA1A 0000 		.long	.LVL386-.Ltext0
 9028 156f B01A 0000 		.long	.LVL388-.Ltext0
 9029 1573 0600      		.word	0x6
 9030 1575 6E        		.byte	0x6e
 9031 1576 93        		.byte	0x93
 9032 1577 01        		.uleb128 0x1
 9033 1578 6F        		.byte	0x6f
 9034 1579 93        		.byte	0x93
 9035 157a 01        		.uleb128 0x1
 9036 157b B81A 0000 		.long	.LVL390-.Ltext0
 9037 157f C01A 0000 		.long	.LVL391-.Ltext0
 9038 1583 0100      		.word	0x1
 9039 1585 68        		.byte	0x68
 9040 1586 0000 0000 		.long	0x0
 9041 158a 0000 0000 		.long	0x0
 9042               	.LLST143:
 9043 158e 9A1B 0000 		.long	.LVL392-.Ltext0
 9044 1592 9E1B 0000 		.long	.LVL393-.Ltext0
 9045 1596 0100      		.word	0x1
 9046 1598 68        		.byte	0x68
 9047 1599 9E1B 0000 		.long	.LVL393-.Ltext0
 9048 159d A41B 0000 		.long	.LVL395-.Ltext0
 9049 15a1 0600      		.word	0x6
 9050 15a3 6E        		.byte	0x6e
 9051 15a4 93        		.byte	0x93
 9052 15a5 01        		.uleb128 0x1
 9053 15a6 6F        		.byte	0x6f
 9054 15a7 93        		.byte	0x93
 9055 15a8 01        		.uleb128 0x1
 9056 15a9 AC1B 0000 		.long	.LVL397-.Ltext0
 9057 15ad B41B 0000 		.long	.LVL398-.Ltext0
 9058 15b1 0100      		.word	0x1
 9059 15b3 68        		.byte	0x68
 9060 15b4 0000 0000 		.long	0x0
 9061 15b8 0000 0000 		.long	0x0
 9062               	.LLST144:
 9063 15bc 841C 0000 		.long	.LVL399-.Ltext0
GAS LISTING C:\DOCUME~1\KEUNSO~1\LOCALS~1\Temp/ccWaaqlF.s 			page 160


 9064 15c0 881C 0000 		.long	.LVL400-.Ltext0
 9065 15c4 0100      		.word	0x1
 9066 15c6 68        		.byte	0x68
 9067 15c7 881C 0000 		.long	.LVL400-.Ltext0
 9068 15cb 8E1C 0000 		.long	.LVL402-.Ltext0
 9069 15cf 0600      		.word	0x6
 9070 15d1 6E        		.byte	0x6e
 9071 15d2 93        		.byte	0x93
 9072 15d3 01        		.uleb128 0x1
 9073 15d4 6F        		.byte	0x6f
 9074 15d5 93        		.byte	0x93
 9075 15d6 01        		.uleb128 0x1
 9076 15d7 961C 0000 		.long	.LVL404-.Ltext0
 9077 15db 9E1C 0000 		.long	.LVL405-.Ltext0
 9078 15df 0100      		.word	0x1
 9079 15e1 68        		.byte	0x68
 9080 15e2 0000 0000 		.long	0x0
 9081 15e6 0000 0000 		.long	0x0
 9082               		.section	.debug_info
 9083 0000 2917 0000 		.long	0x1729
 9084 0004 0200      		.word	0x2
 9085 0006 0000 0000 		.long	.Ldebug_abbrev0
 9086 000a 04        		.byte	0x4
 9087 000b 01        		.uleb128 0x1
 9088 000c 0000 0000 		.long	.LASF153
 9089 0010 01        		.byte	0x1
 9090 0011 0000 0000 		.long	.LASF154
 9091 0015 0000 0000 		.long	.LASF155
 9092 0019 0000 0000 		.long	.Ltext0
 9093 001d 0000 0000 		.long	.Letext0
 9094 0021 0000 0000 		.long	.Ldebug_line0
 9095 0025 02        		.uleb128 0x2
 9096 0026 01        		.byte	0x1
 9097 0027 06        		.byte	0x6
 9098 0028 0000 0000 		.long	.LASF0
 9099 002c 02        		.uleb128 0x2
 9100 002d 01        		.byte	0x1
 9101 002e 08        		.byte	0x8
 9102 002f 0000 0000 		.long	.LASF1
 9103 0033 03        		.uleb128 0x3
 9104 0034 02        		.byte	0x2
 9105 0035 05        		.byte	0x5
 9106 0036 696E 7400 		.string	"int"
 9107 003a 02        		.uleb128 0x2
 9108 003b 02        		.byte	0x2
 9109 003c 07        		.byte	0x7
 9110 003d 0000 0000 		.long	.LASF2
 9111 0041 02        		.uleb128 0x2
 9112 0042 04        		.byte	0x4
 9113 0043 05        		.byte	0x5
 9114 0044 0000 0000 		.long	.LASF3
 9115 0048 02        		.uleb128 0x2
 9116 0049 04        		.byte	0x4
 9117 004a 07        		.byte	0x7
 9118 004b 0000 0000 		.long	.LASF4
 9119 004f 02        		.uleb128 0x2
 9120 0050 08        		.byte	0x8
GAS LISTING C:\DOCUME~1\KEUNSO~1\LOCALS~1\Temp/ccWaaqlF.s 			page 161


 9121 0051 05        		.byte	0x5
 9122 0052 0000 0000 		.long	.LASF5
 9123 0056 02        		.uleb128 0x2
 9124 0057 08        		.byte	0x8
 9125 0058 07        		.byte	0x7
 9126 0059 0000 0000 		.long	.LASF6
 9127 005d 04        		.uleb128 0x4
 9128 005e 0000 0000 		.long	.LASF7
 9129 0062 05        		.byte	0x5
 9130 0063 27        		.byte	0x27
 9131 0064 2C00 0000 		.long	0x2c
 9132 0068 04        		.uleb128 0x4
 9133 0069 0000 0000 		.long	.LASF8
 9134 006d 05        		.byte	0x5
 9135 006e 28        		.byte	0x28
 9136 006f 2C00 0000 		.long	0x2c
 9137 0073 04        		.uleb128 0x4
 9138 0074 0000 0000 		.long	.LASF9
 9139 0078 05        		.byte	0x5
 9140 0079 29        		.byte	0x29
 9141 007a 2500 0000 		.long	0x25
 9142 007e 04        		.uleb128 0x4
 9143 007f 0000 0000 		.long	.LASF10
 9144 0083 05        		.byte	0x5
 9145 0084 2A        		.byte	0x2a
 9146 0085 3A00 0000 		.long	0x3a
 9147 0089 04        		.uleb128 0x4
 9148 008a 0000 0000 		.long	.LASF11
 9149 008e 05        		.byte	0x5
 9150 008f 2C        		.byte	0x2c
 9151 0090 4800 0000 		.long	0x48
 9152 0094 02        		.uleb128 0x2
 9153 0095 04        		.byte	0x4
 9154 0096 04        		.byte	0x4
 9155 0097 0000 0000 		.long	.LASF12
 9156 009b 04        		.uleb128 0x4
 9157 009c 0000 0000 		.long	.LASF13
 9158 00a0 05        		.byte	0x5
 9159 00a1 30        		.byte	0x30
 9160 00a2 2C00 0000 		.long	0x2c
 9161 00a6 05        		.uleb128 0x5
 9162 00a7 28        		.byte	0x28
 9163 00a8 06        		.byte	0x6
 9164 00a9 EC        		.byte	0xec
 9165 00aa 0301 0000 		.long	0x103
 9166 00ae 06        		.uleb128 0x6
 9167 00af 0000 0000 		.long	.LASF14
 9168 00b3 06        		.byte	0x6
 9169 00b4 ED        		.byte	0xed
 9170 00b5 6800 0000 		.long	0x68
 9171 00b9 02        		.byte	0x2
 9172 00ba 23        		.byte	0x23
 9173 00bb 00        		.uleb128 0x0
 9174 00bc 06        		.uleb128 0x6
 9175 00bd 0000 0000 		.long	.LASF15
 9176 00c1 06        		.byte	0x6
 9177 00c2 EE        		.byte	0xee
GAS LISTING C:\DOCUME~1\KEUNSO~1\LOCALS~1\Temp/ccWaaqlF.s 			page 162


 9178 00c3 6800 0000 		.long	0x68
 9179 00c7 02        		.byte	0x2
 9180 00c8 23        		.byte	0x23
 9181 00c9 01        		.uleb128 0x1
 9182 00ca 06        		.uleb128 0x6
 9183 00cb 0000 0000 		.long	.LASF16
 9184 00cf 06        		.byte	0x6
 9185 00d0 EF        		.byte	0xef
 9186 00d1 7E00 0000 		.long	0x7e
 9187 00d5 02        		.byte	0x2
 9188 00d6 23        		.byte	0x23
 9189 00d7 02        		.uleb128 0x2
 9190 00d8 06        		.uleb128 0x6
 9191 00d9 0000 0000 		.long	.LASF17
 9192 00dd 06        		.byte	0x6
 9193 00de F0        		.byte	0xf0
 9194 00df 0301 0000 		.long	0x103
 9195 00e3 02        		.byte	0x2
 9196 00e4 23        		.byte	0x23
 9197 00e5 04        		.uleb128 0x4
 9198 00e6 06        		.uleb128 0x6
 9199 00e7 0000 0000 		.long	.LASF18
 9200 00eb 06        		.byte	0x6
 9201 00ec F1        		.byte	0xf1
 9202 00ed 0501 0000 		.long	0x105
 9203 00f1 02        		.byte	0x2
 9204 00f2 23        		.byte	0x23
 9205 00f3 06        		.uleb128 0x6
 9206 00f4 06        		.uleb128 0x6
 9207 00f5 0000 0000 		.long	.LASF19
 9208 00f9 06        		.byte	0x6
 9209 00fa F3        		.byte	0xf3
 9210 00fb 1801 0000 		.long	0x118
 9211 00ff 02        		.byte	0x2
 9212 0100 23        		.byte	0x23
 9213 0101 08        		.uleb128 0x8
 9214 0102 00        		.byte	0x0
 9215 0103 07        		.uleb128 0x7
 9216 0104 02        		.byte	0x2
 9217 0105 08        		.uleb128 0x8
 9218 0106 6800 0000 		.long	0x68
 9219 010a 1501 0000 		.long	0x115
 9220 010e 09        		.uleb128 0x9
 9221 010f 1501 0000 		.long	0x115
 9222 0113 01        		.byte	0x1
 9223 0114 00        		.byte	0x0
 9224 0115 0A        		.uleb128 0xa
 9225 0116 02        		.byte	0x2
 9226 0117 07        		.byte	0x7
 9227 0118 08        		.uleb128 0x8
 9228 0119 2801 0000 		.long	0x128
 9229 011d 2801 0000 		.long	0x128
 9230 0121 09        		.uleb128 0x9
 9231 0122 1501 0000 		.long	0x115
 9232 0126 1F        		.byte	0x1f
 9233 0127 00        		.byte	0x0
 9234 0128 02        		.uleb128 0x2
GAS LISTING C:\DOCUME~1\KEUNSO~1\LOCALS~1\Temp/ccWaaqlF.s 			page 163


 9235 0129 01        		.byte	0x1
 9236 012a 06        		.byte	0x6
 9237 012b 0000 0000 		.long	.LASF20
 9238 012f 04        		.uleb128 0x4
 9239 0130 0000 0000 		.long	.LASF21
 9240 0134 06        		.byte	0x6
 9241 0135 F5        		.byte	0xf5
 9242 0136 A600 0000 		.long	0xa6
 9243 013a 0B        		.uleb128 0xb
 9244 013b 05        		.byte	0x5
 9245 013c 06        		.byte	0x6
 9246 013d 7801      		.word	0x178
 9247 013f 7101 0000 		.long	0x171
 9248 0143 0C        		.uleb128 0xc
 9249 0144 0000 0000 		.long	.LASF22
 9250 0148 06        		.byte	0x6
 9251 0149 7901      		.word	0x179
 9252 014b 7E00 0000 		.long	0x7e
 9253 014f 02        		.byte	0x2
 9254 0150 23        		.byte	0x23
 9255 0151 00        		.uleb128 0x0
 9256 0152 0C        		.uleb128 0xc
 9257 0153 0000 0000 		.long	.LASF18
 9258 0157 06        		.byte	0x6
 9259 0158 7A01      		.word	0x17a
 9260 015a 0501 0000 		.long	0x105
 9261 015e 02        		.byte	0x2
 9262 015f 23        		.byte	0x23
 9263 0160 02        		.uleb128 0x2
 9264 0161 0C        		.uleb128 0xc
 9265 0162 0000 0000 		.long	.LASF15
 9266 0166 06        		.byte	0x6
 9267 0167 7B01      		.word	0x17b
 9268 0169 6800 0000 		.long	0x68
 9269 016d 02        		.byte	0x2
 9270 016e 23        		.byte	0x23
 9271 016f 04        		.uleb128 0x4
 9272 0170 00        		.byte	0x0
 9273 0171 0D        		.uleb128 0xd
 9274 0172 0000 0000 		.long	.LASF23
 9275 0176 06        		.byte	0x6
 9276 0177 7C01      		.word	0x17c
 9277 0179 3A01 0000 		.long	0x13a
 9278 017d 0B        		.uleb128 0xb
 9279 017e 08        		.byte	0x8
 9280 017f 06        		.byte	0x6
 9281 0180 8601      		.word	0x186
 9282 0182 A501 0000 		.long	0x1a5
 9283 0186 0C        		.uleb128 0xc
 9284 0187 0000 0000 		.long	.LASF24
 9285 018b 06        		.byte	0x6
 9286 018c 8701      		.word	0x187
 9287 018e 8900 0000 		.long	0x89
 9288 0192 02        		.byte	0x2
 9289 0193 23        		.byte	0x23
 9290 0194 00        		.uleb128 0x0
 9291 0195 0C        		.uleb128 0xc
GAS LISTING C:\DOCUME~1\KEUNSO~1\LOCALS~1\Temp/ccWaaqlF.s 			page 164


 9292 0196 0000 0000 		.long	.LASF25
 9293 019a 06        		.byte	0x6
 9294 019b 8801      		.word	0x188
 9295 019d 8900 0000 		.long	0x89
 9296 01a1 02        		.byte	0x2
 9297 01a2 23        		.byte	0x23
 9298 01a3 04        		.uleb128 0x4
 9299 01a4 00        		.byte	0x0
 9300 01a5 0D        		.uleb128 0xd
 9301 01a6 0000 0000 		.long	.LASF26
 9302 01aa 06        		.byte	0x6
 9303 01ab 8901      		.word	0x189
 9304 01ad 7D01 0000 		.long	0x17d
 9305 01b1 0E        		.uleb128 0xe
 9306 01b2 0000 0000 		.long	.LASF156
 9307 01b6 4E        		.byte	0x4e
 9308 01b7 06        		.byte	0x6
 9309 01b8 9301      		.word	0x193
 9310 01ba 0903 0000 		.long	0x309
 9311 01be 0C        		.uleb128 0xc
 9312 01bf 0000 0000 		.long	.LASF27
 9313 01c3 06        		.byte	0x6
 9314 01c4 9401      		.word	0x194
 9315 01c6 0903 0000 		.long	0x309
 9316 01ca 02        		.byte	0x2
 9317 01cb 23        		.byte	0x23
 9318 01cc 00        		.uleb128 0x0
 9319 01cd 0C        		.uleb128 0xc
 9320 01ce 0000 0000 		.long	.LASF28
 9321 01d2 06        		.byte	0x6
 9322 01d3 9701      		.word	0x197
 9323 01d5 0301 0000 		.long	0x103
 9324 01d9 02        		.byte	0x2
 9325 01da 23        		.byte	0x23
 9326 01db 02        		.uleb128 0x2
 9327 01dc 0C        		.uleb128 0xc
 9328 01dd 0000 0000 		.long	.LASF29
 9329 01e1 06        		.byte	0x6
 9330 01e2 9801      		.word	0x198
 9331 01e4 0903 0000 		.long	0x309
 9332 01e8 02        		.byte	0x2
 9333 01e9 23        		.byte	0x23
 9334 01ea 04        		.uleb128 0x4
 9335 01eb 0C        		.uleb128 0xc
 9336 01ec 0000 0000 		.long	.LASF30
 9337 01f0 06        		.byte	0x6
 9338 01f1 9901      		.word	0x199
 9339 01f3 8900 0000 		.long	0x89
 9340 01f7 02        		.byte	0x2
 9341 01f8 23        		.byte	0x23
 9342 01f9 06        		.uleb128 0x6
 9343 01fa 0C        		.uleb128 0xc
 9344 01fb 0000 0000 		.long	.LASF31
 9345 01ff 06        		.byte	0x6
 9346 0200 9A01      		.word	0x19a
 9347 0202 7E00 0000 		.long	0x7e
 9348 0206 02        		.byte	0x2
GAS LISTING C:\DOCUME~1\KEUNSO~1\LOCALS~1\Temp/ccWaaqlF.s 			page 165


 9349 0207 23        		.byte	0x23
 9350 0208 0A        		.uleb128 0xa
 9351 0209 0C        		.uleb128 0xc
 9352 020a 0000 0000 		.long	.LASF32
 9353 020e 06        		.byte	0x6
 9354 020f 9B01      		.word	0x19b
 9355 0211 7E00 0000 		.long	0x7e
 9356 0215 02        		.byte	0x2
 9357 0216 23        		.byte	0x23
 9358 0217 0C        		.uleb128 0xc
 9359 0218 0C        		.uleb128 0xc
 9360 0219 0000 0000 		.long	.LASF33
 9361 021d 06        		.byte	0x6
 9362 021e 9E01      		.word	0x19e
 9363 0220 0F03 0000 		.long	0x30f
 9364 0224 02        		.byte	0x2
 9365 0225 23        		.byte	0x23
 9366 0226 0E        		.uleb128 0xe
 9367 0227 0C        		.uleb128 0xc
 9368 0228 0000 0000 		.long	.LASF34
 9369 022c 06        		.byte	0x6
 9370 022d 9F01      		.word	0x19f
 9371 022f 0F03 0000 		.long	0x30f
 9372 0233 02        		.byte	0x2
 9373 0234 23        		.byte	0x23
 9374 0235 10        		.uleb128 0x10
 9375 0236 0C        		.uleb128 0xc
 9376 0237 0000 0000 		.long	.LASF35
 9377 023b 06        		.byte	0x6
 9378 023c A201      		.word	0x1a2
 9379 023e 1503 0000 		.long	0x315
 9380 0242 02        		.byte	0x2
 9381 0243 23        		.byte	0x23
 9382 0244 12        		.uleb128 0x12
 9383 0245 0C        		.uleb128 0xc
 9384 0246 0000 0000 		.long	.LASF36
 9385 024a 06        		.byte	0x6
 9386 024b B001      		.word	0x1b0
 9387 024d 7E00 0000 		.long	0x7e
 9388 0251 02        		.byte	0x2
 9389 0252 23        		.byte	0x23
 9390 0253 14        		.uleb128 0x14
 9391 0254 0C        		.uleb128 0xc
 9392 0255 0000 0000 		.long	.LASF37
 9393 0259 06        		.byte	0x6
 9394 025a B101      		.word	0x1b1
 9395 025c 6800 0000 		.long	0x68
 9396 0260 02        		.byte	0x2
 9397 0261 23        		.byte	0x23
 9398 0262 16        		.uleb128 0x16
 9399 0263 0C        		.uleb128 0xc
 9400 0264 0000 0000 		.long	.LASF38
 9401 0268 06        		.byte	0x6
 9402 0269 B201      		.word	0x1b2
 9403 026b 6800 0000 		.long	0x68
 9404 026f 02        		.byte	0x2
 9405 0270 23        		.byte	0x23
GAS LISTING C:\DOCUME~1\KEUNSO~1\LOCALS~1\Temp/ccWaaqlF.s 			page 166


 9406 0271 17        		.uleb128 0x17
 9407 0272 0C        		.uleb128 0xc
 9408 0273 0000 0000 		.long	.LASF39
 9409 0277 06        		.byte	0x6
 9410 0278 B401      		.word	0x1b4
 9411 027a 6800 0000 		.long	0x68
 9412 027e 02        		.byte	0x2
 9413 027f 23        		.byte	0x23
 9414 0280 18        		.uleb128 0x18
 9415 0281 0C        		.uleb128 0xc
 9416 0282 0000 0000 		.long	.LASF40
 9417 0286 06        		.byte	0x6
 9418 0287 B501      		.word	0x1b5
 9419 0289 6800 0000 		.long	0x68
 9420 028d 02        		.byte	0x2
 9421 028e 23        		.byte	0x23
 9422 028f 19        		.uleb128 0x19
 9423 0290 0C        		.uleb128 0xc
 9424 0291 0000 0000 		.long	.LASF41
 9425 0295 06        		.byte	0x6
 9426 0296 B601      		.word	0x1b6
 9427 0298 6800 0000 		.long	0x68
 9428 029c 02        		.byte	0x2
 9429 029d 23        		.byte	0x23
 9430 029e 1A        		.uleb128 0x1a
 9431 029f 0C        		.uleb128 0xc
 9432 02a0 0000 0000 		.long	.LASF42
 9433 02a4 06        		.byte	0x6
 9434 02a5 B701      		.word	0x1b7
 9435 02a7 6800 0000 		.long	0x68
 9436 02ab 02        		.byte	0x2
 9437 02ac 23        		.byte	0x23
 9438 02ad 1B        		.uleb128 0x1b
 9439 02ae 0C        		.uleb128 0xc
 9440 02af 0000 0000 		.long	.LASF43
 9441 02b3 06        		.byte	0x6
 9442 02b4 BE01      		.word	0x1be
 9443 02b6 8900 0000 		.long	0x89
 9444 02ba 02        		.byte	0x2
 9445 02bb 23        		.byte	0x23
 9446 02bc 1C        		.uleb128 0x1c
 9447 02bd 0C        		.uleb128 0xc
 9448 02be 0000 0000 		.long	.LASF44
 9449 02c2 06        		.byte	0x6
 9450 02c3 BF01      		.word	0x1bf
 9451 02c5 8900 0000 		.long	0x89
 9452 02c9 02        		.byte	0x2
 9453 02ca 23        		.byte	0x23
 9454 02cb 20        		.uleb128 0x20
 9455 02cc 0C        		.uleb128 0xc
 9456 02cd 0000 0000 		.long	.LASF45
 9457 02d1 06        		.byte	0x6
 9458 02d2 C001      		.word	0x1c0
 9459 02d4 8900 0000 		.long	0x89
 9460 02d8 02        		.byte	0x2
 9461 02d9 23        		.byte	0x23
 9462 02da 24        		.uleb128 0x24
GAS LISTING C:\DOCUME~1\KEUNSO~1\LOCALS~1\Temp/ccWaaqlF.s 			page 167


 9463 02db 0C        		.uleb128 0xc
 9464 02dc 0000 0000 		.long	.LASF46
 9465 02e0 06        		.byte	0x6
 9466 02e1 C101      		.word	0x1c1
 9467 02e3 0903 0000 		.long	0x309
 9468 02e7 02        		.byte	0x2
 9469 02e8 23        		.byte	0x23
 9470 02e9 28        		.uleb128 0x28
 9471 02ea 0C        		.uleb128 0xc
 9472 02eb 0000 0000 		.long	.LASF47
 9473 02ef 06        		.byte	0x6
 9474 02f0 C201      		.word	0x1c2
 9475 02f2 8900 0000 		.long	0x89
 9476 02f6 02        		.byte	0x2
 9477 02f7 23        		.byte	0x23
 9478 02f8 2A        		.uleb128 0x2a
 9479 02f9 0C        		.uleb128 0xc
 9480 02fa 0000 0000 		.long	.LASF48
 9481 02fe 06        		.byte	0x6
 9482 02ff C601      		.word	0x1c6
 9483 0301 1801 0000 		.long	0x118
 9484 0305 02        		.byte	0x2
 9485 0306 23        		.byte	0x23
 9486 0307 2E        		.uleb128 0x2e
 9487 0308 00        		.byte	0x0
 9488 0309 0F        		.uleb128 0xf
 9489 030a 02        		.byte	0x2
 9490 030b 9B00 0000 		.long	0x9b
 9491 030f 0F        		.uleb128 0xf
 9492 0310 02        		.byte	0x2
 9493 0311 B101 0000 		.long	0x1b1
 9494 0315 0F        		.uleb128 0xf
 9495 0316 02        		.byte	0x2
 9496 0317 2F01 0000 		.long	0x12f
 9497 031b 0D        		.uleb128 0xd
 9498 031c 0000 0000 		.long	.LASF49
 9499 0320 06        		.byte	0x6
 9500 0321 C801      		.word	0x1c8
 9501 0323 B101 0000 		.long	0x1b1
 9502 0327 10        		.uleb128 0x10
 9503 0328 01        		.byte	0x1
 9504 0329 0000 0000 		.long	.LASF96
 9505 032d 01        		.byte	0x1
 9506 032e 7303      		.word	0x373
 9507 0330 01        		.byte	0x1
 9508 0331 01        		.byte	0x1
 9509 0332 4F03 0000 		.long	0x34f
 9510 0336 11        		.uleb128 0x11
 9511 0337 0000 0000 		.long	.LASF62
 9512 033b 01        		.byte	0x1
 9513 033c 7203      		.word	0x372
 9514 033e 1503 0000 		.long	0x315
 9515 0342 12        		.uleb128 0x12
 9516 0343 0000 0000 		.long	.LASF50
 9517 0347 01        		.byte	0x1
 9518 0348 7403      		.word	0x374
 9519 034a 4F03 0000 		.long	0x34f
GAS LISTING C:\DOCUME~1\KEUNSO~1\LOCALS~1\Temp/ccWaaqlF.s 			page 168


 9520 034e 00        		.byte	0x0
 9521 034f 0F        		.uleb128 0xf
 9522 0350 02        		.byte	0x2
 9523 0351 6800 0000 		.long	0x68
 9524 0355 13        		.uleb128 0x13
 9525 0356 0000 0000 		.long	.LASF59
 9526 035a 01        		.byte	0x1
 9527 035b DD03      		.word	0x3dd
 9528 035d 01        		.byte	0x1
 9529 035e 01        		.byte	0x1
 9530 035f 14        		.uleb128 0x14
 9531 0360 0000 0000 		.long	.LASF52
 9532 0364 01        		.byte	0x1
 9533 0365 0104      		.word	0x401
 9534 0367 01        		.byte	0x1
 9535 0368 01        		.byte	0x1
 9536 0369 8403 0000 		.long	0x384
 9537 036d 15        		.uleb128 0x15
 9538 036e 6900      		.string	"i"
 9539 0370 01        		.byte	0x1
 9540 0371 0204      		.word	0x402
 9541 0373 7E00 0000 		.long	0x7e
 9542 0377 12        		.uleb128 0x12
 9543 0378 0000 0000 		.long	.LASF51
 9544 037c 01        		.byte	0x1
 9545 037d 0304      		.word	0x403
 9546 037f 4F03 0000 		.long	0x34f
 9547 0383 00        		.byte	0x0
 9548 0384 14        		.uleb128 0x14
 9549 0385 0000 0000 		.long	.LASF53
 9550 0389 01        		.byte	0x1
 9551 038a 8C04      		.word	0x48c
 9552 038c 01        		.byte	0x1
 9553 038d 01        		.byte	0x1
 9554 038e B503 0000 		.long	0x3b5
 9555 0392 15        		.uleb128 0x15
 9556 0393 6900      		.string	"i"
 9557 0395 01        		.byte	0x1
 9558 0396 8D04      		.word	0x48d
 9559 0398 6800 0000 		.long	0x68
 9560 039c 12        		.uleb128 0x12
 9561 039d 0000 0000 		.long	.LASF54
 9562 03a1 01        		.byte	0x1
 9563 03a2 8E04      		.word	0x48e
 9564 03a4 B503 0000 		.long	0x3b5
 9565 03a8 12        		.uleb128 0x12
 9566 03a9 0000 0000 		.long	.LASF55
 9567 03ad 01        		.byte	0x1
 9568 03ae 8F04      		.word	0x48f
 9569 03b0 B503 0000 		.long	0x3b5
 9570 03b4 00        		.byte	0x0
 9571 03b5 0F        		.uleb128 0xf
 9572 03b6 02        		.byte	0x2
 9573 03b7 1B03 0000 		.long	0x31b
 9574 03bb 14        		.uleb128 0x14
 9575 03bc 0000 0000 		.long	.LASF56
 9576 03c0 01        		.byte	0x1
GAS LISTING C:\DOCUME~1\KEUNSO~1\LOCALS~1\Temp/ccWaaqlF.s 			page 169


 9577 03c1 AA03      		.word	0x3aa
 9578 03c3 01        		.byte	0x1
 9579 03c4 01        		.byte	0x1
 9580 03c5 EC03 0000 		.long	0x3ec
 9581 03c9 15        		.uleb128 0x15
 9582 03ca 6900      		.string	"i"
 9583 03cc 01        		.byte	0x1
 9584 03cd AD03      		.word	0x3ad
 9585 03cf 7E00 0000 		.long	0x7e
 9586 03d3 12        		.uleb128 0x12
 9587 03d4 0000 0000 		.long	.LASF57
 9588 03d8 01        		.byte	0x1
 9589 03d9 AE03      		.word	0x3ae
 9590 03db 1503 0000 		.long	0x315
 9591 03df 12        		.uleb128 0x12
 9592 03e0 0000 0000 		.long	.LASF58
 9593 03e4 01        		.byte	0x1
 9594 03e5 AF03      		.word	0x3af
 9595 03e7 1503 0000 		.long	0x315
 9596 03eb 00        		.byte	0x0
 9597 03ec 13        		.uleb128 0x13
 9598 03ed 0000 0000 		.long	.LASF60
 9599 03f1 01        		.byte	0x1
 9600 03f2 2204      		.word	0x422
 9601 03f4 01        		.byte	0x1
 9602 03f5 01        		.byte	0x1
 9603 03f6 13        		.uleb128 0x13
 9604 03f7 0000 0000 		.long	.LASF61
 9605 03fb 01        		.byte	0x1
 9606 03fc 5704      		.word	0x457
 9607 03fe 01        		.byte	0x1
 9608 03ff 01        		.byte	0x1
 9609 0400 16        		.uleb128 0x16
 9610 0401 01        		.byte	0x1
 9611 0402 0000 0000 		.long	.LASF108
 9612 0406 01        		.byte	0x1
 9613 0407 A401      		.word	0x1a4
 9614 0409 01        		.byte	0x1
 9615 040a 0000 0000 		.long	.LFB5
 9616 040e 0000 0000 		.long	.LFE5
 9617 0412 02        		.byte	0x2
 9618 0413 90        		.byte	0x90
 9619 0414 20        		.uleb128 0x20
 9620 0415 17        		.uleb128 0x17
 9621 0416 01        		.byte	0x1
 9622 0417 0000 0000 		.long	.LASF157
 9623 041b 01        		.byte	0x1
 9624 041c D502      		.word	0x2d5
 9625 041e 01        		.byte	0x1
 9626 041f 7E00 0000 		.long	0x7e
 9627 0423 0000 0000 		.long	.LFB10
 9628 0427 0000 0000 		.long	.LFE10
 9629 042b 02        		.byte	0x2
 9630 042c 90        		.byte	0x90
 9631 042d 20        		.uleb128 0x20
 9632 042e 18        		.uleb128 0x18
 9633 042f 01        		.byte	0x1
GAS LISTING C:\DOCUME~1\KEUNSO~1\LOCALS~1\Temp/ccWaaqlF.s 			page 170


 9634 0430 0000 0000 		.long	.LASF74
 9635 0434 01        		.byte	0x1
 9636 0435 0403      		.word	0x304
 9637 0437 01        		.byte	0x1
 9638 0438 6800 0000 		.long	0x68
 9639 043c 01        		.byte	0x1
 9640 043d AA04 0000 		.long	0x4aa
 9641 0441 11        		.uleb128 0x11
 9642 0442 0000 0000 		.long	.LASF62
 9643 0446 01        		.byte	0x1
 9644 0447 0303      		.word	0x303
 9645 0449 1503 0000 		.long	0x315
 9646 044d 19        		.uleb128 0x19
 9647 044e 6D73 6700 		.string	"msg"
 9648 0452 01        		.byte	0x1
 9649 0453 0303      		.word	0x303
 9650 0455 0301 0000 		.long	0x103
 9651 0459 19        		.uleb128 0x19
 9652 045a 6D73 6B00 		.string	"msk"
 9653 045e 01        		.byte	0x1
 9654 045f 0303      		.word	0x303
 9655 0461 6800 0000 		.long	0x68
 9656 0465 12        		.uleb128 0x12
 9657 0466 0000 0000 		.long	.LASF63
 9658 046a 01        		.byte	0x1
 9659 046b 0503      		.word	0x305
 9660 046d B503 0000 		.long	0x3b5
 9661 0471 15        		.uleb128 0x15
 9662 0472 7800      		.string	"x"
 9663 0474 01        		.byte	0x1
 9664 0475 0603      		.word	0x306
 9665 0477 6800 0000 		.long	0x68
 9666 047b 15        		.uleb128 0x15
 9667 047c 7900      		.string	"y"
 9668 047e 01        		.byte	0x1
 9669 047f 0703      		.word	0x307
 9670 0481 6800 0000 		.long	0x68
 9671 0485 12        		.uleb128 0x12
 9672 0486 0000 0000 		.long	.LASF64
 9673 048a 01        		.byte	0x1
 9674 048b 0803      		.word	0x308
 9675 048d 6800 0000 		.long	0x68
 9676 0491 12        		.uleb128 0x12
 9677 0492 0000 0000 		.long	.LASF65
 9678 0496 01        		.byte	0x1
 9679 0497 0903      		.word	0x309
 9680 0499 6800 0000 		.long	0x68
 9681 049d 12        		.uleb128 0x12
 9682 049e 0000 0000 		.long	.LASF66
 9683 04a2 01        		.byte	0x1
 9684 04a3 0A03      		.word	0x30a
 9685 04a5 6800 0000 		.long	0x68
 9686 04a9 00        		.byte	0x0
 9687 04aa 1A        		.uleb128 0x1a
 9688 04ab 2E04 0000 		.long	0x42e
 9689 04af 0000 0000 		.long	.LFB11
 9690 04b3 0000 0000 		.long	.LFE11
GAS LISTING C:\DOCUME~1\KEUNSO~1\LOCALS~1\Temp/ccWaaqlF.s 			page 171


 9691 04b7 02        		.byte	0x2
 9692 04b8 90        		.byte	0x90
 9693 04b9 20        		.uleb128 0x20
 9694 04ba 0C05 0000 		.long	0x50c
 9695 04be 1B        		.uleb128 0x1b
 9696 04bf 4104 0000 		.long	0x441
 9697 04c3 0000 0000 		.long	.LLST3
 9698 04c7 1B        		.uleb128 0x1b
 9699 04c8 4D04 0000 		.long	0x44d
 9700 04cc 0000 0000 		.long	.LLST4
 9701 04d0 1B        		.uleb128 0x1b
 9702 04d1 5904 0000 		.long	0x459
 9703 04d5 0000 0000 		.long	.LLST5
 9704 04d9 1C        		.uleb128 0x1c
 9705 04da 6504 0000 		.long	0x465
 9706 04de 0000 0000 		.long	.LLST6
 9707 04e2 1C        		.uleb128 0x1c
 9708 04e3 7104 0000 		.long	0x471
 9709 04e7 0000 0000 		.long	.LLST7
 9710 04eb 1C        		.uleb128 0x1c
 9711 04ec 7B04 0000 		.long	0x47b
 9712 04f0 0000 0000 		.long	.LLST8
 9713 04f4 1D        		.uleb128 0x1d
 9714 04f5 8504 0000 		.long	0x485
 9715 04f9 01        		.byte	0x1
 9716 04fa 65        		.byte	0x65
 9717 04fb 1D        		.uleb128 0x1d
 9718 04fc 9104 0000 		.long	0x491
 9719 0500 01        		.byte	0x1
 9720 0501 64        		.byte	0x64
 9721 0502 1C        		.uleb128 0x1c
 9722 0503 9D04 0000 		.long	0x49d
 9723 0507 0000 0000 		.long	.LLST9
 9724 050b 00        		.byte	0x0
 9725 050c 1E        		.uleb128 0x1e
 9726 050d 01        		.byte	0x1
 9727 050e 0000 0000 		.long	.LASF67
 9728 0512 01        		.byte	0x1
 9729 0513 3703      		.word	0x337
 9730 0515 01        		.byte	0x1
 9731 0516 0000 0000 		.long	.LFB12
 9732 051a 0000 0000 		.long	.LFE12
 9733 051e 02        		.byte	0x2
 9734 051f 90        		.byte	0x90
 9735 0520 20        		.uleb128 0x20
 9736 0521 4005 0000 		.long	0x540
 9737 0525 1F        		.uleb128 0x1f
 9738 0526 0000 0000 		.long	.LASF62
 9739 052a 01        		.byte	0x1
 9740 052b 3603      		.word	0x336
 9741 052d 1503 0000 		.long	0x315
 9742 0531 0000 0000 		.long	.LLST11
 9743 0535 15        		.uleb128 0x15
 9744 0536 7900      		.string	"y"
 9745 0538 01        		.byte	0x1
 9746 0539 3803      		.word	0x338
 9747 053b 6800 0000 		.long	0x68
GAS LISTING C:\DOCUME~1\KEUNSO~1\LOCALS~1\Temp/ccWaaqlF.s 			page 172


 9748 053f 00        		.byte	0x0
 9749 0540 1E        		.uleb128 0x1e
 9750 0541 01        		.byte	0x1
 9751 0542 0000 0000 		.long	.LASF68
 9752 0546 01        		.byte	0x1
 9753 0547 5603      		.word	0x356
 9754 0549 01        		.byte	0x1
 9755 054a 0000 0000 		.long	.LFB13
 9756 054e 0000 0000 		.long	.LFE13
 9757 0552 02        		.byte	0x2
 9758 0553 90        		.byte	0x90
 9759 0554 20        		.uleb128 0x20
 9760 0555 7405 0000 		.long	0x574
 9761 0559 1F        		.uleb128 0x1f
 9762 055a 0000 0000 		.long	.LASF62
 9763 055e 01        		.byte	0x1
 9764 055f 5503      		.word	0x355
 9765 0561 1503 0000 		.long	0x315
 9766 0565 0000 0000 		.long	.LLST13
 9767 0569 15        		.uleb128 0x15
 9768 056a 7900      		.string	"y"
 9769 056c 01        		.byte	0x1
 9770 056d 5703      		.word	0x357
 9771 056f 6800 0000 		.long	0x68
 9772 0573 00        		.byte	0x0
 9773 0574 1A        		.uleb128 0x1a
 9774 0575 2703 0000 		.long	0x327
 9775 0579 0000 0000 		.long	.LFB14
 9776 057d 0000 0000 		.long	.LFE14
 9777 0581 02        		.byte	0x2
 9778 0582 90        		.byte	0x90
 9779 0583 20        		.uleb128 0x20
 9780 0584 9A05 0000 		.long	0x59a
 9781 0588 20        		.uleb128 0x20
 9782 0589 3603 0000 		.long	0x336
 9783 058d 06        		.byte	0x6
 9784 058e 68        		.byte	0x68
 9785 058f 93        		.byte	0x93
 9786 0590 01        		.uleb128 0x1
 9787 0591 69        		.byte	0x69
 9788 0592 93        		.byte	0x93
 9789 0593 01        		.uleb128 0x1
 9790 0594 21        		.uleb128 0x21
 9791 0595 4203 0000 		.long	0x342
 9792 0599 00        		.byte	0x0
 9793 059a 22        		.uleb128 0x22
 9794 059b 01        		.byte	0x1
 9795 059c 0000 0000 		.long	.LASF69
 9796 05a0 02        		.byte	0x2
 9797 05a1 28        		.byte	0x28
 9798 05a2 01        		.byte	0x1
 9799 05a3 7E00 0000 		.long	0x7e
 9800 05a7 0000 0000 		.long	.LFB26
 9801 05ab 0000 0000 		.long	.LFE26
 9802 05af 02        		.byte	0x2
 9803 05b0 90        		.byte	0x90
 9804 05b1 20        		.uleb128 0x20
GAS LISTING C:\DOCUME~1\KEUNSO~1\LOCALS~1\Temp/ccWaaqlF.s 			page 173


 9805 05b2 D505 0000 		.long	0x5d5
 9806 05b6 23        		.uleb128 0x23
 9807 05b7 0000 0000 		.long	.LASF62
 9808 05bb 02        		.byte	0x2
 9809 05bc 27        		.byte	0x27
 9810 05bd 1503 0000 		.long	0x315
 9811 05c1 0000 0000 		.long	.LLST16
 9812 05c5 24        		.uleb128 0x24
 9813 05c6 636E 7400 		.string	"cnt"
 9814 05ca 02        		.byte	0x2
 9815 05cb 2C        		.byte	0x2c
 9816 05cc 7E00 0000 		.long	0x7e
 9817 05d0 0000 0000 		.long	.LLST17
 9818 05d4 00        		.byte	0x0
 9819 05d5 25        		.uleb128 0x25
 9820 05d6 01        		.byte	0x1
 9821 05d7 0000 0000 		.long	.LASF70
 9822 05db 02        		.byte	0x2
 9823 05dc 7301      		.word	0x173
 9824 05de 01        		.byte	0x1
 9825 05df 6800 0000 		.long	0x68
 9826 05e3 0000 0000 		.long	.LFB31
 9827 05e7 0000 0000 		.long	.LFE31
 9828 05eb 02        		.byte	0x2
 9829 05ec 90        		.byte	0x90
 9830 05ed 20        		.uleb128 0x20
 9831 05ee 2B06 0000 		.long	0x62b
 9832 05f2 1F        		.uleb128 0x1f
 9833 05f3 0000 0000 		.long	.LASF62
 9834 05f7 02        		.byte	0x2
 9835 05f8 7201      		.word	0x172
 9836 05fa 1503 0000 		.long	0x315
 9837 05fe 0000 0000 		.long	.LLST19
 9838 0602 1F        		.uleb128 0x1f
 9839 0603 0000 0000 		.long	.LASF71
 9840 0607 02        		.byte	0x2
 9841 0608 7201      		.word	0x172
 9842 060a 2B06 0000 		.long	0x62b
 9843 060e 0000 0000 		.long	.LLST20
 9844 0612 12        		.uleb128 0x12
 9845 0613 0000 0000 		.long	.LASF72
 9846 0617 02        		.byte	0x2
 9847 0618 7701      		.word	0x177
 9848 061a 4F03 0000 		.long	0x34f
 9849 061e 12        		.uleb128 0x12
 9850 061f 0000 0000 		.long	.LASF73
 9851 0623 02        		.byte	0x2
 9852 0624 7801      		.word	0x178
 9853 0626 4F03 0000 		.long	0x34f
 9854 062a 00        		.byte	0x0
 9855 062b 0F        		.uleb128 0xf
 9856 062c 02        		.byte	0x2
 9857 062d 7101 0000 		.long	0x171
 9858 0631 18        		.uleb128 0x18
 9859 0632 01        		.byte	0x1
 9860 0633 0000 0000 		.long	.LASF75
 9861 0637 03        		.byte	0x3
GAS LISTING C:\DOCUME~1\KEUNSO~1\LOCALS~1\Temp/ccWaaqlF.s 			page 174


 9862 0638 E202      		.word	0x2e2
 9863 063a 01        		.byte	0x1
 9864 063b 6800 0000 		.long	0x68
 9865 063f 01        		.byte	0x1
 9866 0640 8D06 0000 		.long	0x68d
 9867 0644 11        		.uleb128 0x11
 9868 0645 0000 0000 		.long	.LASF66
 9869 0649 03        		.byte	0x3
 9870 064a E102      		.word	0x2e1
 9871 064c 6800 0000 		.long	0x68
 9872 0650 11        		.uleb128 0x11
 9873 0651 0000 0000 		.long	.LASF71
 9874 0655 03        		.byte	0x3
 9875 0656 E102      		.word	0x2e1
 9876 0658 8D06 0000 		.long	0x68d
 9877 065c 12        		.uleb128 0x12
 9878 065d 0000 0000 		.long	.LASF63
 9879 0661 03        		.byte	0x3
 9880 0662 E602      		.word	0x2e6
 9881 0664 B503 0000 		.long	0x3b5
 9882 0668 12        		.uleb128 0x12
 9883 0669 0000 0000 		.long	.LASF76
 9884 066d 03        		.byte	0x3
 9885 066e E702      		.word	0x2e7
 9886 0670 0903 0000 		.long	0x309
 9887 0674 12        		.uleb128 0x12
 9888 0675 0000 0000 		.long	.LASF77
 9889 0679 03        		.byte	0x3
 9890 067a E802      		.word	0x2e8
 9891 067c 8900 0000 		.long	0x89
 9892 0680 12        		.uleb128 0x12
 9893 0681 0000 0000 		.long	.LASF78
 9894 0685 03        		.byte	0x3
 9895 0686 E902      		.word	0x2e9
 9896 0688 8900 0000 		.long	0x89
 9897 068c 00        		.byte	0x0
 9898 068d 0F        		.uleb128 0xf
 9899 068e 02        		.byte	0x2
 9900 068f A501 0000 		.long	0x1a5
 9901 0693 1A        		.uleb128 0x1a
 9902 0694 3106 0000 		.long	0x631
 9903 0698 0000 0000 		.long	.LFB36
 9904 069c 0000 0000 		.long	.LFE36
 9905 06a0 02        		.byte	0x2
 9906 06a1 90        		.byte	0x90
 9907 06a2 20        		.uleb128 0x20
 9908 06a3 DE06 0000 		.long	0x6de
 9909 06a7 1B        		.uleb128 0x1b
 9910 06a8 4406 0000 		.long	0x644
 9911 06ac 0000 0000 		.long	.LLST22
 9912 06b0 1B        		.uleb128 0x1b
 9913 06b1 5006 0000 		.long	0x650
 9914 06b5 0000 0000 		.long	.LLST23
 9915 06b9 1C        		.uleb128 0x1c
 9916 06ba 5C06 0000 		.long	0x65c
 9917 06be 0000 0000 		.long	.LLST24
 9918 06c2 1C        		.uleb128 0x1c
GAS LISTING C:\DOCUME~1\KEUNSO~1\LOCALS~1\Temp/ccWaaqlF.s 			page 175


 9919 06c3 6806 0000 		.long	0x668
 9920 06c7 0000 0000 		.long	.LLST25
 9921 06cb 1C        		.uleb128 0x1c
 9922 06cc 7406 0000 		.long	0x674
 9923 06d0 0000 0000 		.long	.LLST26
 9924 06d4 1C        		.uleb128 0x1c
 9925 06d5 8006 0000 		.long	0x680
 9926 06d9 0000 0000 		.long	.LLST27
 9927 06dd 00        		.byte	0x0
 9928 06de 1E        		.uleb128 0x1e
 9929 06df 01        		.byte	0x1
 9930 06e0 0000 0000 		.long	.LASF79
 9931 06e4 03        		.byte	0x3
 9932 06e5 A603      		.word	0x3a6
 9933 06e7 01        		.byte	0x1
 9934 06e8 0000 0000 		.long	.LFB38
 9935 06ec 0000 0000 		.long	.LFE38
 9936 06f0 02        		.byte	0x2
 9937 06f1 90        		.byte	0x90
 9938 06f2 20        		.uleb128 0x20
 9939 06f3 3407 0000 		.long	0x734
 9940 06f7 1F        		.uleb128 0x1f
 9941 06f8 0000 0000 		.long	.LASF80
 9942 06fc 03        		.byte	0x3
 9943 06fd A503      		.word	0x3a5
 9944 06ff 0903 0000 		.long	0x309
 9945 0703 0000 0000 		.long	.LLST29
 9946 0707 26        		.uleb128 0x26
 9947 0708 0000 0000 		.long	.LASF78
 9948 070c 03        		.byte	0x3
 9949 070d A503      		.word	0x3a5
 9950 070f 8900 0000 		.long	0x89
 9951 0713 0C        		.byte	0xc
 9952 0714 64        		.byte	0x64
 9953 0715 93        		.byte	0x93
 9954 0716 01        		.uleb128 0x1
 9955 0717 65        		.byte	0x65
 9956 0718 93        		.byte	0x93
 9957 0719 01        		.uleb128 0x1
 9958 071a 66        		.byte	0x66
 9959 071b 93        		.byte	0x93
 9960 071c 01        		.uleb128 0x1
 9961 071d 67        		.byte	0x67
 9962 071e 93        		.byte	0x93
 9963 071f 01        		.uleb128 0x1
 9964 0720 27        		.uleb128 0x27
 9965 0721 6F70 7400 		.string	"opt"
 9966 0725 03        		.byte	0x3
 9967 0726 A503      		.word	0x3a5
 9968 0728 7E00 0000 		.long	0x7e
 9969 072c 06        		.byte	0x6
 9970 072d 62        		.byte	0x62
 9971 072e 93        		.byte	0x93
 9972 072f 01        		.uleb128 0x1
 9973 0730 63        		.byte	0x63
 9974 0731 93        		.byte	0x93
 9975 0732 01        		.uleb128 0x1
GAS LISTING C:\DOCUME~1\KEUNSO~1\LOCALS~1\Temp/ccWaaqlF.s 			page 176


 9976 0733 00        		.byte	0x0
 9977 0734 22        		.uleb128 0x22
 9978 0735 01        		.byte	0x1
 9979 0736 0000 0000 		.long	.LASF81
 9980 073a 04        		.byte	0x4
 9981 073b C5        		.byte	0xc5
 9982 073c 01        		.byte	0x1
 9983 073d 8900 0000 		.long	0x89
 9984 0741 0000 0000 		.long	.LFB42
 9985 0745 0000 0000 		.long	.LFE42
 9986 0749 02        		.byte	0x2
 9987 074a 90        		.byte	0x90
 9988 074b 20        		.uleb128 0x20
 9989 074c 6907 0000 		.long	0x769
 9990 0750 28        		.uleb128 0x28
 9991 0751 0000 0000 		.long	.LASF82
 9992 0755 04        		.byte	0x4
 9993 0756 C9        		.byte	0xc9
 9994 0757 8900 0000 		.long	0x89
 9995 075b 0C        		.byte	0xc
 9996 075c 62        		.byte	0x62
 9997 075d 93        		.byte	0x93
 9998 075e 01        		.uleb128 0x1
 9999 075f 63        		.byte	0x63
 10000 0760 93        		.byte	0x93
 10001 0761 01        		.uleb128 0x1
 10002 0762 64        		.byte	0x64
 10003 0763 93        		.byte	0x93
 10004 0764 01        		.uleb128 0x1
 10005 0765 65        		.byte	0x65
 10006 0766 93        		.byte	0x93
 10007 0767 01        		.uleb128 0x1
 10008 0768 00        		.byte	0x0
 10009 0769 29        		.uleb128 0x29
 10010 076a 01        		.byte	0x1
 10011 076b 0000 0000 		.long	.LASF83
 10012 076f 04        		.byte	0x4
 10013 0770 E1        		.byte	0xe1
 10014 0771 01        		.byte	0x1
 10015 0772 0000 0000 		.long	.LFB43
 10016 0776 0000 0000 		.long	.LFE43
 10017 077a 02        		.byte	0x2
 10018 077b 90        		.byte	0x90
 10019 077c 20        		.uleb128 0x20
 10020 077d 9A07 0000 		.long	0x79a
 10021 0781 2A        		.uleb128 0x2a
 10022 0782 0000 0000 		.long	.LASF82
 10023 0786 04        		.byte	0x4
 10024 0787 E0        		.byte	0xe0
 10025 0788 8900 0000 		.long	0x89
 10026 078c 0C        		.byte	0xc
 10027 078d 66        		.byte	0x66
 10028 078e 93        		.byte	0x93
 10029 078f 01        		.uleb128 0x1
 10030 0790 67        		.byte	0x67
 10031 0791 93        		.byte	0x93
 10032 0792 01        		.uleb128 0x1
GAS LISTING C:\DOCUME~1\KEUNSO~1\LOCALS~1\Temp/ccWaaqlF.s 			page 177


 10033 0793 68        		.byte	0x68
 10034 0794 93        		.byte	0x93
 10035 0795 01        		.uleb128 0x1
 10036 0796 69        		.byte	0x69
 10037 0797 93        		.byte	0x93
 10038 0798 01        		.uleb128 0x1
 10039 0799 00        		.byte	0x0
 10040 079a 25        		.uleb128 0x25
 10041 079b 01        		.byte	0x1
 10042 079c 0000 0000 		.long	.LASF84
 10043 07a0 03        		.byte	0x3
 10044 07a1 7103      		.word	0x371
 10045 07a3 01        		.byte	0x1
 10046 07a4 6800 0000 		.long	0x68
 10047 07a8 0000 0000 		.long	.LFB37
 10048 07ac 0000 0000 		.long	.LFE37
 10049 07b0 02        		.byte	0x2
 10050 07b1 90        		.byte	0x90
 10051 07b2 20        		.uleb128 0x20
 10052 07b3 E807 0000 		.long	0x7e8
 10053 07b7 1F        		.uleb128 0x1f
 10054 07b8 0000 0000 		.long	.LASF66
 10055 07bc 03        		.byte	0x3
 10056 07bd 7003      		.word	0x370
 10057 07bf 6800 0000 		.long	0x68
 10058 07c3 0000 0000 		.long	.LLST33
 10059 07c7 1F        		.uleb128 0x1f
 10060 07c8 0000 0000 		.long	.LASF71
 10061 07cc 03        		.byte	0x3
 10062 07cd 7003      		.word	0x370
 10063 07cf B503 0000 		.long	0x3b5
 10064 07d3 0000 0000 		.long	.LLST34
 10065 07d7 2B        		.uleb128 0x2b
 10066 07d8 0000 0000 		.long	.LASF63
 10067 07dc 03        		.byte	0x3
 10068 07dd 7503      		.word	0x375
 10069 07df B503 0000 		.long	0x3b5
 10070 07e3 0000 0000 		.long	.LLST35
 10071 07e7 00        		.byte	0x0
 10072 07e8 1E        		.uleb128 0x1e
 10073 07e9 01        		.byte	0x1
 10074 07ea 0000 0000 		.long	.LASF85
 10075 07ee 03        		.byte	0x3
 10076 07ef 6802      		.word	0x268
 10077 07f1 01        		.byte	0x1
 10078 07f2 0000 0000 		.long	.LFB35
 10079 07f6 0000 0000 		.long	.LFE35
 10080 07fa 02        		.byte	0x2
 10081 07fb 90        		.byte	0x90
 10082 07fc 20        		.uleb128 0x20
 10083 07fd 4E08 0000 		.long	0x84e
 10084 0801 1F        		.uleb128 0x1f
 10085 0802 0000 0000 		.long	.LASF66
 10086 0806 03        		.byte	0x3
 10087 0807 6702      		.word	0x267
 10088 0809 6800 0000 		.long	0x68
 10089 080d 0000 0000 		.long	.LLST37
GAS LISTING C:\DOCUME~1\KEUNSO~1\LOCALS~1\Temp/ccWaaqlF.s 			page 178


 10090 0811 1F        		.uleb128 0x1f
 10091 0812 0000 0000 		.long	.LASF86
 10092 0816 03        		.byte	0x3
 10093 0817 6702      		.word	0x267
 10094 0819 4E08 0000 		.long	0x84e
 10095 081d 0000 0000 		.long	.LLST38
 10096 0821 2C        		.uleb128 0x2c
 10097 0822 6572 7200 		.string	"err"
 10098 0826 03        		.byte	0x3
 10099 0827 6702      		.word	0x267
 10100 0829 4F03 0000 		.long	0x34f
 10101 082d 0000 0000 		.long	.LLST39
 10102 0831 15        		.uleb128 0x15
 10103 0832 6C65 6E00 		.string	"len"
 10104 0836 03        		.byte	0x3
 10105 0837 6C02      		.word	0x26c
 10106 0839 6800 0000 		.long	0x68
 10107 083d 2B        		.uleb128 0x2b
 10108 083e 0000 0000 		.long	.LASF63
 10109 0842 03        		.byte	0x3
 10110 0843 6D02      		.word	0x26d
 10111 0845 B503 0000 		.long	0x3b5
 10112 0849 0000 0000 		.long	.LLST40
 10113 084d 00        		.byte	0x0
 10114 084e 0F        		.uleb128 0xf
 10115 084f 02        		.byte	0x2
 10116 0850 2801 0000 		.long	0x128
 10117 0854 25        		.uleb128 0x25
 10118 0855 01        		.byte	0x1
 10119 0856 0000 0000 		.long	.LASF87
 10120 085a 03        		.byte	0x3
 10121 085b 2702      		.word	0x227
 10122 085d 01        		.byte	0x1
 10123 085e 6800 0000 		.long	0x68
 10124 0862 0000 0000 		.long	.LFB34
 10125 0866 0000 0000 		.long	.LFE34
 10126 086a 02        		.byte	0x2
 10127 086b 90        		.byte	0x90
 10128 086c 20        		.uleb128 0x20
 10129 086d C208 0000 		.long	0x8c2
 10130 0871 1F        		.uleb128 0x1f
 10131 0872 0000 0000 		.long	.LASF66
 10132 0876 03        		.byte	0x3
 10133 0877 2602      		.word	0x226
 10134 0879 6800 0000 		.long	0x68
 10135 087d 0000 0000 		.long	.LLST42
 10136 0881 1F        		.uleb128 0x1f
 10137 0882 0000 0000 		.long	.LASF86
 10138 0886 03        		.byte	0x3
 10139 0887 2602      		.word	0x226
 10140 0889 4E08 0000 		.long	0x84e
 10141 088d 0000 0000 		.long	.LLST43
 10142 0891 2C        		.uleb128 0x2c
 10143 0892 6572 7200 		.string	"err"
 10144 0896 03        		.byte	0x3
 10145 0897 2602      		.word	0x226
 10146 0899 4F03 0000 		.long	0x34f
GAS LISTING C:\DOCUME~1\KEUNSO~1\LOCALS~1\Temp/ccWaaqlF.s 			page 179


 10147 089d 0000 0000 		.long	.LLST44
 10148 08a1 2B        		.uleb128 0x2b
 10149 08a2 0000 0000 		.long	.LASF63
 10150 08a6 03        		.byte	0x3
 10151 08a7 2B02      		.word	0x22b
 10152 08a9 B503 0000 		.long	0x3b5
 10153 08ad 0000 0000 		.long	.LLST45
 10154 08b1 2D        		.uleb128 0x2d
 10155 08b2 6C65 6E00 		.string	"len"
 10156 08b6 03        		.byte	0x3
 10157 08b7 2C02      		.word	0x22c
 10158 08b9 6800 0000 		.long	0x68
 10159 08bd 0000 0000 		.long	.LLST46
 10160 08c1 00        		.byte	0x0
 10161 08c2 1E        		.uleb128 0x1e
 10162 08c3 01        		.byte	0x1
 10163 08c4 0000 0000 		.long	.LASF88
 10164 08c8 01        		.byte	0x1
 10165 08c9 2C01      		.word	0x12c
 10166 08cb 01        		.byte	0x1
 10167 08cc 0000 0000 		.long	.LFB3
 10168 08d0 0000 0000 		.long	.LFE3
 10169 08d4 02        		.byte	0x2
 10170 08d5 90        		.byte	0x90
 10171 08d6 20        		.uleb128 0x20
 10172 08d7 1809 0000 		.long	0x918
 10173 08db 1F        		.uleb128 0x1f
 10174 08dc 0000 0000 		.long	.LASF62
 10175 08e0 01        		.byte	0x1
 10176 08e1 2B01      		.word	0x12b
 10177 08e3 1503 0000 		.long	0x315
 10178 08e7 0000 0000 		.long	.LLST48
 10179 08eb 1F        		.uleb128 0x1f
 10180 08ec 0000 0000 		.long	.LASF86
 10181 08f0 01        		.byte	0x1
 10182 08f1 2B01      		.word	0x12b
 10183 08f3 4E08 0000 		.long	0x84e
 10184 08f7 0000 0000 		.long	.LLST49
 10185 08fb 2C        		.uleb128 0x2c
 10186 08fc 6572 7200 		.string	"err"
 10187 0900 01        		.byte	0x1
 10188 0901 2B01      		.word	0x12b
 10189 0903 4F03 0000 		.long	0x34f
 10190 0907 0000 0000 		.long	.LLST50
 10191 090b 15        		.uleb128 0x15
 10192 090c 6C65 6E00 		.string	"len"
 10193 0910 01        		.byte	0x1
 10194 0911 3001      		.word	0x130
 10195 0913 6800 0000 		.long	0x68
 10196 0917 00        		.byte	0x0
 10197 0918 22        		.uleb128 0x22
 10198 0919 01        		.byte	0x1
 10199 091a 0000 0000 		.long	.LASF89
 10200 091e 01        		.byte	0x1
 10201 091f E7        		.byte	0xe7
 10202 0920 01        		.byte	0x1
 10203 0921 6800 0000 		.long	0x68
GAS LISTING C:\DOCUME~1\KEUNSO~1\LOCALS~1\Temp/ccWaaqlF.s 			page 180


 10204 0925 0000 0000 		.long	.LFB2
 10205 0929 0000 0000 		.long	.LFE2
 10206 092d 02        		.byte	0x2
 10207 092e 90        		.byte	0x90
 10208 092f 20        		.uleb128 0x20
 10209 0930 7109 0000 		.long	0x971
 10210 0934 23        		.uleb128 0x23
 10211 0935 0000 0000 		.long	.LASF62
 10212 0939 01        		.byte	0x1
 10213 093a E6        		.byte	0xe6
 10214 093b 1503 0000 		.long	0x315
 10215 093f 0000 0000 		.long	.LLST52
 10216 0943 23        		.uleb128 0x23
 10217 0944 0000 0000 		.long	.LASF86
 10218 0948 01        		.byte	0x1
 10219 0949 E6        		.byte	0xe6
 10220 094a 4E08 0000 		.long	0x84e
 10221 094e 0000 0000 		.long	.LLST53
 10222 0952 2E        		.uleb128 0x2e
 10223 0953 6572 7200 		.string	"err"
 10224 0957 01        		.byte	0x1
 10225 0958 E6        		.byte	0xe6
 10226 0959 4F03 0000 		.long	0x34f
 10227 095d 0000 0000 		.long	.LLST54
 10228 0961 24        		.uleb128 0x24
 10229 0962 6C65 6E00 		.string	"len"
 10230 0966 01        		.byte	0x1
 10231 0967 EB        		.byte	0xeb
 10232 0968 6800 0000 		.long	0x68
 10233 096c 0000 0000 		.long	.LLST55
 10234 0970 00        		.byte	0x0
 10235 0971 22        		.uleb128 0x22
 10236 0972 01        		.byte	0x1
 10237 0973 0000 0000 		.long	.LASF90
 10238 0977 02        		.byte	0x2
 10239 0978 54        		.byte	0x54
 10240 0979 01        		.byte	0x1
 10241 097a 1503 0000 		.long	0x315
 10242 097e 0000 0000 		.long	.LFB27
 10243 0982 0000 0000 		.long	.LFE27
 10244 0986 02        		.byte	0x2
 10245 0987 90        		.byte	0x90
 10246 0988 20        		.uleb128 0x20
 10247 0989 D009 0000 		.long	0x9d0
 10248 098d 2E        		.uleb128 0x2e
 10249 098e 636E 7400 		.string	"cnt"
 10250 0992 02        		.byte	0x2
 10251 0993 53        		.byte	0x53
 10252 0994 7E00 0000 		.long	0x7e
 10253 0998 0000 0000 		.long	.LLST57
 10254 099c 2F        		.uleb128 0x2f
 10255 099d 0000 0000 		.long	.LASF62
 10256 09a1 02        		.byte	0x2
 10257 09a2 58        		.byte	0x58
 10258 09a3 1503 0000 		.long	0x315
 10259 09a7 0000 0000 		.long	.LLST58
 10260 09ab 30        		.uleb128 0x30
GAS LISTING C:\DOCUME~1\KEUNSO~1\LOCALS~1\Temp/ccWaaqlF.s 			page 181


 10261 09ac 2703 0000 		.long	0x327
 10262 09b0 0000 0000 		.long	.LBB18
 10263 09b4 0000 0000 		.long	.LBE18
 10264 09b8 02        		.byte	0x2
 10265 09b9 6B        		.byte	0x6b
 10266 09ba 31        		.uleb128 0x31
 10267 09bb 8805 0000 		.long	0x588
 10268 09bf 32        		.uleb128 0x32
 10269 09c0 0000 0000 		.long	.LBB19
 10270 09c4 0000 0000 		.long	.LBE19
 10271 09c8 21        		.uleb128 0x21
 10272 09c9 4203 0000 		.long	0x342
 10273 09cd 00        		.byte	0x0
 10274 09ce 00        		.byte	0x0
 10275 09cf 00        		.byte	0x0
 10276 09d0 25        		.uleb128 0x25
 10277 09d1 01        		.byte	0x1
 10278 09d2 0000 0000 		.long	.LASF91
 10279 09d6 01        		.byte	0x1
 10280 09d7 9105      		.word	0x591
 10281 09d9 01        		.byte	0x1
 10282 09da 6800 0000 		.long	0x68
 10283 09de 0000 0000 		.long	.LFB25
 10284 09e2 0000 0000 		.long	.LFE25
 10285 09e6 02        		.byte	0x2
 10286 09e7 90        		.byte	0x90
 10287 09e8 20        		.uleb128 0x20
 10288 09e9 6D0A 0000 		.long	0xa6d
 10289 09ed 1F        		.uleb128 0x1f
 10290 09ee 0000 0000 		.long	.LASF66
 10291 09f2 01        		.byte	0x1
 10292 09f3 9005      		.word	0x590
 10293 09f5 6800 0000 		.long	0x68
 10294 09f9 0000 0000 		.long	.LLST60
 10295 09fd 1F        		.uleb128 0x1f
 10296 09fe 0000 0000 		.long	.LASF92
 10297 0a02 01        		.byte	0x1
 10298 0a03 9005      		.word	0x590
 10299 0a05 0903 0000 		.long	0x309
 10300 0a09 0000 0000 		.long	.LLST61
 10301 0a0d 1F        		.uleb128 0x1f
 10302 0a0e 0000 0000 		.long	.LASF80
 10303 0a12 01        		.byte	0x1
 10304 0a13 9005      		.word	0x590
 10305 0a15 0903 0000 		.long	0x309
 10306 0a19 0000 0000 		.long	.LLST62
 10307 0a1d 2C        		.uleb128 0x2c
 10308 0a1e 6964 00   		.string	"id"
 10309 0a21 01        		.byte	0x1
 10310 0a22 9005      		.word	0x590
 10311 0a24 7E00 0000 		.long	0x7e
 10312 0a28 0000 0000 		.long	.LLST63
 10313 0a2c 1F        		.uleb128 0x1f
 10314 0a2d 0000 0000 		.long	.LASF93
 10315 0a31 01        		.byte	0x1
 10316 0a32 9005      		.word	0x590
 10317 0a34 8900 0000 		.long	0x89
GAS LISTING C:\DOCUME~1\KEUNSO~1\LOCALS~1\Temp/ccWaaqlF.s 			page 182


 10318 0a38 0000 0000 		.long	.LLST64
 10319 0a3c 1F        		.uleb128 0x1f
 10320 0a3d 0000 0000 		.long	.LASF94
 10321 0a41 01        		.byte	0x1
 10322 0a42 9005      		.word	0x590
 10323 0a44 0301 0000 		.long	0x103
 10324 0a48 0000 0000 		.long	.LLST65
 10325 0a4c 2C        		.uleb128 0x2c
 10326 0a4d 6F70 7400 		.string	"opt"
 10327 0a51 01        		.byte	0x1
 10328 0a52 9005      		.word	0x590
 10329 0a54 7E00 0000 		.long	0x7e
 10330 0a58 0000 0000 		.long	.LLST66
 10331 0a5c 2B        		.uleb128 0x2b
 10332 0a5d 0000 0000 		.long	.LASF63
 10333 0a61 01        		.byte	0x1
 10334 0a62 9505      		.word	0x595
 10335 0a64 B503 0000 		.long	0x3b5
 10336 0a68 0000 0000 		.long	.LLST67
 10337 0a6c 00        		.byte	0x0
 10338 0a6d 1E        		.uleb128 0x1e
 10339 0a6e 01        		.byte	0x1
 10340 0a6f 0000 0000 		.long	.LASF95
 10341 0a73 01        		.byte	0x1
 10342 0a74 E704      		.word	0x4e7
 10343 0a76 01        		.byte	0x1
 10344 0a77 0000 0000 		.long	.LFB22
 10345 0a7b 0000 0000 		.long	.LFE22
 10346 0a7f 02        		.byte	0x2
 10347 0a80 90        		.byte	0x90
 10348 0a81 20        		.uleb128 0x20
 10349 0a82 970A 0000 		.long	0xa97
 10350 0a86 1F        		.uleb128 0x1f
 10351 0a87 0000 0000 		.long	.LASF71
 10352 0a8b 01        		.byte	0x1
 10353 0a8c E604      		.word	0x4e6
 10354 0a8e 0301 0000 		.long	0x103
 10355 0a92 0000 0000 		.long	.LLST69
 10356 0a96 00        		.byte	0x0
 10357 0a97 10        		.uleb128 0x10
 10358 0a98 01        		.byte	0x1
 10359 0a99 0000 0000 		.long	.LASF97
 10360 0a9d 01        		.byte	0x1
 10361 0a9e B804      		.word	0x4b8
 10362 0aa0 01        		.byte	0x1
 10363 0aa1 01        		.byte	0x1
 10364 0aa2 B10A 0000 		.long	0xab1
 10365 0aa6 15        		.uleb128 0x15
 10366 0aa7 7900      		.string	"y"
 10367 0aa9 01        		.byte	0x1
 10368 0aaa BC04      		.word	0x4bc
 10369 0aac 6800 0000 		.long	0x68
 10370 0ab0 00        		.byte	0x0
 10371 0ab1 1A        		.uleb128 0x1a
 10372 0ab2 970A 0000 		.long	0xa97
 10373 0ab6 0000 0000 		.long	.LFB21
 10374 0aba 0000 0000 		.long	.LFE21
GAS LISTING C:\DOCUME~1\KEUNSO~1\LOCALS~1\Temp/ccWaaqlF.s 			page 183


 10375 0abe 02        		.byte	0x2
 10376 0abf 90        		.byte	0x90
 10377 0ac0 20        		.uleb128 0x20
 10378 0ac1 CF0A 0000 		.long	0xacf
 10379 0ac5 1C        		.uleb128 0x1c
 10380 0ac6 A60A 0000 		.long	0xaa6
 10381 0aca 0000 0000 		.long	.LLST71
 10382 0ace 00        		.byte	0x0
 10383 0acf 22        		.uleb128 0x22
 10384 0ad0 01        		.byte	0x1
 10385 0ad1 0000 0000 		.long	.LASF98
 10386 0ad5 04        		.byte	0x4
 10387 0ad6 94        		.byte	0x94
 10388 0ad7 01        		.byte	0x1
 10389 0ad8 6800 0000 		.long	0x68
 10390 0adc 0000 0000 		.long	.LFB41
 10391 0ae0 0000 0000 		.long	.LFE41
 10392 0ae4 02        		.byte	0x2
 10393 0ae5 90        		.byte	0x90
 10394 0ae6 20        		.uleb128 0x20
 10395 0ae7 0A0B 0000 		.long	0xb0a
 10396 0aeb 23        		.uleb128 0x23
 10397 0aec 0000 0000 		.long	.LASF66
 10398 0af0 04        		.byte	0x4
 10399 0af1 93        		.byte	0x93
 10400 0af2 6800 0000 		.long	0x68
 10401 0af6 0000 0000 		.long	.LLST73
 10402 0afa 2F        		.uleb128 0x2f
 10403 0afb 0000 0000 		.long	.LASF63
 10404 0aff 04        		.byte	0x4
 10405 0b00 98        		.byte	0x98
 10406 0b01 B503 0000 		.long	0x3b5
 10407 0b05 0000 0000 		.long	.LLST74
 10408 0b09 00        		.byte	0x0
 10409 0b0a 18        		.uleb128 0x18
 10410 0b0b 01        		.byte	0x1
 10411 0b0c 0000 0000 		.long	.LASF99
 10412 0b10 03        		.byte	0x3
 10413 0b11 1101      		.word	0x111
 10414 0b13 01        		.byte	0x1
 10415 0b14 6800 0000 		.long	0x68
 10416 0b18 01        		.byte	0x1
 10417 0b19 A10B 0000 		.long	0xba1
 10418 0b1d 11        		.uleb128 0x11
 10419 0b1e 0000 0000 		.long	.LASF100
 10420 0b22 03        		.byte	0x3
 10421 0b23 0801      		.word	0x108
 10422 0b25 AD0B 0000 		.long	0xbad
 10423 0b29 11        		.uleb128 0x11
 10424 0b2a 0000 0000 		.long	.LASF71
 10425 0b2e 03        		.byte	0x3
 10426 0b2f 0901      		.word	0x109
 10427 0b31 0301 0000 		.long	0x103
 10428 0b35 11        		.uleb128 0x11
 10429 0b36 0000 0000 		.long	.LASF92
 10430 0b3a 03        		.byte	0x3
 10431 0b3b 0A01      		.word	0x10a
GAS LISTING C:\DOCUME~1\KEUNSO~1\LOCALS~1\Temp/ccWaaqlF.s 			page 184


 10432 0b3d 0903 0000 		.long	0x309
 10433 0b41 11        		.uleb128 0x11
 10434 0b42 0000 0000 		.long	.LASF66
 10435 0b46 03        		.byte	0x3
 10436 0b47 0B01      		.word	0x10b
 10437 0b49 6800 0000 		.long	0x68
 10438 0b4d 19        		.uleb128 0x19
 10439 0b4e 6964 00   		.string	"id"
 10440 0b51 03        		.byte	0x3
 10441 0b52 0C01      		.word	0x10c
 10442 0b54 7E00 0000 		.long	0x7e
 10443 0b58 11        		.uleb128 0x11
 10444 0b59 0000 0000 		.long	.LASF80
 10445 0b5d 03        		.byte	0x3
 10446 0b5e 0D01      		.word	0x10d
 10447 0b60 0903 0000 		.long	0x309
 10448 0b64 11        		.uleb128 0x11
 10449 0b65 0000 0000 		.long	.LASF93
 10450 0b69 03        		.byte	0x3
 10451 0b6a 0E01      		.word	0x10e
 10452 0b6c 8900 0000 		.long	0x89
 10453 0b70 11        		.uleb128 0x11
 10454 0b71 0000 0000 		.long	.LASF94
 10455 0b75 03        		.byte	0x3
 10456 0b76 0F01      		.word	0x10f
 10457 0b78 0301 0000 		.long	0x103
 10458 0b7c 19        		.uleb128 0x19
 10459 0b7d 6F70 7400 		.string	"opt"
 10460 0b81 03        		.byte	0x3
 10461 0b82 1001      		.word	0x110
 10462 0b84 7E00 0000 		.long	0x7e
 10463 0b88 15        		.uleb128 0x15
 10464 0b89 7073 7000 		.string	"psp"
 10465 0b8d 03        		.byte	0x3
 10466 0b8e 1501      		.word	0x115
 10467 0b90 0903 0000 		.long	0x309
 10468 0b94 15        		.uleb128 0x15
 10469 0b95 6572 7200 		.string	"err"
 10470 0b99 03        		.byte	0x3
 10471 0b9a 1601      		.word	0x116
 10472 0b9c 6800 0000 		.long	0x68
 10473 0ba0 00        		.byte	0x0
 10474 0ba1 33        		.uleb128 0x33
 10475 0ba2 01        		.byte	0x1
 10476 0ba3 AD0B 0000 		.long	0xbad
 10477 0ba7 34        		.uleb128 0x34
 10478 0ba8 0301 0000 		.long	0x103
 10479 0bac 00        		.byte	0x0
 10480 0bad 0F        		.uleb128 0xf
 10481 0bae 02        		.byte	0x2
 10482 0baf A10B 0000 		.long	0xba1
 10483 0bb3 1A        		.uleb128 0x1a
 10484 0bb4 0A0B 0000 		.long	0xb0a
 10485 0bb8 0000 0000 		.long	.LFB33
 10486 0bbc 0000 0000 		.long	.LFE33
 10487 0bc0 02        		.byte	0x2
 10488 0bc1 90        		.byte	0x90
GAS LISTING C:\DOCUME~1\KEUNSO~1\LOCALS~1\Temp/ccWaaqlF.s 			page 185


 10489 0bc2 20        		.uleb128 0x20
 10490 0bc3 2B0C 0000 		.long	0xc2b
 10491 0bc7 1B        		.uleb128 0x1b
 10492 0bc8 1D0B 0000 		.long	0xb1d
 10493 0bcc 0000 0000 		.long	.LLST76
 10494 0bd0 1B        		.uleb128 0x1b
 10495 0bd1 290B 0000 		.long	0xb29
 10496 0bd5 0000 0000 		.long	.LLST77
 10497 0bd9 1B        		.uleb128 0x1b
 10498 0bda 350B 0000 		.long	0xb35
 10499 0bde 0000 0000 		.long	.LLST78
 10500 0be2 1B        		.uleb128 0x1b
 10501 0be3 410B 0000 		.long	0xb41
 10502 0be7 0000 0000 		.long	.LLST79
 10503 0beb 1B        		.uleb128 0x1b
 10504 0bec 4D0B 0000 		.long	0xb4d
 10505 0bf0 0000 0000 		.long	.LLST80
 10506 0bf4 1B        		.uleb128 0x1b
 10507 0bf5 580B 0000 		.long	0xb58
 10508 0bf9 0000 0000 		.long	.LLST81
 10509 0bfd 1B        		.uleb128 0x1b
 10510 0bfe 640B 0000 		.long	0xb64
 10511 0c02 0000 0000 		.long	.LLST82
 10512 0c06 1B        		.uleb128 0x1b
 10513 0c07 700B 0000 		.long	0xb70
 10514 0c0b 0000 0000 		.long	.LLST83
 10515 0c0f 1B        		.uleb128 0x1b
 10516 0c10 7C0B 0000 		.long	0xb7c
 10517 0c14 0000 0000 		.long	.LLST84
 10518 0c18 1C        		.uleb128 0x1c
 10519 0c19 880B 0000 		.long	0xb88
 10520 0c1d 0000 0000 		.long	.LLST85
 10521 0c21 1C        		.uleb128 0x1c
 10522 0c22 940B 0000 		.long	0xb94
 10523 0c26 0000 0000 		.long	.LLST86
 10524 0c2a 00        		.byte	0x0
 10525 0c2b 22        		.uleb128 0x22
 10526 0c2c 01        		.byte	0x1
 10527 0c2d 0000 0000 		.long	.LASF101
 10528 0c31 03        		.byte	0x3
 10529 0c32 A0        		.byte	0xa0
 10530 0c33 01        		.byte	0x1
 10531 0c34 6800 0000 		.long	0x68
 10532 0c38 0000 0000 		.long	.LFB32
 10533 0c3c 0000 0000 		.long	.LFE32
 10534 0c40 02        		.byte	0x2
 10535 0c41 90        		.byte	0x90
 10536 0c42 20        		.uleb128 0x20
 10537 0c43 A20C 0000 		.long	0xca2
 10538 0c47 23        		.uleb128 0x23
 10539 0c48 0000 0000 		.long	.LASF100
 10540 0c4c 03        		.byte	0x3
 10541 0c4d 9F        		.byte	0x9f
 10542 0c4e AD0B 0000 		.long	0xbad
 10543 0c52 0000 0000 		.long	.LLST88
 10544 0c56 23        		.uleb128 0x23
 10545 0c57 0000 0000 		.long	.LASF71
GAS LISTING C:\DOCUME~1\KEUNSO~1\LOCALS~1\Temp/ccWaaqlF.s 			page 186


 10546 0c5b 03        		.byte	0x3
 10547 0c5c 9F        		.byte	0x9f
 10548 0c5d 0301 0000 		.long	0x103
 10549 0c61 0000 0000 		.long	.LLST89
 10550 0c65 23        		.uleb128 0x23
 10551 0c66 0000 0000 		.long	.LASF92
 10552 0c6a 03        		.byte	0x3
 10553 0c6b 9F        		.byte	0x9f
 10554 0c6c 0903 0000 		.long	0x309
 10555 0c70 0000 0000 		.long	.LLST90
 10556 0c74 23        		.uleb128 0x23
 10557 0c75 0000 0000 		.long	.LASF66
 10558 0c79 03        		.byte	0x3
 10559 0c7a 9F        		.byte	0x9f
 10560 0c7b 6800 0000 		.long	0x68
 10561 0c7f 0000 0000 		.long	.LLST91
 10562 0c83 24        		.uleb128 0x24
 10563 0c84 7073 7000 		.string	"psp"
 10564 0c88 03        		.byte	0x3
 10565 0c89 A4        		.byte	0xa4
 10566 0c8a 0903 0000 		.long	0x309
 10567 0c8e 0000 0000 		.long	.LLST92
 10568 0c92 24        		.uleb128 0x24
 10569 0c93 6572 7200 		.string	"err"
 10570 0c97 03        		.byte	0x3
 10571 0c98 A5        		.byte	0xa5
 10572 0c99 6800 0000 		.long	0x68
 10573 0c9d 0000 0000 		.long	.LLST93
 10574 0ca1 00        		.byte	0x0
 10575 0ca2 25        		.uleb128 0x25
 10576 0ca3 01        		.byte	0x1
 10577 0ca4 0000 0000 		.long	.LASF102
 10578 0ca8 02        		.byte	0x2
 10579 0ca9 4101      		.word	0x141
 10580 0cab 01        		.byte	0x1
 10581 0cac 6800 0000 		.long	0x68
 10582 0cb0 0000 0000 		.long	.LFB30
 10583 0cb4 0000 0000 		.long	.LFE30
 10584 0cb8 02        		.byte	0x2
 10585 0cb9 90        		.byte	0x90
 10586 0cba 20        		.uleb128 0x20
 10587 0cbb D00C 0000 		.long	0xcd0
 10588 0cbf 1F        		.uleb128 0x1f
 10589 0cc0 0000 0000 		.long	.LASF62
 10590 0cc4 02        		.byte	0x2
 10591 0cc5 4001      		.word	0x140
 10592 0cc7 1503 0000 		.long	0x315
 10593 0ccb 0000 0000 		.long	.LLST95
 10594 0ccf 00        		.byte	0x0
 10595 0cd0 1E        		.uleb128 0x1e
 10596 0cd1 01        		.byte	0x1
 10597 0cd2 0000 0000 		.long	.LASF103
 10598 0cd6 02        		.byte	0x2
 10599 0cd7 0101      		.word	0x101
 10600 0cd9 01        		.byte	0x1
 10601 0cda 0000 0000 		.long	.LFB29
 10602 0cde 0000 0000 		.long	.LFE29
GAS LISTING C:\DOCUME~1\KEUNSO~1\LOCALS~1\Temp/ccWaaqlF.s 			page 187


 10603 0ce2 02        		.byte	0x2
 10604 0ce3 90        		.byte	0x90
 10605 0ce4 20        		.uleb128 0x20
 10606 0ce5 1A0D 0000 		.long	0xd1a
 10607 0ce9 1F        		.uleb128 0x1f
 10608 0cea 0000 0000 		.long	.LASF62
 10609 0cee 02        		.byte	0x2
 10610 0cef 0001      		.word	0x100
 10611 0cf1 1503 0000 		.long	0x315
 10612 0cf5 0000 0000 		.long	.LLST97
 10613 0cf9 1F        		.uleb128 0x1f
 10614 0cfa 0000 0000 		.long	.LASF104
 10615 0cfe 02        		.byte	0x2
 10616 0cff 0001      		.word	0x100
 10617 0d01 7E00 0000 		.long	0x7e
 10618 0d05 0000 0000 		.long	.LLST98
 10619 0d09 2C        		.uleb128 0x2c
 10620 0d0a 6572 7200 		.string	"err"
 10621 0d0e 02        		.byte	0x2
 10622 0d0f 0001      		.word	0x100
 10623 0d11 4F03 0000 		.long	0x34f
 10624 0d15 0000 0000 		.long	.LLST99
 10625 0d19 00        		.byte	0x0
 10626 0d1a 1E        		.uleb128 0x1e
 10627 0d1b 01        		.byte	0x1
 10628 0d1c 0000 0000 		.long	.LASF105
 10629 0d20 01        		.byte	0x1
 10630 0d21 8902      		.word	0x289
 10631 0d23 01        		.byte	0x1
 10632 0d24 0000 0000 		.long	.LFB9
 10633 0d28 0000 0000 		.long	.LFE9
 10634 0d2c 02        		.byte	0x2
 10635 0d2d 90        		.byte	0x90
 10636 0d2e 20        		.uleb128 0x20
 10637 0d2f 500D 0000 		.long	0xd50
 10638 0d33 2B        		.uleb128 0x2b
 10639 0d34 0000 0000 		.long	.LASF63
 10640 0d38 01        		.byte	0x1
 10641 0d39 8D02      		.word	0x28d
 10642 0d3b B503 0000 		.long	0x3b5
 10643 0d3f 0000 0000 		.long	.LLST101
 10644 0d43 12        		.uleb128 0x12
 10645 0d44 0000 0000 		.long	.LASF106
 10646 0d48 01        		.byte	0x1
 10647 0d49 8E02      		.word	0x28e
 10648 0d4b 5D00 0000 		.long	0x5d
 10649 0d4f 00        		.byte	0x0
 10650 0d50 1E        		.uleb128 0x1e
 10651 0d51 01        		.byte	0x1
 10652 0d52 0000 0000 		.long	.LASF107
 10653 0d56 01        		.byte	0x1
 10654 0d57 4202      		.word	0x242
 10655 0d59 01        		.byte	0x1
 10656 0d5a 0000 0000 		.long	.LFB7
 10657 0d5e 0000 0000 		.long	.LFE7
 10658 0d62 02        		.byte	0x2
 10659 0d63 90        		.byte	0x90
GAS LISTING C:\DOCUME~1\KEUNSO~1\LOCALS~1\Temp/ccWaaqlF.s 			page 188


 10660 0d64 20        		.uleb128 0x20
 10661 0d65 820D 0000 		.long	0xd82
 10662 0d69 2D        		.uleb128 0x2d
 10663 0d6a 7900      		.string	"y"
 10664 0d6c 01        		.byte	0x1
 10665 0d6d 4302      		.word	0x243
 10666 0d6f 6800 0000 		.long	0x68
 10667 0d73 0000 0000 		.long	.LLST103
 10668 0d77 15        		.uleb128 0x15
 10669 0d78 7800      		.string	"x"
 10670 0d7a 01        		.byte	0x1
 10671 0d7b 4402      		.word	0x244
 10672 0d7d 6800 0000 		.long	0x68
 10673 0d81 00        		.byte	0x0
 10674 0d82 16        		.uleb128 0x16
 10675 0d83 01        		.byte	0x1
 10676 0d84 0000 0000 		.long	.LASF109
 10677 0d88 01        		.byte	0x1
 10678 0d89 C001      		.word	0x1c0
 10679 0d8b 01        		.byte	0x1
 10680 0d8c 0000 0000 		.long	.LFB6
 10681 0d90 0000 0000 		.long	.LFE6
 10682 0d94 02        		.byte	0x2
 10683 0d95 90        		.byte	0x90
 10684 0d96 20        		.uleb128 0x20
 10685 0d97 10        		.uleb128 0x10
 10686 0d98 01        		.byte	0x1
 10687 0d99 0000 0000 		.long	.LASF110
 10688 0d9d 01        		.byte	0x1
 10689 0d9e 4805      		.word	0x548
 10690 0da0 01        		.byte	0x1
 10691 0da1 01        		.byte	0x1
 10692 0da2 050E 0000 		.long	0xe05
 10693 0da6 12        		.uleb128 0x12
 10694 0da7 0000 0000 		.long	.LASF63
 10695 0dab 01        		.byte	0x1
 10696 0dac 4905      		.word	0x549
 10697 0dae B503 0000 		.long	0x3b5
 10698 0db2 12        		.uleb128 0x12
 10699 0db3 0000 0000 		.long	.LASF111
 10700 0db7 01        		.byte	0x1
 10701 0db8 4A05      		.word	0x54a
 10702 0dba A501 0000 		.long	0x1a5
 10703 0dbe 15        		.uleb128 0x15
 10704 0dbf 6572 7200 		.string	"err"
 10705 0dc3 01        		.byte	0x1
 10706 0dc4 4B05      		.word	0x54b
 10707 0dc6 6800 0000 		.long	0x68
 10708 0dca 12        		.uleb128 0x12
 10709 0dcb 0000 0000 		.long	.LASF66
 10710 0dcf 01        		.byte	0x1
 10711 0dd0 4C05      		.word	0x54c
 10712 0dd2 6800 0000 		.long	0x68
 10713 0dd6 12        		.uleb128 0x12
 10714 0dd7 0000 0000 		.long	.LASF93
 10715 0ddb 01        		.byte	0x1
 10716 0ddc 4D05      		.word	0x54d
GAS LISTING C:\DOCUME~1\KEUNSO~1\LOCALS~1\Temp/ccWaaqlF.s 			page 189


 10717 0dde 8900 0000 		.long	0x89
 10718 0de2 35        		.uleb128 0x35
 10719 0de3 31        		.uleb128 0x31
 10720 0de4 B006 0000 		.long	0x6b0
 10721 0de8 31        		.uleb128 0x31
 10722 0de9 A706 0000 		.long	0x6a7
 10723 0ded 35        		.uleb128 0x35
 10724 0dee 21        		.uleb128 0x21
 10725 0def 5C06 0000 		.long	0x65c
 10726 0df3 21        		.uleb128 0x21
 10727 0df4 6806 0000 		.long	0x668
 10728 0df8 21        		.uleb128 0x21
 10729 0df9 7406 0000 		.long	0x674
 10730 0dfd 21        		.uleb128 0x21
 10731 0dfe 8006 0000 		.long	0x680
 10732 0e02 00        		.byte	0x0
 10733 0e03 00        		.byte	0x0
 10734 0e04 00        		.byte	0x0
 10735 0e05 1A        		.uleb128 0x1a
 10736 0e06 970D 0000 		.long	0xd97
 10737 0e0a 0000 0000 		.long	.LFB24
 10738 0e0e 0000 0000 		.long	.LFE24
 10739 0e12 02        		.byte	0x2
 10740 0e13 90        		.byte	0x90
 10741 0e14 20        		.uleb128 0x20
 10742 0e15 800E 0000 		.long	0xe80
 10743 0e19 1D        		.uleb128 0x1d
 10744 0e1a A60D 0000 		.long	0xda6
 10745 0e1e 06        		.byte	0x6
 10746 0e1f 6A        		.byte	0x6a
 10747 0e20 93        		.byte	0x93
 10748 0e21 01        		.uleb128 0x1
 10749 0e22 6B        		.byte	0x6b
 10750 0e23 93        		.byte	0x93
 10751 0e24 01        		.uleb128 0x1
 10752 0e25 21        		.uleb128 0x21
 10753 0e26 B20D 0000 		.long	0xdb2
 10754 0e2a 21        		.uleb128 0x21
 10755 0e2b BE0D 0000 		.long	0xdbe
 10756 0e2f 21        		.uleb128 0x21
 10757 0e30 CA0D 0000 		.long	0xdca
 10758 0e34 1C        		.uleb128 0x1c
 10759 0e35 D60D 0000 		.long	0xdd6
 10760 0e39 0000 0000 		.long	.LLST106
 10761 0e3d 36        		.uleb128 0x36
 10762 0e3e 3106 0000 		.long	0x631
 10763 0e42 0000 0000 		.long	.Ldebug_ranges0+0x0
 10764 0e46 01        		.byte	0x1
 10765 0e47 5105      		.word	0x551
 10766 0e49 31        		.uleb128 0x31
 10767 0e4a B006 0000 		.long	0x6b0
 10768 0e4e 31        		.uleb128 0x31
 10769 0e4f A706 0000 		.long	0x6a7
 10770 0e53 37        		.uleb128 0x37
 10771 0e54 0000 0000 		.long	.Ldebug_ranges0+0x28
 10772 0e58 21        		.uleb128 0x21
 10773 0e59 5C06 0000 		.long	0x65c
GAS LISTING C:\DOCUME~1\KEUNSO~1\LOCALS~1\Temp/ccWaaqlF.s 			page 190


 10774 0e5d 1C        		.uleb128 0x1c
 10775 0e5e 6806 0000 		.long	0x668
 10776 0e62 0000 0000 		.long	.LLST107
 10777 0e66 1D        		.uleb128 0x1d
 10778 0e67 7406 0000 		.long	0x674
 10779 0e6b 0C        		.byte	0xc
 10780 0e6c 62        		.byte	0x62
 10781 0e6d 93        		.byte	0x93
 10782 0e6e 01        		.uleb128 0x1
 10783 0e6f 63        		.byte	0x63
 10784 0e70 93        		.byte	0x93
 10785 0e71 01        		.uleb128 0x1
 10786 0e72 64        		.byte	0x64
 10787 0e73 93        		.byte	0x93
 10788 0e74 01        		.uleb128 0x1
 10789 0e75 65        		.byte	0x65
 10790 0e76 93        		.byte	0x93
 10791 0e77 01        		.uleb128 0x1
 10792 0e78 21        		.uleb128 0x21
 10793 0e79 8006 0000 		.long	0x680
 10794 0e7d 00        		.byte	0x0
 10795 0e7e 00        		.byte	0x0
 10796 0e7f 00        		.byte	0x0
 10797 0e80 22        		.uleb128 0x22
 10798 0e81 01        		.byte	0x1
 10799 0e82 0000 0000 		.long	.LASF112
 10800 0e86 02        		.byte	0x2
 10801 0e87 98        		.byte	0x98
 10802 0e88 01        		.byte	0x1
 10803 0e89 1503 0000 		.long	0x315
 10804 0e8d 0000 0000 		.long	.LFB28
 10805 0e91 0000 0000 		.long	.LFE28
 10806 0e95 02        		.byte	0x2
 10807 0e96 90        		.byte	0x90
 10808 0e97 20        		.uleb128 0x20
 10809 0e98 580F 0000 		.long	0xf58
 10810 0e9c 23        		.uleb128 0x23
 10811 0e9d 0000 0000 		.long	.LASF62
 10812 0ea1 02        		.byte	0x2
 10813 0ea2 97        		.byte	0x97
 10814 0ea3 1503 0000 		.long	0x315
 10815 0ea7 0000 0000 		.long	.LLST109
 10816 0eab 2E        		.uleb128 0x2e
 10817 0eac 6F70 7400 		.string	"opt"
 10818 0eb0 02        		.byte	0x2
 10819 0eb1 97        		.byte	0x97
 10820 0eb2 6800 0000 		.long	0x68
 10821 0eb6 0000 0000 		.long	.LLST110
 10822 0eba 2E        		.uleb128 0x2e
 10823 0ebb 6572 7200 		.string	"err"
 10824 0ebf 02        		.byte	0x2
 10825 0ec0 97        		.byte	0x97
 10826 0ec1 4F03 0000 		.long	0x34f
 10827 0ec5 0000 0000 		.long	.LLST111
 10828 0ec9 38        		.uleb128 0x38
 10829 0eca 0000 0000 		.long	.LASF113
 10830 0ece 02        		.byte	0x2
GAS LISTING C:\DOCUME~1\KEUNSO~1\LOCALS~1\Temp/ccWaaqlF.s 			page 191


 10831 0ecf 9C        		.byte	0x9c
 10832 0ed0 5D00 0000 		.long	0x5d
 10833 0ed4 39        		.uleb128 0x39
 10834 0ed5 2E04 0000 		.long	0x42e
 10835 0ed9 0000 0000 		.long	.LBB34
 10836 0edd 0000 0000 		.long	.LBE34
 10837 0ee1 02        		.byte	0x2
 10838 0ee2 C8        		.byte	0xc8
 10839 0ee3 330F 0000 		.long	0xf33
 10840 0ee7 31        		.uleb128 0x31
 10841 0ee8 D004 0000 		.long	0x4d0
 10842 0eec 31        		.uleb128 0x31
 10843 0eed C704 0000 		.long	0x4c7
 10844 0ef1 31        		.uleb128 0x31
 10845 0ef2 BE04 0000 		.long	0x4be
 10846 0ef6 32        		.uleb128 0x32
 10847 0ef7 0000 0000 		.long	.LBB35
 10848 0efb 0000 0000 		.long	.LBE35
 10849 0eff 1C        		.uleb128 0x1c
 10850 0f00 6504 0000 		.long	0x465
 10851 0f04 0000 0000 		.long	.LLST112
 10852 0f08 1C        		.uleb128 0x1c
 10853 0f09 7104 0000 		.long	0x471
 10854 0f0d 0000 0000 		.long	.LLST113
 10855 0f11 1C        		.uleb128 0x1c
 10856 0f12 7B04 0000 		.long	0x47b
 10857 0f16 0000 0000 		.long	.LLST114
 10858 0f1a 1C        		.uleb128 0x1c
 10859 0f1b 8504 0000 		.long	0x485
 10860 0f1f 0000 0000 		.long	.LLST115
 10861 0f23 1C        		.uleb128 0x1c
 10862 0f24 9104 0000 		.long	0x491
 10863 0f28 0000 0000 		.long	.LLST116
 10864 0f2c 21        		.uleb128 0x21
 10865 0f2d 9D04 0000 		.long	0x49d
 10866 0f31 00        		.byte	0x0
 10867 0f32 00        		.byte	0x0
 10868 0f33 30        		.uleb128 0x30
 10869 0f34 2703 0000 		.long	0x327
 10870 0f38 0000 0000 		.long	.LBB36
 10871 0f3c 0000 0000 		.long	.LBE36
 10872 0f40 02        		.byte	0x2
 10873 0f41 CD        		.byte	0xcd
 10874 0f42 31        		.uleb128 0x31
 10875 0f43 8805 0000 		.long	0x588
 10876 0f47 32        		.uleb128 0x32
 10877 0f48 0000 0000 		.long	.LBB37
 10878 0f4c 0000 0000 		.long	.LBE37
 10879 0f50 21        		.uleb128 0x21
 10880 0f51 4203 0000 		.long	0x342
 10881 0f55 00        		.byte	0x0
 10882 0f56 00        		.byte	0x0
 10883 0f57 00        		.byte	0x0
 10884 0f58 1E        		.uleb128 0x1e
 10885 0f59 01        		.byte	0x1
 10886 0f5a 0000 0000 		.long	.LASF114
 10887 0f5e 01        		.byte	0x1
GAS LISTING C:\DOCUME~1\KEUNSO~1\LOCALS~1\Temp/ccWaaqlF.s 			page 192


 10888 0f5f 6701      		.word	0x167
 10889 0f61 01        		.byte	0x1
 10890 0f62 0000 0000 		.long	.LFB4
 10891 0f66 0000 0000 		.long	.LFE4
 10892 0f6a 02        		.byte	0x2
 10893 0f6b 90        		.byte	0x90
 10894 0f6c 20        		.uleb128 0x20
 10895 0f6d C110 0000 		.long	0x10c1
 10896 0f71 3A        		.uleb128 0x3a
 10897 0f72 5503 0000 		.long	0x355
 10898 0f76 0000 0000 		.long	.LBB54
 10899 0f7a 0000 0000 		.long	.LBE54
 10900 0f7e 01        		.byte	0x1
 10901 0f7f 6C01      		.word	0x16c
 10902 0f81 3B        		.uleb128 0x3b
 10903 0f82 5F03 0000 		.long	0x35f
 10904 0f86 0000 0000 		.long	.LBB56
 10905 0f8a 0000 0000 		.long	.LBE56
 10906 0f8e 01        		.byte	0x1
 10907 0f8f 6E01      		.word	0x16e
 10908 0f91 AA0F 0000 		.long	0xfaa
 10909 0f95 32        		.uleb128 0x32
 10910 0f96 0000 0000 		.long	.LBB57
 10911 0f9a 0000 0000 		.long	.LBE57
 10912 0f9e 21        		.uleb128 0x21
 10913 0f9f 6D03 0000 		.long	0x36d
 10914 0fa3 21        		.uleb128 0x21
 10915 0fa4 7703 0000 		.long	0x377
 10916 0fa8 00        		.byte	0x0
 10917 0fa9 00        		.byte	0x0
 10918 0faa 3B        		.uleb128 0x3b
 10919 0fab 8403 0000 		.long	0x384
 10920 0faf 0000 0000 		.long	.LBB58
 10921 0fb3 0000 0000 		.long	.LBE58
 10922 0fb7 01        		.byte	0x1
 10923 0fb8 7001      		.word	0x170
 10924 0fba D80F 0000 		.long	0xfd8
 10925 0fbe 32        		.uleb128 0x32
 10926 0fbf 0000 0000 		.long	.LBB59
 10927 0fc3 0000 0000 		.long	.LBE59
 10928 0fc7 21        		.uleb128 0x21
 10929 0fc8 9203 0000 		.long	0x392
 10930 0fcc 21        		.uleb128 0x21
 10931 0fcd 9C03 0000 		.long	0x39c
 10932 0fd1 21        		.uleb128 0x21
 10933 0fd2 A803 0000 		.long	0x3a8
 10934 0fd6 00        		.byte	0x0
 10935 0fd7 00        		.byte	0x0
 10936 0fd8 3B        		.uleb128 0x3b
 10937 0fd9 BB03 0000 		.long	0x3bb
 10938 0fdd 0000 0000 		.long	.LBB60
 10939 0fe1 0000 0000 		.long	.LBE60
 10940 0fe5 01        		.byte	0x1
 10941 0fe6 7201      		.word	0x172
 10942 0fe8 0610 0000 		.long	0x1006
 10943 0fec 32        		.uleb128 0x32
 10944 0fed 0000 0000 		.long	.LBB61
GAS LISTING C:\DOCUME~1\KEUNSO~1\LOCALS~1\Temp/ccWaaqlF.s 			page 193


 10945 0ff1 0000 0000 		.long	.LBE61
 10946 0ff5 21        		.uleb128 0x21
 10947 0ff6 C903 0000 		.long	0x3c9
 10948 0ffa 21        		.uleb128 0x21
 10949 0ffb D303 0000 		.long	0x3d3
 10950 0fff 21        		.uleb128 0x21
 10951 1000 DF03 0000 		.long	0x3df
 10952 1004 00        		.byte	0x0
 10953 1005 00        		.byte	0x0
 10954 1006 3C        		.uleb128 0x3c
 10955 1007 EC03 0000 		.long	0x3ec
 10956 100b 0000 0000 		.long	.Ldebug_ranges0+0x50
 10957 100f 01        		.byte	0x1
 10958 1010 8001      		.word	0x180
 10959 1012 6510 0000 		.long	0x1065
 10960 1016 36        		.uleb128 0x36
 10961 1017 0A0B 0000 		.long	0xb0a
 10962 101b 0000 0000 		.long	.Ldebug_ranges0+0x70
 10963 101f 01        		.byte	0x1
 10964 1020 2504      		.word	0x425
 10965 1022 31        		.uleb128 0x31
 10966 1023 0F0C 0000 		.long	0xc0f
 10967 1027 31        		.uleb128 0x31
 10968 1028 060C 0000 		.long	0xc06
 10969 102c 31        		.uleb128 0x31
 10970 102d FD0B 0000 		.long	0xbfd
 10971 1031 31        		.uleb128 0x31
 10972 1032 F40B 0000 		.long	0xbf4
 10973 1036 31        		.uleb128 0x31
 10974 1037 EB0B 0000 		.long	0xbeb
 10975 103b 31        		.uleb128 0x31
 10976 103c E20B 0000 		.long	0xbe2
 10977 1040 31        		.uleb128 0x31
 10978 1041 D90B 0000 		.long	0xbd9
 10979 1045 31        		.uleb128 0x31
 10980 1046 D00B 0000 		.long	0xbd0
 10981 104a 31        		.uleb128 0x31
 10982 104b C70B 0000 		.long	0xbc7
 10983 104f 37        		.uleb128 0x37
 10984 1050 0000 0000 		.long	.Ldebug_ranges0+0x90
 10985 1054 1C        		.uleb128 0x1c
 10986 1055 880B 0000 		.long	0xb88
 10987 1059 0000 0000 		.long	.LLST118
 10988 105d 21        		.uleb128 0x21
 10989 105e 940B 0000 		.long	0xb94
 10990 1062 00        		.byte	0x0
 10991 1063 00        		.byte	0x0
 10992 1064 00        		.byte	0x0
 10993 1065 36        		.uleb128 0x36
 10994 1066 F603 0000 		.long	0x3f6
 10995 106a 0000 0000 		.long	.Ldebug_ranges0+0xb8
 10996 106e 01        		.byte	0x1
 10997 106f 8201      		.word	0x182
 10998 1071 36        		.uleb128 0x36
 10999 1072 0A0B 0000 		.long	0xb0a
 11000 1076 0000 0000 		.long	.Ldebug_ranges0+0xd8
 11001 107a 01        		.byte	0x1
GAS LISTING C:\DOCUME~1\KEUNSO~1\LOCALS~1\Temp/ccWaaqlF.s 			page 194


 11002 107b 5A04      		.word	0x45a
 11003 107d 31        		.uleb128 0x31
 11004 107e 0F0C 0000 		.long	0xc0f
 11005 1082 31        		.uleb128 0x31
 11006 1083 060C 0000 		.long	0xc06
 11007 1087 31        		.uleb128 0x31
 11008 1088 FD0B 0000 		.long	0xbfd
 11009 108c 31        		.uleb128 0x31
 11010 108d F40B 0000 		.long	0xbf4
 11011 1091 31        		.uleb128 0x31
 11012 1092 EB0B 0000 		.long	0xbeb
 11013 1096 31        		.uleb128 0x31
 11014 1097 E20B 0000 		.long	0xbe2
 11015 109b 31        		.uleb128 0x31
 11016 109c D90B 0000 		.long	0xbd9
 11017 10a0 31        		.uleb128 0x31
 11018 10a1 D00B 0000 		.long	0xbd0
 11019 10a5 31        		.uleb128 0x31
 11020 10a6 C70B 0000 		.long	0xbc7
 11021 10aa 37        		.uleb128 0x37
 11022 10ab 0000 0000 		.long	.Ldebug_ranges0+0xf8
 11023 10af 1C        		.uleb128 0x1c
 11024 10b0 880B 0000 		.long	0xb88
 11025 10b4 0000 0000 		.long	.LLST119
 11026 10b8 21        		.uleb128 0x21
 11027 10b9 940B 0000 		.long	0xb94
 11028 10bd 00        		.byte	0x0
 11029 10be 00        		.byte	0x0
 11030 10bf 00        		.byte	0x0
 11031 10c0 00        		.byte	0x0
 11032 10c1 3D        		.uleb128 0x3d
 11033 10c2 01        		.byte	0x1
 11034 10c3 0000 0000 		.long	.LASF115
 11035 10c7 04        		.byte	0x4
 11036 10c8 24        		.byte	0x24
 11037 10c9 01        		.byte	0x1
 11038 10ca 01        		.byte	0x1
 11039 10cb E410 0000 		.long	0x10e4
 11040 10cf 3E        		.uleb128 0x3e
 11041 10d0 0000 0000 		.long	.LASF82
 11042 10d4 04        		.byte	0x4
 11043 10d5 23        		.byte	0x23
 11044 10d6 7E00 0000 		.long	0x7e
 11045 10da 3F        		.uleb128 0x3f
 11046 10db 7900      		.string	"y"
 11047 10dd 04        		.byte	0x4
 11048 10de 28        		.byte	0x28
 11049 10df 6800 0000 		.long	0x68
 11050 10e3 00        		.byte	0x0
 11051 10e4 1E        		.uleb128 0x1e
 11052 10e5 01        		.byte	0x1
 11053 10e6 0000 0000 		.long	.LASF116
 11054 10ea 01        		.byte	0x1
 11055 10eb 1205      		.word	0x512
 11056 10ed 01        		.byte	0x1
 11057 10ee 0000 0000 		.long	.LFB23
 11058 10f2 0000 0000 		.long	.LFE23
GAS LISTING C:\DOCUME~1\KEUNSO~1\LOCALS~1\Temp/ccWaaqlF.s 			page 195


 11059 10f6 02        		.byte	0x2
 11060 10f7 90        		.byte	0x90
 11061 10f8 20        		.uleb128 0x20
 11062 10f9 4B12 0000 		.long	0x124b
 11063 10fd 1F        		.uleb128 0x1f
 11064 10fe 0000 0000 		.long	.LASF71
 11065 1102 01        		.byte	0x1
 11066 1103 1105      		.word	0x511
 11067 1105 0301 0000 		.long	0x103
 11068 1109 0000 0000 		.long	.LLST121
 11069 110d 2D        		.uleb128 0x2d
 11070 110e 7275 6E00 		.string	"run"
 11071 1112 01        		.byte	0x1
 11072 1113 1605      		.word	0x516
 11073 1115 8900 0000 		.long	0x89
 11074 1119 0000 0000 		.long	.LLST122
 11075 111d 2D        		.uleb128 0x2d
 11076 111e 6D61 7800 		.string	"max"
 11077 1122 01        		.byte	0x1
 11078 1123 1705      		.word	0x517
 11079 1125 8900 0000 		.long	0x89
 11080 1129 0000 0000 		.long	.LLST123
 11081 112d 2B        		.uleb128 0x2b
 11082 112e 0000 0000 		.long	.LASF117
 11083 1132 01        		.byte	0x1
 11084 1133 1805      		.word	0x518
 11085 1135 7300 0000 		.long	0x73
 11086 1139 0000 0000 		.long	.LLST124
 11087 113d 3B        		.uleb128 0x3b
 11088 113e C110 0000 		.long	0x10c1
 11089 1142 0000 0000 		.long	.LBB100
 11090 1146 0000 0000 		.long	.LBE100
 11091 114a 01        		.byte	0x1
 11092 114b 1D05      		.word	0x51d
 11093 114d 8911 0000 		.long	0x1189
 11094 1151 31        		.uleb128 0x31
 11095 1152 CF10 0000 		.long	0x10cf
 11096 1156 32        		.uleb128 0x32
 11097 1157 0000 0000 		.long	.LBB101
 11098 115b 0000 0000 		.long	.LBE101
 11099 115f 21        		.uleb128 0x21
 11100 1160 DA10 0000 		.long	0x10da
 11101 1164 30        		.uleb128 0x30
 11102 1165 970A 0000 		.long	0xa97
 11103 1169 0000 0000 		.long	.LBB102
 11104 116d 0000 0000 		.long	.LBE102
 11105 1171 04        		.byte	0x4
 11106 1172 34        		.byte	0x34
 11107 1173 32        		.uleb128 0x32
 11108 1174 0000 0000 		.long	.LBB103
 11109 1178 0000 0000 		.long	.LBE103
 11110 117c 1C        		.uleb128 0x1c
 11111 117d A60A 0000 		.long	0xaa6
 11112 1181 0000 0000 		.long	.LLST125
 11113 1185 00        		.byte	0x0
 11114 1186 00        		.byte	0x0
 11115 1187 00        		.byte	0x0
GAS LISTING C:\DOCUME~1\KEUNSO~1\LOCALS~1\Temp/ccWaaqlF.s 			page 196


 11116 1188 00        		.byte	0x0
 11117 1189 40        		.uleb128 0x40
 11118 118a C110 0000 		.long	0x10c1
 11119 118e 0000 0000 		.long	.LBB104
 11120 1192 0000 0000 		.long	.Ldebug_ranges0+0x120
 11121 1196 01        		.byte	0x1
 11122 1197 3505      		.word	0x535
 11123 1199 D111 0000 		.long	0x11d1
 11124 119d 31        		.uleb128 0x31
 11125 119e CF10 0000 		.long	0x10cf
 11126 11a2 37        		.uleb128 0x37
 11127 11a3 0000 0000 		.long	.Ldebug_ranges0+0x138
 11128 11a7 21        		.uleb128 0x21
 11129 11a8 DA10 0000 		.long	0x10da
 11130 11ac 30        		.uleb128 0x30
 11131 11ad 970A 0000 		.long	0xa97
 11132 11b1 0000 0000 		.long	.LBB106
 11133 11b5 0000 0000 		.long	.LBE106
 11134 11b9 04        		.byte	0x4
 11135 11ba 34        		.byte	0x34
 11136 11bb 32        		.uleb128 0x32
 11137 11bc 0000 0000 		.long	.LBB107
 11138 11c0 0000 0000 		.long	.LBE107
 11139 11c4 1C        		.uleb128 0x1c
 11140 11c5 A60A 0000 		.long	0xaa6
 11141 11c9 0000 0000 		.long	.LLST126
 11142 11cd 00        		.byte	0x0
 11143 11ce 00        		.byte	0x0
 11144 11cf 00        		.byte	0x0
 11145 11d0 00        		.byte	0x0
 11146 11d1 36        		.uleb128 0x36
 11147 11d2 970D 0000 		.long	0xd97
 11148 11d6 0000 0000 		.long	.Ldebug_ranges0+0x150
 11149 11da 01        		.byte	0x1
 11150 11db 3305      		.word	0x533
 11151 11dd 37        		.uleb128 0x37
 11152 11de 0000 0000 		.long	.Ldebug_ranges0+0x170
 11153 11e2 1C        		.uleb128 0x1c
 11154 11e3 A60D 0000 		.long	0xda6
 11155 11e7 0000 0000 		.long	.LLST127
 11156 11eb 21        		.uleb128 0x21
 11157 11ec B20D 0000 		.long	0xdb2
 11158 11f0 21        		.uleb128 0x21
 11159 11f1 BE0D 0000 		.long	0xdbe
 11160 11f5 21        		.uleb128 0x21
 11161 11f6 CA0D 0000 		.long	0xdca
 11162 11fa 1D        		.uleb128 0x1d
 11163 11fb D60D 0000 		.long	0xdd6
 11164 11ff 0C        		.byte	0xc
 11165 1200 5E        		.byte	0x5e
 11166 1201 93        		.byte	0x93
 11167 1202 01        		.uleb128 0x1
 11168 1203 5F        		.byte	0x5f
 11169 1204 93        		.byte	0x93
 11170 1205 01        		.uleb128 0x1
 11171 1206 60        		.byte	0x60
 11172 1207 93        		.byte	0x93
GAS LISTING C:\DOCUME~1\KEUNSO~1\LOCALS~1\Temp/ccWaaqlF.s 			page 197


 11173 1208 01        		.uleb128 0x1
 11174 1209 61        		.byte	0x61
 11175 120a 93        		.byte	0x93
 11176 120b 01        		.uleb128 0x1
 11177 120c 36        		.uleb128 0x36
 11178 120d 3106 0000 		.long	0x631
 11179 1211 0000 0000 		.long	.Ldebug_ranges0+0x190
 11180 1215 01        		.byte	0x1
 11181 1216 5105      		.word	0x551
 11182 1218 31        		.uleb128 0x31
 11183 1219 B006 0000 		.long	0x6b0
 11184 121d 31        		.uleb128 0x31
 11185 121e A706 0000 		.long	0x6a7
 11186 1222 37        		.uleb128 0x37
 11187 1223 0000 0000 		.long	.Ldebug_ranges0+0x1b8
 11188 1227 21        		.uleb128 0x21
 11189 1228 5C06 0000 		.long	0x65c
 11190 122c 1D        		.uleb128 0x1d
 11191 122d 6806 0000 		.long	0x668
 11192 1231 06        		.byte	0x6
 11193 1232 6C        		.byte	0x6c
 11194 1233 93        		.byte	0x93
 11195 1234 01        		.uleb128 0x1
 11196 1235 6D        		.byte	0x6d
 11197 1236 93        		.byte	0x93
 11198 1237 01        		.uleb128 0x1
 11199 1238 1C        		.uleb128 0x1c
 11200 1239 7406 0000 		.long	0x674
 11201 123d 0000 0000 		.long	.LLST128
 11202 1241 21        		.uleb128 0x21
 11203 1242 8006 0000 		.long	0x680
 11204 1246 00        		.byte	0x0
 11205 1247 00        		.byte	0x0
 11206 1248 00        		.byte	0x0
 11207 1249 00        		.byte	0x0
 11208 124a 00        		.byte	0x0
 11209 124b 1A        		.uleb128 0x1a
 11210 124c C110 0000 		.long	0x10c1
 11211 1250 0000 0000 		.long	.LFB39
 11212 1254 0000 0000 		.long	.LFE39
 11213 1258 02        		.byte	0x2
 11214 1259 90        		.byte	0x90
 11215 125a 20        		.uleb128 0x20
 11216 125b 9112 0000 		.long	0x1291
 11217 125f 1B        		.uleb128 0x1b
 11218 1260 CF10 0000 		.long	0x10cf
 11219 1264 0000 0000 		.long	.LLST130
 11220 1268 21        		.uleb128 0x21
 11221 1269 DA10 0000 		.long	0x10da
 11222 126d 30        		.uleb128 0x30
 11223 126e 970A 0000 		.long	0xa97
 11224 1272 0000 0000 		.long	.LBB126
 11225 1276 0000 0000 		.long	.LBE126
 11226 127a 04        		.byte	0x4
 11227 127b 34        		.byte	0x34
 11228 127c 32        		.uleb128 0x32
 11229 127d 0000 0000 		.long	.LBB127
GAS LISTING C:\DOCUME~1\KEUNSO~1\LOCALS~1\Temp/ccWaaqlF.s 			page 198


 11230 1281 0000 0000 		.long	.LBE127
 11231 1285 1C        		.uleb128 0x1c
 11232 1286 A60A 0000 		.long	0xaa6
 11233 128a 0000 0000 		.long	.LLST131
 11234 128e 00        		.byte	0x0
 11235 128f 00        		.byte	0x0
 11236 1290 00        		.byte	0x0
 11237 1291 1E        		.uleb128 0x1e
 11238 1292 01        		.byte	0x1
 11239 1293 0000 0000 		.long	.LASF118
 11240 1297 01        		.byte	0x1
 11241 1298 6802      		.word	0x268
 11242 129a 01        		.byte	0x1
 11243 129b 0000 0000 		.long	.LFB8
 11244 129f 0000 0000 		.long	.LFE8
 11245 12a3 02        		.byte	0x2
 11246 12a4 90        		.byte	0x90
 11247 12a5 20        		.uleb128 0x20
 11248 12a6 3F13 0000 		.long	0x133f
 11249 12aa 3B        		.uleb128 0x3b
 11250 12ab C110 0000 		.long	0x10c1
 11251 12af 0000 0000 		.long	.LBB136
 11252 12b3 0000 0000 		.long	.LBE136
 11253 12b7 01        		.byte	0x1
 11254 12b8 6E02      		.word	0x26e
 11255 12ba F612 0000 		.long	0x12f6
 11256 12be 31        		.uleb128 0x31
 11257 12bf 5F12 0000 		.long	0x125f
 11258 12c3 32        		.uleb128 0x32
 11259 12c4 0000 0000 		.long	.LBB137
 11260 12c8 0000 0000 		.long	.LBE137
 11261 12cc 21        		.uleb128 0x21
 11262 12cd DA10 0000 		.long	0x10da
 11263 12d1 30        		.uleb128 0x30
 11264 12d2 970A 0000 		.long	0xa97
 11265 12d6 0000 0000 		.long	.LBB138
 11266 12da 0000 0000 		.long	.LBE138
 11267 12de 04        		.byte	0x4
 11268 12df 34        		.byte	0x34
 11269 12e0 32        		.uleb128 0x32
 11270 12e1 0000 0000 		.long	.LBB139
 11271 12e5 0000 0000 		.long	.LBE139
 11272 12e9 1C        		.uleb128 0x1c
 11273 12ea A60A 0000 		.long	0xaa6
 11274 12ee 0000 0000 		.long	.LLST133
 11275 12f2 00        		.byte	0x0
 11276 12f3 00        		.byte	0x0
 11277 12f4 00        		.byte	0x0
 11278 12f5 00        		.byte	0x0
 11279 12f6 41        		.uleb128 0x41
 11280 12f7 C110 0000 		.long	0x10c1
 11281 12fb 0000 0000 		.long	.LBB140
 11282 12ff 0000 0000 		.long	.LBE140
 11283 1303 01        		.byte	0x1
 11284 1304 7202      		.word	0x272
 11285 1306 31        		.uleb128 0x31
 11286 1307 5F12 0000 		.long	0x125f
GAS LISTING C:\DOCUME~1\KEUNSO~1\LOCALS~1\Temp/ccWaaqlF.s 			page 199


 11287 130b 32        		.uleb128 0x32
 11288 130c 0000 0000 		.long	.LBB141
 11289 1310 0000 0000 		.long	.LBE141
 11290 1314 21        		.uleb128 0x21
 11291 1315 DA10 0000 		.long	0x10da
 11292 1319 30        		.uleb128 0x30
 11293 131a 970A 0000 		.long	0xa97
 11294 131e 0000 0000 		.long	.LBB142
 11295 1322 0000 0000 		.long	.LBE142
 11296 1326 04        		.byte	0x4
 11297 1327 34        		.byte	0x34
 11298 1328 32        		.uleb128 0x32
 11299 1329 0000 0000 		.long	.LBB143
 11300 132d 0000 0000 		.long	.LBE143
 11301 1331 1C        		.uleb128 0x1c
 11302 1332 A60A 0000 		.long	0xaa6
 11303 1336 0000 0000 		.long	.LLST134
 11304 133a 00        		.byte	0x0
 11305 133b 00        		.byte	0x0
 11306 133c 00        		.byte	0x0
 11307 133d 00        		.byte	0x0
 11308 133e 00        		.byte	0x0
 11309 133f 22        		.uleb128 0x22
 11310 1340 01        		.byte	0x1
 11311 1341 0000 0000 		.long	.LASF119
 11312 1345 04        		.byte	0x4
 11313 1346 53        		.byte	0x53
 11314 1347 01        		.byte	0x1
 11315 1348 6800 0000 		.long	0x68
 11316 134c 0000 0000 		.long	.LFB40
 11317 1350 0000 0000 		.long	.LFE40
 11318 1354 02        		.byte	0x2
 11319 1355 90        		.byte	0x90
 11320 1356 20        		.uleb128 0x20
 11321 1357 9314 0000 		.long	0x1493
 11322 135b 23        		.uleb128 0x23
 11323 135c 0000 0000 		.long	.LASF120
 11324 1360 04        		.byte	0x4
 11325 1361 52        		.byte	0x52
 11326 1362 6800 0000 		.long	0x68
 11327 1366 0000 0000 		.long	.LLST136
 11328 136a 23        		.uleb128 0x23
 11329 136b 0000 0000 		.long	.LASF121
 11330 136f 04        		.byte	0x4
 11331 1370 52        		.byte	0x52
 11332 1371 6800 0000 		.long	0x68
 11333 1375 0000 0000 		.long	.LLST137
 11334 1379 23        		.uleb128 0x23
 11335 137a 0000 0000 		.long	.LASF122
 11336 137e 04        		.byte	0x4
 11337 137f 52        		.byte	0x52
 11338 1380 6800 0000 		.long	0x68
 11339 1384 0000 0000 		.long	.LLST138
 11340 1388 23        		.uleb128 0x23
 11341 1389 0000 0000 		.long	.LASF123
 11342 138d 04        		.byte	0x4
 11343 138e 52        		.byte	0x52
GAS LISTING C:\DOCUME~1\KEUNSO~1\LOCALS~1\Temp/ccWaaqlF.s 			page 200


 11344 138f 7E00 0000 		.long	0x7e
 11345 1393 0000 0000 		.long	.LLST139
 11346 1397 2F        		.uleb128 0x2f
 11347 1398 0000 0000 		.long	.LASF82
 11348 139c 04        		.byte	0x4
 11349 139d 54        		.byte	0x54
 11350 139e 8900 0000 		.long	0x89
 11351 13a2 0000 0000 		.long	.LLST140
 11352 13a6 2F        		.uleb128 0x2f
 11353 13a7 0000 0000 		.long	.LASF124
 11354 13ab 04        		.byte	0x4
 11355 13ac 55        		.byte	0x55
 11356 13ad 7E00 0000 		.long	0x7e
 11357 13b1 0000 0000 		.long	.LLST141
 11358 13b5 39        		.uleb128 0x39
 11359 13b6 C110 0000 		.long	0x10c1
 11360 13ba 0000 0000 		.long	.LBB156
 11361 13be 0000 0000 		.long	.LBE156
 11362 13c2 04        		.byte	0x4
 11363 13c3 70        		.byte	0x70
 11364 13c4 0014 0000 		.long	0x1400
 11365 13c8 31        		.uleb128 0x31
 11366 13c9 5F12 0000 		.long	0x125f
 11367 13cd 32        		.uleb128 0x32
 11368 13ce 0000 0000 		.long	.LBB157
 11369 13d2 0000 0000 		.long	.LBE157
 11370 13d6 21        		.uleb128 0x21
 11371 13d7 DA10 0000 		.long	0x10da
 11372 13db 30        		.uleb128 0x30
 11373 13dc 970A 0000 		.long	0xa97
 11374 13e0 0000 0000 		.long	.LBB158
 11375 13e4 0000 0000 		.long	.LBE158
 11376 13e8 04        		.byte	0x4
 11377 13e9 34        		.byte	0x34
 11378 13ea 32        		.uleb128 0x32
 11379 13eb 0000 0000 		.long	.LBB159
 11380 13ef 0000 0000 		.long	.LBE159
 11381 13f3 1C        		.uleb128 0x1c
 11382 13f4 A60A 0000 		.long	0xaa6
 11383 13f8 0000 0000 		.long	.LLST142
 11384 13fc 00        		.byte	0x0
 11385 13fd 00        		.byte	0x0
 11386 13fe 00        		.byte	0x0
 11387 13ff 00        		.byte	0x0
 11388 1400 39        		.uleb128 0x39
 11389 1401 C110 0000 		.long	0x10c1
 11390 1405 0000 0000 		.long	.LBB160
 11391 1409 0000 0000 		.long	.LBE160
 11392 140d 04        		.byte	0x4
 11393 140e 72        		.byte	0x72
 11394 140f 4B14 0000 		.long	0x144b
 11395 1413 31        		.uleb128 0x31
 11396 1414 5F12 0000 		.long	0x125f
 11397 1418 32        		.uleb128 0x32
 11398 1419 0000 0000 		.long	.LBB161
 11399 141d 0000 0000 		.long	.LBE161
 11400 1421 21        		.uleb128 0x21
GAS LISTING C:\DOCUME~1\KEUNSO~1\LOCALS~1\Temp/ccWaaqlF.s 			page 201


 11401 1422 DA10 0000 		.long	0x10da
 11402 1426 30        		.uleb128 0x30
 11403 1427 970A 0000 		.long	0xa97
 11404 142b 0000 0000 		.long	.LBB162
 11405 142f 0000 0000 		.long	.LBE162
 11406 1433 04        		.byte	0x4
 11407 1434 34        		.byte	0x34
 11408 1435 32        		.uleb128 0x32
 11409 1436 0000 0000 		.long	.LBB163
 11410 143a 0000 0000 		.long	.LBE163
 11411 143e 1C        		.uleb128 0x1c
 11412 143f A60A 0000 		.long	0xaa6
 11413 1443 0000 0000 		.long	.LLST143
 11414 1447 00        		.byte	0x0
 11415 1448 00        		.byte	0x0
 11416 1449 00        		.byte	0x0
 11417 144a 00        		.byte	0x0
 11418 144b 30        		.uleb128 0x30
 11419 144c C110 0000 		.long	0x10c1
 11420 1450 0000 0000 		.long	.LBB164
 11421 1454 0000 0000 		.long	.LBE164
 11422 1458 04        		.byte	0x4
 11423 1459 73        		.byte	0x73
 11424 145a 31        		.uleb128 0x31
 11425 145b 5F12 0000 		.long	0x125f
 11426 145f 32        		.uleb128 0x32
 11427 1460 0000 0000 		.long	.LBB165
 11428 1464 0000 0000 		.long	.LBE165
 11429 1468 21        		.uleb128 0x21
 11430 1469 DA10 0000 		.long	0x10da
 11431 146d 30        		.uleb128 0x30
 11432 146e 970A 0000 		.long	0xa97
 11433 1472 0000 0000 		.long	.LBB166
 11434 1476 0000 0000 		.long	.LBE166
 11435 147a 04        		.byte	0x4
 11436 147b 34        		.byte	0x34
 11437 147c 32        		.uleb128 0x32
 11438 147d 0000 0000 		.long	.LBB167
 11439 1481 0000 0000 		.long	.LBE167
 11440 1485 1C        		.uleb128 0x1c
 11441 1486 A60A 0000 		.long	0xaa6
 11442 148a 0000 0000 		.long	.LLST144
 11443 148e 00        		.byte	0x0
 11444 148f 00        		.byte	0x0
 11445 1490 00        		.byte	0x0
 11446 1491 00        		.byte	0x0
 11447 1492 00        		.byte	0x0
 11448 1493 42        		.uleb128 0x42
 11449 1494 0000 0000 		.long	.LASF125
 11450 1498 06        		.byte	0x6
 11451 1499 D101      		.word	0x1d1
 11452 149b 8900 0000 		.long	0x89
 11453 149f 01        		.byte	0x1
 11454 14a0 05        		.byte	0x5
 11455 14a1 03        		.byte	0x3
 11456 14a2 0000 0000 		.long	OSCtxSwCtr
 11457 14a6 42        		.uleb128 0x42
GAS LISTING C:\DOCUME~1\KEUNSO~1\LOCALS~1\Temp/ccWaaqlF.s 			page 202


 11458 14a7 0000 0000 		.long	.LASF126
 11459 14ab 06        		.byte	0x6
 11460 14ac D401      		.word	0x1d4
 11461 14ae 1503 0000 		.long	0x315
 11462 14b2 01        		.byte	0x1
 11463 14b3 05        		.byte	0x5
 11464 14b4 03        		.byte	0x3
 11465 14b5 0000 0000 		.long	OSEventFreeList
 11466 14b9 08        		.uleb128 0x8
 11467 14ba 2F01 0000 		.long	0x12f
 11468 14be C914 0000 		.long	0x14c9
 11469 14c2 09        		.uleb128 0x9
 11470 14c3 1501 0000 		.long	0x115
 11471 14c7 02        		.byte	0x2
 11472 14c8 00        		.byte	0x0
 11473 14c9 42        		.uleb128 0x42
 11474 14ca 0000 0000 		.long	.LASF18
 11475 14ce 06        		.byte	0x6
 11476 14cf D501      		.word	0x1d5
 11477 14d1 B914 0000 		.long	0x14b9
 11478 14d5 01        		.byte	0x1
 11479 14d6 05        		.byte	0x5
 11480 14d7 03        		.byte	0x3
 11481 14d8 0000 0000 		.long	OSEventTbl
 11482 14dc 42        		.uleb128 0x42
 11483 14dd 0000 0000 		.long	.LASF127
 11484 14e1 06        		.byte	0x6
 11485 14e2 DE01      		.word	0x1de
 11486 14e4 7300 0000 		.long	0x73
 11487 14e8 01        		.byte	0x1
 11488 14e9 05        		.byte	0x5
 11489 14ea 03        		.byte	0x3
 11490 14eb 0000 0000 		.long	OSCPUUsage
 11491 14ef 42        		.uleb128 0x42
 11492 14f0 0000 0000 		.long	.LASF128
 11493 14f4 06        		.byte	0x6
 11494 14f5 DF01      		.word	0x1df
 11495 14f7 8900 0000 		.long	0x89
 11496 14fb 01        		.byte	0x1
 11497 14fc 05        		.byte	0x5
 11498 14fd 03        		.byte	0x3
 11499 14fe 0000 0000 		.long	OSIdleCtrMax
 11500 1502 42        		.uleb128 0x42
 11501 1503 0000 0000 		.long	.LASF129
 11502 1507 06        		.byte	0x6
 11503 1508 E001      		.word	0x1e0
 11504 150a 8900 0000 		.long	0x89
 11505 150e 01        		.byte	0x1
 11506 150f 05        		.byte	0x5
 11507 1510 03        		.byte	0x3
 11508 1511 0000 0000 		.long	OSIdleCtrRun
 11509 1515 42        		.uleb128 0x42
 11510 1516 0000 0000 		.long	.LASF130
 11511 151a 06        		.byte	0x6
 11512 151b E101      		.word	0x1e1
 11513 151d 5D00 0000 		.long	0x5d
 11514 1521 01        		.byte	0x1
GAS LISTING C:\DOCUME~1\KEUNSO~1\LOCALS~1\Temp/ccWaaqlF.s 			page 203


 11515 1522 05        		.byte	0x5
 11516 1523 03        		.byte	0x3
 11517 1524 0000 0000 		.long	OSStatRdy
 11518 1528 08        		.uleb128 0x8
 11519 1529 9B00 0000 		.long	0x9b
 11520 152d 3915 0000 		.long	0x1539
 11521 1531 43        		.uleb128 0x43
 11522 1532 1501 0000 		.long	0x115
 11523 1536 FF01      		.word	0x1ff
 11524 1538 00        		.byte	0x0
 11525 1539 42        		.uleb128 0x42
 11526 153a 0000 0000 		.long	.LASF131
 11527 153e 06        		.byte	0x6
 11528 153f E201      		.word	0x1e2
 11529 1541 2815 0000 		.long	0x1528
 11530 1545 01        		.byte	0x1
 11531 1546 05        		.byte	0x5
 11532 1547 03        		.byte	0x3
 11533 1548 0000 0000 		.long	OSTaskStatStk
 11534 154c 42        		.uleb128 0x42
 11535 154d 0000 0000 		.long	.LASF132
 11536 1551 06        		.byte	0x6
 11537 1552 E501      		.word	0x1e5
 11538 1554 6800 0000 		.long	0x68
 11539 1558 01        		.byte	0x1
 11540 1559 05        		.byte	0x5
 11541 155a 03        		.byte	0x3
 11542 155b 0000 0000 		.long	OSIntNesting
 11543 155f 42        		.uleb128 0x42
 11544 1560 0000 0000 		.long	.LASF133
 11545 1564 06        		.byte	0x6
 11546 1565 E601      		.word	0x1e6
 11547 1567 6800 0000 		.long	0x68
 11548 156b 01        		.byte	0x1
 11549 156c 05        		.byte	0x5
 11550 156d 03        		.byte	0x3
 11551 156e 0000 0000 		.long	OSIntExitY
 11552 1572 42        		.uleb128 0x42
 11553 1573 0000 0000 		.long	.LASF134
 11554 1577 06        		.byte	0x6
 11555 1578 E801      		.word	0x1e8
 11556 157a 6800 0000 		.long	0x68
 11557 157e 01        		.byte	0x1
 11558 157f 05        		.byte	0x5
 11559 1580 03        		.byte	0x3
 11560 1581 0000 0000 		.long	OSLockNesting
 11561 1585 42        		.uleb128 0x42
 11562 1586 0000 0000 		.long	.LASF135
 11563 158a 06        		.byte	0x6
 11564 158b EA01      		.word	0x1ea
 11565 158d 6800 0000 		.long	0x68
 11566 1591 01        		.byte	0x1
 11567 1592 05        		.byte	0x5
 11568 1593 03        		.byte	0x3
 11569 1594 0000 0000 		.long	OSPrioCur
 11570 1598 42        		.uleb128 0x42
 11571 1599 0000 0000 		.long	.LASF136
GAS LISTING C:\DOCUME~1\KEUNSO~1\LOCALS~1\Temp/ccWaaqlF.s 			page 204


 11572 159d 06        		.byte	0x6
 11573 159e EB01      		.word	0x1eb
 11574 15a0 6800 0000 		.long	0x68
 11575 15a4 01        		.byte	0x1
 11576 15a5 05        		.byte	0x5
 11577 15a6 03        		.byte	0x3
 11578 15a7 0000 0000 		.long	OSPrioHighRdy
 11579 15ab 42        		.uleb128 0x42
 11580 15ac 0000 0000 		.long	.LASF137
 11581 15b0 06        		.byte	0x6
 11582 15b1 ED01      		.word	0x1ed
 11583 15b3 6800 0000 		.long	0x68
 11584 15b7 01        		.byte	0x1
 11585 15b8 05        		.byte	0x5
 11586 15b9 03        		.byte	0x3
 11587 15ba 0000 0000 		.long	OSRdyGrp
 11588 15be 42        		.uleb128 0x42
 11589 15bf 0000 0000 		.long	.LASF138
 11590 15c3 06        		.byte	0x6
 11591 15c4 EE01      		.word	0x1ee
 11592 15c6 0501 0000 		.long	0x105
 11593 15ca 01        		.byte	0x1
 11594 15cb 05        		.byte	0x5
 11595 15cc 03        		.byte	0x3
 11596 15cd 0000 0000 		.long	OSRdyTbl
 11597 15d1 42        		.uleb128 0x42
 11598 15d2 0000 0000 		.long	.LASF139
 11599 15d6 06        		.byte	0x6
 11600 15d7 F001      		.word	0x1f0
 11601 15d9 5D00 0000 		.long	0x5d
 11602 15dd 01        		.byte	0x1
 11603 15de 05        		.byte	0x5
 11604 15df 03        		.byte	0x3
 11605 15e0 0000 0000 		.long	OSRunning
 11606 15e4 42        		.uleb128 0x42
 11607 15e5 0000 0000 		.long	.LASF140
 11608 15e9 06        		.byte	0x6
 11609 15ea F201      		.word	0x1f2
 11610 15ec 6800 0000 		.long	0x68
 11611 15f0 01        		.byte	0x1
 11612 15f1 05        		.byte	0x5
 11613 15f2 03        		.byte	0x3
 11614 15f3 0000 0000 		.long	OSTaskCtr
 11615 15f7 42        		.uleb128 0x42
 11616 15f8 0000 0000 		.long	.LASF141
 11617 15fc 06        		.byte	0x6
 11618 15fd F401      		.word	0x1f4
 11619 15ff 0A16 0000 		.long	0x160a
 11620 1603 01        		.byte	0x1
 11621 1604 05        		.byte	0x5
 11622 1605 03        		.byte	0x3
 11623 1606 0000 0000 		.long	OSIdleCtr
 11624 160a 44        		.uleb128 0x44
 11625 160b 8900 0000 		.long	0x89
 11626 160f 42        		.uleb128 0x42
 11627 1610 0000 0000 		.long	.LASF142
 11628 1614 06        		.byte	0x6
GAS LISTING C:\DOCUME~1\KEUNSO~1\LOCALS~1\Temp/ccWaaqlF.s 			page 205


 11629 1615 F601      		.word	0x1f6
 11630 1617 2815 0000 		.long	0x1528
 11631 161b 01        		.byte	0x1
 11632 161c 05        		.byte	0x5
 11633 161d 03        		.byte	0x3
 11634 161e 0000 0000 		.long	OSTaskIdleStk
 11635 1622 42        		.uleb128 0x42
 11636 1623 0000 0000 		.long	.LASF143
 11637 1627 06        		.byte	0x6
 11638 1628 F901      		.word	0x1f9
 11639 162a B503 0000 		.long	0x3b5
 11640 162e 01        		.byte	0x1
 11641 162f 05        		.byte	0x5
 11642 1630 03        		.byte	0x3
 11643 1631 0000 0000 		.long	OSTCBCur
 11644 1635 42        		.uleb128 0x42
 11645 1636 0000 0000 		.long	.LASF144
 11646 163a 06        		.byte	0x6
 11647 163b FA01      		.word	0x1fa
 11648 163d B503 0000 		.long	0x3b5
 11649 1641 01        		.byte	0x1
 11650 1642 05        		.byte	0x5
 11651 1643 03        		.byte	0x3
 11652 1644 0000 0000 		.long	OSTCBFreeList
 11653 1648 42        		.uleb128 0x42
 11654 1649 0000 0000 		.long	.LASF145
 11655 164d 06        		.byte	0x6
 11656 164e FB01      		.word	0x1fb
 11657 1650 B503 0000 		.long	0x3b5
 11658 1654 01        		.byte	0x1
 11659 1655 05        		.byte	0x5
 11660 1656 03        		.byte	0x3
 11661 1657 0000 0000 		.long	OSTCBHighRdy
 11662 165b 42        		.uleb128 0x42
 11663 165c 0000 0000 		.long	.LASF146
 11664 1660 06        		.byte	0x6
 11665 1661 FC01      		.word	0x1fc
 11666 1663 B503 0000 		.long	0x3b5
 11667 1667 01        		.byte	0x1
 11668 1668 05        		.byte	0x5
 11669 1669 03        		.byte	0x3
 11670 166a 0000 0000 		.long	OSTCBList
 11671 166e 08        		.uleb128 0x8
 11672 166f B503 0000 		.long	0x3b5
 11673 1673 7E16 0000 		.long	0x167e
 11674 1677 09        		.uleb128 0x9
 11675 1678 1501 0000 		.long	0x115
 11676 167c 0C        		.byte	0xc
 11677 167d 00        		.byte	0x0
 11678 167e 42        		.uleb128 0x42
 11679 167f 0000 0000 		.long	.LASF147
 11680 1683 06        		.byte	0x6
 11681 1684 FD01      		.word	0x1fd
 11682 1686 6E16 0000 		.long	0x166e
 11683 168a 01        		.byte	0x1
 11684 168b 05        		.byte	0x5
 11685 168c 03        		.byte	0x3
GAS LISTING C:\DOCUME~1\KEUNSO~1\LOCALS~1\Temp/ccWaaqlF.s 			page 206


 11686 168d 0000 0000 		.long	OSTCBPrioTbl
 11687 1691 08        		.uleb128 0x8
 11688 1692 1B03 0000 		.long	0x31b
 11689 1696 A116 0000 		.long	0x16a1
 11690 169a 09        		.uleb128 0x9
 11691 169b 1501 0000 		.long	0x115
 11692 169f 0C        		.byte	0xc
 11693 16a0 00        		.byte	0x0
 11694 16a1 42        		.uleb128 0x42
 11695 16a2 0000 0000 		.long	.LASF148
 11696 16a6 06        		.byte	0x6
 11697 16a7 FE01      		.word	0x1fe
 11698 16a9 9116 0000 		.long	0x1691
 11699 16ad 01        		.byte	0x1
 11700 16ae 05        		.byte	0x5
 11701 16af 03        		.byte	0x3
 11702 16b0 0000 0000 		.long	OSTCBTbl
 11703 16b4 42        		.uleb128 0x42
 11704 16b5 0000 0000 		.long	.LASF149
 11705 16b9 06        		.byte	0x6
 11706 16ba 0F02      		.word	0x20f
 11707 16bc 0A16 0000 		.long	0x160a
 11708 16c0 01        		.byte	0x1
 11709 16c1 05        		.byte	0x5
 11710 16c2 03        		.byte	0x3
 11711 16c3 0000 0000 		.long	OSTime
 11712 16c7 08        		.uleb128 0x8
 11713 16c8 6800 0000 		.long	0x68
 11714 16cc D716 0000 		.long	0x16d7
 11715 16d0 09        		.uleb128 0x9
 11716 16d1 1501 0000 		.long	0x115
 11717 16d5 07        		.byte	0x7
 11718 16d6 00        		.byte	0x0
 11719 16d7 45        		.uleb128 0x45
 11720 16d8 0000 0000 		.long	.LASF150
 11721 16dc 01        		.byte	0x1
 11722 16dd 1D        		.byte	0x1d
 11723 16de E916 0000 		.long	0x16e9
 11724 16e2 01        		.byte	0x1
 11725 16e3 05        		.byte	0x5
 11726 16e4 03        		.byte	0x3
 11727 16e5 0000 0000 		.long	OSMapTbl
 11728 16e9 46        		.uleb128 0x46
 11729 16ea C716 0000 		.long	0x16c7
 11730 16ee 08        		.uleb128 0x8
 11731 16ef 6800 0000 		.long	0x68
 11732 16f3 FE16 0000 		.long	0x16fe
 11733 16f7 09        		.uleb128 0x9
 11734 16f8 1501 0000 		.long	0x115
 11735 16fc FF        		.byte	0xff
 11736 16fd 00        		.byte	0x0
 11737 16fe 45        		.uleb128 0x45
 11738 16ff 0000 0000 		.long	.LASF151
 11739 1703 01        		.byte	0x1
 11740 1704 28        		.byte	0x28
 11741 1705 1017 0000 		.long	0x1710
 11742 1709 01        		.byte	0x1
GAS LISTING C:\DOCUME~1\KEUNSO~1\LOCALS~1\Temp/ccWaaqlF.s 			page 207


 11743 170a 05        		.byte	0x5
 11744 170b 03        		.byte	0x3
 11745 170c 0000 0000 		.long	OSUnMapTbl
 11746 1710 46        		.uleb128 0x46
 11747 1711 EE16 0000 		.long	0x16ee
 11748 1715 45        		.uleb128 0x45
 11749 1716 0000 0000 		.long	.LASF152
 11750 171a 01        		.byte	0x1
 11751 171b 42        		.byte	0x42
 11752 171c 2717 0000 		.long	0x1727
 11753 1720 01        		.byte	0x1
 11754 1721 05        		.byte	0x5
 11755 1722 03        		.byte	0x3
 11756 1723 0000 0000 		.long	OSDebugEn
 11757 1727 46        		.uleb128 0x46
 11758 1728 7E00 0000 		.long	0x7e
 11759 172c 00        		.byte	0x0
 11760               		.section	.debug_abbrev
 11761 0000 01        		.uleb128 0x1
 11762 0001 11        		.uleb128 0x11
 11763 0002 01        		.byte	0x1
 11764 0003 25        		.uleb128 0x25
 11765 0004 0E        		.uleb128 0xe
 11766 0005 13        		.uleb128 0x13
 11767 0006 0B        		.uleb128 0xb
 11768 0007 03        		.uleb128 0x3
 11769 0008 0E        		.uleb128 0xe
 11770 0009 1B        		.uleb128 0x1b
 11771 000a 0E        		.uleb128 0xe
 11772 000b 11        		.uleb128 0x11
 11773 000c 01        		.uleb128 0x1
 11774 000d 12        		.uleb128 0x12
 11775 000e 01        		.uleb128 0x1
 11776 000f 10        		.uleb128 0x10
 11777 0010 06        		.uleb128 0x6
 11778 0011 00        		.byte	0x0
 11779 0012 00        		.byte	0x0
 11780 0013 02        		.uleb128 0x2
 11781 0014 24        		.uleb128 0x24
 11782 0015 00        		.byte	0x0
 11783 0016 0B        		.uleb128 0xb
 11784 0017 0B        		.uleb128 0xb
 11785 0018 3E        		.uleb128 0x3e
 11786 0019 0B        		.uleb128 0xb
 11787 001a 03        		.uleb128 0x3
 11788 001b 0E        		.uleb128 0xe
 11789 001c 00        		.byte	0x0
 11790 001d 00        		.byte	0x0
 11791 001e 03        		.uleb128 0x3
 11792 001f 24        		.uleb128 0x24
 11793 0020 00        		.byte	0x0
 11794 0021 0B        		.uleb128 0xb
 11795 0022 0B        		.uleb128 0xb
 11796 0023 3E        		.uleb128 0x3e
 11797 0024 0B        		.uleb128 0xb
 11798 0025 03        		.uleb128 0x3
 11799 0026 08        		.uleb128 0x8
GAS LISTING C:\DOCUME~1\KEUNSO~1\LOCALS~1\Temp/ccWaaqlF.s 			page 208


 11800 0027 00        		.byte	0x0
 11801 0028 00        		.byte	0x0
 11802 0029 04        		.uleb128 0x4
 11803 002a 16        		.uleb128 0x16
 11804 002b 00        		.byte	0x0
 11805 002c 03        		.uleb128 0x3
 11806 002d 0E        		.uleb128 0xe
 11807 002e 3A        		.uleb128 0x3a
 11808 002f 0B        		.uleb128 0xb
 11809 0030 3B        		.uleb128 0x3b
 11810 0031 0B        		.uleb128 0xb
 11811 0032 49        		.uleb128 0x49
 11812 0033 13        		.uleb128 0x13
 11813 0034 00        		.byte	0x0
 11814 0035 00        		.byte	0x0
 11815 0036 05        		.uleb128 0x5
 11816 0037 13        		.uleb128 0x13
 11817 0038 01        		.byte	0x1
 11818 0039 0B        		.uleb128 0xb
 11819 003a 0B        		.uleb128 0xb
 11820 003b 3A        		.uleb128 0x3a
 11821 003c 0B        		.uleb128 0xb
 11822 003d 3B        		.uleb128 0x3b
 11823 003e 0B        		.uleb128 0xb
 11824 003f 01        		.uleb128 0x1
 11825 0040 13        		.uleb128 0x13
 11826 0041 00        		.byte	0x0
 11827 0042 00        		.byte	0x0
 11828 0043 06        		.uleb128 0x6
 11829 0044 0D        		.uleb128 0xd
 11830 0045 00        		.byte	0x0
 11831 0046 03        		.uleb128 0x3
 11832 0047 0E        		.uleb128 0xe
 11833 0048 3A        		.uleb128 0x3a
 11834 0049 0B        		.uleb128 0xb
 11835 004a 3B        		.uleb128 0x3b
 11836 004b 0B        		.uleb128 0xb
 11837 004c 49        		.uleb128 0x49
 11838 004d 13        		.uleb128 0x13
 11839 004e 38        		.uleb128 0x38
 11840 004f 0A        		.uleb128 0xa
 11841 0050 00        		.byte	0x0
 11842 0051 00        		.byte	0x0
 11843 0052 07        		.uleb128 0x7
 11844 0053 0F        		.uleb128 0xf
 11845 0054 00        		.byte	0x0
 11846 0055 0B        		.uleb128 0xb
 11847 0056 0B        		.uleb128 0xb
 11848 0057 00        		.byte	0x0
 11849 0058 00        		.byte	0x0
 11850 0059 08        		.uleb128 0x8
 11851 005a 01        		.uleb128 0x1
 11852 005b 01        		.byte	0x1
 11853 005c 49        		.uleb128 0x49
 11854 005d 13        		.uleb128 0x13
 11855 005e 01        		.uleb128 0x1
 11856 005f 13        		.uleb128 0x13
GAS LISTING C:\DOCUME~1\KEUNSO~1\LOCALS~1\Temp/ccWaaqlF.s 			page 209


 11857 0060 00        		.byte	0x0
 11858 0061 00        		.byte	0x0
 11859 0062 09        		.uleb128 0x9
 11860 0063 21        		.uleb128 0x21
 11861 0064 00        		.byte	0x0
 11862 0065 49        		.uleb128 0x49
 11863 0066 13        		.uleb128 0x13
 11864 0067 2F        		.uleb128 0x2f
 11865 0068 0B        		.uleb128 0xb
 11866 0069 00        		.byte	0x0
 11867 006a 00        		.byte	0x0
 11868 006b 0A        		.uleb128 0xa
 11869 006c 24        		.uleb128 0x24
 11870 006d 00        		.byte	0x0
 11871 006e 0B        		.uleb128 0xb
 11872 006f 0B        		.uleb128 0xb
 11873 0070 3E        		.uleb128 0x3e
 11874 0071 0B        		.uleb128 0xb
 11875 0072 00        		.byte	0x0
 11876 0073 00        		.byte	0x0
 11877 0074 0B        		.uleb128 0xb
 11878 0075 13        		.uleb128 0x13
 11879 0076 01        		.byte	0x1
 11880 0077 0B        		.uleb128 0xb
 11881 0078 0B        		.uleb128 0xb
 11882 0079 3A        		.uleb128 0x3a
 11883 007a 0B        		.uleb128 0xb
 11884 007b 3B        		.uleb128 0x3b
 11885 007c 05        		.uleb128 0x5
 11886 007d 01        		.uleb128 0x1
 11887 007e 13        		.uleb128 0x13
 11888 007f 00        		.byte	0x0
 11889 0080 00        		.byte	0x0
 11890 0081 0C        		.uleb128 0xc
 11891 0082 0D        		.uleb128 0xd
 11892 0083 00        		.byte	0x0
 11893 0084 03        		.uleb128 0x3
 11894 0085 0E        		.uleb128 0xe
 11895 0086 3A        		.uleb128 0x3a
 11896 0087 0B        		.uleb128 0xb
 11897 0088 3B        		.uleb128 0x3b
 11898 0089 05        		.uleb128 0x5
 11899 008a 49        		.uleb128 0x49
 11900 008b 13        		.uleb128 0x13
 11901 008c 38        		.uleb128 0x38
 11902 008d 0A        		.uleb128 0xa
 11903 008e 00        		.byte	0x0
 11904 008f 00        		.byte	0x0
 11905 0090 0D        		.uleb128 0xd
 11906 0091 16        		.uleb128 0x16
 11907 0092 00        		.byte	0x0
 11908 0093 03        		.uleb128 0x3
 11909 0094 0E        		.uleb128 0xe
 11910 0095 3A        		.uleb128 0x3a
 11911 0096 0B        		.uleb128 0xb
 11912 0097 3B        		.uleb128 0x3b
 11913 0098 05        		.uleb128 0x5
GAS LISTING C:\DOCUME~1\KEUNSO~1\LOCALS~1\Temp/ccWaaqlF.s 			page 210


 11914 0099 49        		.uleb128 0x49
 11915 009a 13        		.uleb128 0x13
 11916 009b 00        		.byte	0x0
 11917 009c 00        		.byte	0x0
 11918 009d 0E        		.uleb128 0xe
 11919 009e 13        		.uleb128 0x13
 11920 009f 01        		.byte	0x1
 11921 00a0 03        		.uleb128 0x3
 11922 00a1 0E        		.uleb128 0xe
 11923 00a2 0B        		.uleb128 0xb
 11924 00a3 0B        		.uleb128 0xb
 11925 00a4 3A        		.uleb128 0x3a
 11926 00a5 0B        		.uleb128 0xb
 11927 00a6 3B        		.uleb128 0x3b
 11928 00a7 05        		.uleb128 0x5
 11929 00a8 01        		.uleb128 0x1
 11930 00a9 13        		.uleb128 0x13
 11931 00aa 00        		.byte	0x0
 11932 00ab 00        		.byte	0x0
 11933 00ac 0F        		.uleb128 0xf
 11934 00ad 0F        		.uleb128 0xf
 11935 00ae 00        		.byte	0x0
 11936 00af 0B        		.uleb128 0xb
 11937 00b0 0B        		.uleb128 0xb
 11938 00b1 49        		.uleb128 0x49
 11939 00b2 13        		.uleb128 0x13
 11940 00b3 00        		.byte	0x0
 11941 00b4 00        		.byte	0x0
 11942 00b5 10        		.uleb128 0x10
 11943 00b6 2E        		.uleb128 0x2e
 11944 00b7 01        		.byte	0x1
 11945 00b8 3F        		.uleb128 0x3f
 11946 00b9 0C        		.uleb128 0xc
 11947 00ba 03        		.uleb128 0x3
 11948 00bb 0E        		.uleb128 0xe
 11949 00bc 3A        		.uleb128 0x3a
 11950 00bd 0B        		.uleb128 0xb
 11951 00be 3B        		.uleb128 0x3b
 11952 00bf 05        		.uleb128 0x5
 11953 00c0 27        		.uleb128 0x27
 11954 00c1 0C        		.uleb128 0xc
 11955 00c2 20        		.uleb128 0x20
 11956 00c3 0B        		.uleb128 0xb
 11957 00c4 01        		.uleb128 0x1
 11958 00c5 13        		.uleb128 0x13
 11959 00c6 00        		.byte	0x0
 11960 00c7 00        		.byte	0x0
 11961 00c8 11        		.uleb128 0x11
 11962 00c9 05        		.uleb128 0x5
 11963 00ca 00        		.byte	0x0
 11964 00cb 03        		.uleb128 0x3
 11965 00cc 0E        		.uleb128 0xe
 11966 00cd 3A        		.uleb128 0x3a
 11967 00ce 0B        		.uleb128 0xb
 11968 00cf 3B        		.uleb128 0x3b
 11969 00d0 05        		.uleb128 0x5
 11970 00d1 49        		.uleb128 0x49
GAS LISTING C:\DOCUME~1\KEUNSO~1\LOCALS~1\Temp/ccWaaqlF.s 			page 211


 11971 00d2 13        		.uleb128 0x13
 11972 00d3 00        		.byte	0x0
 11973 00d4 00        		.byte	0x0
 11974 00d5 12        		.uleb128 0x12
 11975 00d6 34        		.uleb128 0x34
 11976 00d7 00        		.byte	0x0
 11977 00d8 03        		.uleb128 0x3
 11978 00d9 0E        		.uleb128 0xe
 11979 00da 3A        		.uleb128 0x3a
 11980 00db 0B        		.uleb128 0xb
 11981 00dc 3B        		.uleb128 0x3b
 11982 00dd 05        		.uleb128 0x5
 11983 00de 49        		.uleb128 0x49
 11984 00df 13        		.uleb128 0x13
 11985 00e0 00        		.byte	0x0
 11986 00e1 00        		.byte	0x0
 11987 00e2 13        		.uleb128 0x13
 11988 00e3 2E        		.uleb128 0x2e
 11989 00e4 00        		.byte	0x0
 11990 00e5 03        		.uleb128 0x3
 11991 00e6 0E        		.uleb128 0xe
 11992 00e7 3A        		.uleb128 0x3a
 11993 00e8 0B        		.uleb128 0xb
 11994 00e9 3B        		.uleb128 0x3b
 11995 00ea 05        		.uleb128 0x5
 11996 00eb 27        		.uleb128 0x27
 11997 00ec 0C        		.uleb128 0xc
 11998 00ed 20        		.uleb128 0x20
 11999 00ee 0B        		.uleb128 0xb
 12000 00ef 00        		.byte	0x0
 12001 00f0 00        		.byte	0x0
 12002 00f1 14        		.uleb128 0x14
 12003 00f2 2E        		.uleb128 0x2e
 12004 00f3 01        		.byte	0x1
 12005 00f4 03        		.uleb128 0x3
 12006 00f5 0E        		.uleb128 0xe
 12007 00f6 3A        		.uleb128 0x3a
 12008 00f7 0B        		.uleb128 0xb
 12009 00f8 3B        		.uleb128 0x3b
 12010 00f9 05        		.uleb128 0x5
 12011 00fa 27        		.uleb128 0x27
 12012 00fb 0C        		.uleb128 0xc
 12013 00fc 20        		.uleb128 0x20
 12014 00fd 0B        		.uleb128 0xb
 12015 00fe 01        		.uleb128 0x1
 12016 00ff 13        		.uleb128 0x13
 12017 0100 00        		.byte	0x0
 12018 0101 00        		.byte	0x0
 12019 0102 15        		.uleb128 0x15
 12020 0103 34        		.uleb128 0x34
 12021 0104 00        		.byte	0x0
 12022 0105 03        		.uleb128 0x3
 12023 0106 08        		.uleb128 0x8
 12024 0107 3A        		.uleb128 0x3a
 12025 0108 0B        		.uleb128 0xb
 12026 0109 3B        		.uleb128 0x3b
 12027 010a 05        		.uleb128 0x5
GAS LISTING C:\DOCUME~1\KEUNSO~1\LOCALS~1\Temp/ccWaaqlF.s 			page 212


 12028 010b 49        		.uleb128 0x49
 12029 010c 13        		.uleb128 0x13
 12030 010d 00        		.byte	0x0
 12031 010e 00        		.byte	0x0
 12032 010f 16        		.uleb128 0x16
 12033 0110 2E        		.uleb128 0x2e
 12034 0111 00        		.byte	0x0
 12035 0112 3F        		.uleb128 0x3f
 12036 0113 0C        		.uleb128 0xc
 12037 0114 03        		.uleb128 0x3
 12038 0115 0E        		.uleb128 0xe
 12039 0116 3A        		.uleb128 0x3a
 12040 0117 0B        		.uleb128 0xb
 12041 0118 3B        		.uleb128 0x3b
 12042 0119 05        		.uleb128 0x5
 12043 011a 27        		.uleb128 0x27
 12044 011b 0C        		.uleb128 0xc
 12045 011c 11        		.uleb128 0x11
 12046 011d 01        		.uleb128 0x1
 12047 011e 12        		.uleb128 0x12
 12048 011f 01        		.uleb128 0x1
 12049 0120 40        		.uleb128 0x40
 12050 0121 0A        		.uleb128 0xa
 12051 0122 00        		.byte	0x0
 12052 0123 00        		.byte	0x0
 12053 0124 17        		.uleb128 0x17
 12054 0125 2E        		.uleb128 0x2e
 12055 0126 00        		.byte	0x0
 12056 0127 3F        		.uleb128 0x3f
 12057 0128 0C        		.uleb128 0xc
 12058 0129 03        		.uleb128 0x3
 12059 012a 0E        		.uleb128 0xe
 12060 012b 3A        		.uleb128 0x3a
 12061 012c 0B        		.uleb128 0xb
 12062 012d 3B        		.uleb128 0x3b
 12063 012e 05        		.uleb128 0x5
 12064 012f 27        		.uleb128 0x27
 12065 0130 0C        		.uleb128 0xc
 12066 0131 49        		.uleb128 0x49
 12067 0132 13        		.uleb128 0x13
 12068 0133 11        		.uleb128 0x11
 12069 0134 01        		.uleb128 0x1
 12070 0135 12        		.uleb128 0x12
 12071 0136 01        		.uleb128 0x1
 12072 0137 40        		.uleb128 0x40
 12073 0138 0A        		.uleb128 0xa
 12074 0139 00        		.byte	0x0
 12075 013a 00        		.byte	0x0
 12076 013b 18        		.uleb128 0x18
 12077 013c 2E        		.uleb128 0x2e
 12078 013d 01        		.byte	0x1
 12079 013e 3F        		.uleb128 0x3f
 12080 013f 0C        		.uleb128 0xc
 12081 0140 03        		.uleb128 0x3
 12082 0141 0E        		.uleb128 0xe
 12083 0142 3A        		.uleb128 0x3a
 12084 0143 0B        		.uleb128 0xb
GAS LISTING C:\DOCUME~1\KEUNSO~1\LOCALS~1\Temp/ccWaaqlF.s 			page 213


 12085 0144 3B        		.uleb128 0x3b
 12086 0145 05        		.uleb128 0x5
 12087 0146 27        		.uleb128 0x27
 12088 0147 0C        		.uleb128 0xc
 12089 0148 49        		.uleb128 0x49
 12090 0149 13        		.uleb128 0x13
 12091 014a 20        		.uleb128 0x20
 12092 014b 0B        		.uleb128 0xb
 12093 014c 01        		.uleb128 0x1
 12094 014d 13        		.uleb128 0x13
 12095 014e 00        		.byte	0x0
 12096 014f 00        		.byte	0x0
 12097 0150 19        		.uleb128 0x19
 12098 0151 05        		.uleb128 0x5
 12099 0152 00        		.byte	0x0
 12100 0153 03        		.uleb128 0x3
 12101 0154 08        		.uleb128 0x8
 12102 0155 3A        		.uleb128 0x3a
 12103 0156 0B        		.uleb128 0xb
 12104 0157 3B        		.uleb128 0x3b
 12105 0158 05        		.uleb128 0x5
 12106 0159 49        		.uleb128 0x49
 12107 015a 13        		.uleb128 0x13
 12108 015b 00        		.byte	0x0
 12109 015c 00        		.byte	0x0
 12110 015d 1A        		.uleb128 0x1a
 12111 015e 2E        		.uleb128 0x2e
 12112 015f 01        		.byte	0x1
 12113 0160 31        		.uleb128 0x31
 12114 0161 13        		.uleb128 0x13
 12115 0162 11        		.uleb128 0x11
 12116 0163 01        		.uleb128 0x1
 12117 0164 12        		.uleb128 0x12
 12118 0165 01        		.uleb128 0x1
 12119 0166 40        		.uleb128 0x40
 12120 0167 0A        		.uleb128 0xa
 12121 0168 01        		.uleb128 0x1
 12122 0169 13        		.uleb128 0x13
 12123 016a 00        		.byte	0x0
 12124 016b 00        		.byte	0x0
 12125 016c 1B        		.uleb128 0x1b
 12126 016d 05        		.uleb128 0x5
 12127 016e 00        		.byte	0x0
 12128 016f 31        		.uleb128 0x31
 12129 0170 13        		.uleb128 0x13
 12130 0171 02        		.uleb128 0x2
 12131 0172 06        		.uleb128 0x6
 12132 0173 00        		.byte	0x0
 12133 0174 00        		.byte	0x0
 12134 0175 1C        		.uleb128 0x1c
 12135 0176 34        		.uleb128 0x34
 12136 0177 00        		.byte	0x0
 12137 0178 31        		.uleb128 0x31
 12138 0179 13        		.uleb128 0x13
 12139 017a 02        		.uleb128 0x2
 12140 017b 06        		.uleb128 0x6
 12141 017c 00        		.byte	0x0
GAS LISTING C:\DOCUME~1\KEUNSO~1\LOCALS~1\Temp/ccWaaqlF.s 			page 214


 12142 017d 00        		.byte	0x0
 12143 017e 1D        		.uleb128 0x1d
 12144 017f 34        		.uleb128 0x34
 12145 0180 00        		.byte	0x0
 12146 0181 31        		.uleb128 0x31
 12147 0182 13        		.uleb128 0x13
 12148 0183 02        		.uleb128 0x2
 12149 0184 0A        		.uleb128 0xa
 12150 0185 00        		.byte	0x0
 12151 0186 00        		.byte	0x0
 12152 0187 1E        		.uleb128 0x1e
 12153 0188 2E        		.uleb128 0x2e
 12154 0189 01        		.byte	0x1
 12155 018a 3F        		.uleb128 0x3f
 12156 018b 0C        		.uleb128 0xc
 12157 018c 03        		.uleb128 0x3
 12158 018d 0E        		.uleb128 0xe
 12159 018e 3A        		.uleb128 0x3a
 12160 018f 0B        		.uleb128 0xb
 12161 0190 3B        		.uleb128 0x3b
 12162 0191 05        		.uleb128 0x5
 12163 0192 27        		.uleb128 0x27
 12164 0193 0C        		.uleb128 0xc
 12165 0194 11        		.uleb128 0x11
 12166 0195 01        		.uleb128 0x1
 12167 0196 12        		.uleb128 0x12
 12168 0197 01        		.uleb128 0x1
 12169 0198 40        		.uleb128 0x40
 12170 0199 0A        		.uleb128 0xa
 12171 019a 01        		.uleb128 0x1
 12172 019b 13        		.uleb128 0x13
 12173 019c 00        		.byte	0x0
 12174 019d 00        		.byte	0x0
 12175 019e 1F        		.uleb128 0x1f
 12176 019f 05        		.uleb128 0x5
 12177 01a0 00        		.byte	0x0
 12178 01a1 03        		.uleb128 0x3
 12179 01a2 0E        		.uleb128 0xe
 12180 01a3 3A        		.uleb128 0x3a
 12181 01a4 0B        		.uleb128 0xb
 12182 01a5 3B        		.uleb128 0x3b
 12183 01a6 05        		.uleb128 0x5
 12184 01a7 49        		.uleb128 0x49
 12185 01a8 13        		.uleb128 0x13
 12186 01a9 02        		.uleb128 0x2
 12187 01aa 06        		.uleb128 0x6
 12188 01ab 00        		.byte	0x0
 12189 01ac 00        		.byte	0x0
 12190 01ad 20        		.uleb128 0x20
 12191 01ae 05        		.uleb128 0x5
 12192 01af 00        		.byte	0x0
 12193 01b0 31        		.uleb128 0x31
 12194 01b1 13        		.uleb128 0x13
 12195 01b2 02        		.uleb128 0x2
 12196 01b3 0A        		.uleb128 0xa
 12197 01b4 00        		.byte	0x0
 12198 01b5 00        		.byte	0x0
GAS LISTING C:\DOCUME~1\KEUNSO~1\LOCALS~1\Temp/ccWaaqlF.s 			page 215


 12199 01b6 21        		.uleb128 0x21
 12200 01b7 34        		.uleb128 0x34
 12201 01b8 00        		.byte	0x0
 12202 01b9 31        		.uleb128 0x31
 12203 01ba 13        		.uleb128 0x13
 12204 01bb 00        		.byte	0x0
 12205 01bc 00        		.byte	0x0
 12206 01bd 22        		.uleb128 0x22
 12207 01be 2E        		.uleb128 0x2e
 12208 01bf 01        		.byte	0x1
 12209 01c0 3F        		.uleb128 0x3f
 12210 01c1 0C        		.uleb128 0xc
 12211 01c2 03        		.uleb128 0x3
 12212 01c3 0E        		.uleb128 0xe
 12213 01c4 3A        		.uleb128 0x3a
 12214 01c5 0B        		.uleb128 0xb
 12215 01c6 3B        		.uleb128 0x3b
 12216 01c7 0B        		.uleb128 0xb
 12217 01c8 27        		.uleb128 0x27
 12218 01c9 0C        		.uleb128 0xc
 12219 01ca 49        		.uleb128 0x49
 12220 01cb 13        		.uleb128 0x13
 12221 01cc 11        		.uleb128 0x11
 12222 01cd 01        		.uleb128 0x1
 12223 01ce 12        		.uleb128 0x12
 12224 01cf 01        		.uleb128 0x1
 12225 01d0 40        		.uleb128 0x40
 12226 01d1 0A        		.uleb128 0xa
 12227 01d2 01        		.uleb128 0x1
 12228 01d3 13        		.uleb128 0x13
 12229 01d4 00        		.byte	0x0
 12230 01d5 00        		.byte	0x0
 12231 01d6 23        		.uleb128 0x23
 12232 01d7 05        		.uleb128 0x5
 12233 01d8 00        		.byte	0x0
 12234 01d9 03        		.uleb128 0x3
 12235 01da 0E        		.uleb128 0xe
 12236 01db 3A        		.uleb128 0x3a
 12237 01dc 0B        		.uleb128 0xb
 12238 01dd 3B        		.uleb128 0x3b
 12239 01de 0B        		.uleb128 0xb
 12240 01df 49        		.uleb128 0x49
 12241 01e0 13        		.uleb128 0x13
 12242 01e1 02        		.uleb128 0x2
 12243 01e2 06        		.uleb128 0x6
 12244 01e3 00        		.byte	0x0
 12245 01e4 00        		.byte	0x0
 12246 01e5 24        		.uleb128 0x24
 12247 01e6 34        		.uleb128 0x34
 12248 01e7 00        		.byte	0x0
 12249 01e8 03        		.uleb128 0x3
 12250 01e9 08        		.uleb128 0x8
 12251 01ea 3A        		.uleb128 0x3a
 12252 01eb 0B        		.uleb128 0xb
 12253 01ec 3B        		.uleb128 0x3b
 12254 01ed 0B        		.uleb128 0xb
 12255 01ee 49        		.uleb128 0x49
GAS LISTING C:\DOCUME~1\KEUNSO~1\LOCALS~1\Temp/ccWaaqlF.s 			page 216


 12256 01ef 13        		.uleb128 0x13
 12257 01f0 02        		.uleb128 0x2
 12258 01f1 06        		.uleb128 0x6
 12259 01f2 00        		.byte	0x0
 12260 01f3 00        		.byte	0x0
 12261 01f4 25        		.uleb128 0x25
 12262 01f5 2E        		.uleb128 0x2e
 12263 01f6 01        		.byte	0x1
 12264 01f7 3F        		.uleb128 0x3f
 12265 01f8 0C        		.uleb128 0xc
 12266 01f9 03        		.uleb128 0x3
 12267 01fa 0E        		.uleb128 0xe
 12268 01fb 3A        		.uleb128 0x3a
 12269 01fc 0B        		.uleb128 0xb
 12270 01fd 3B        		.uleb128 0x3b
 12271 01fe 05        		.uleb128 0x5
 12272 01ff 27        		.uleb128 0x27
 12273 0200 0C        		.uleb128 0xc
 12274 0201 49        		.uleb128 0x49
 12275 0202 13        		.uleb128 0x13
 12276 0203 11        		.uleb128 0x11
 12277 0204 01        		.uleb128 0x1
 12278 0205 12        		.uleb128 0x12
 12279 0206 01        		.uleb128 0x1
 12280 0207 40        		.uleb128 0x40
 12281 0208 0A        		.uleb128 0xa
 12282 0209 01        		.uleb128 0x1
 12283 020a 13        		.uleb128 0x13
 12284 020b 00        		.byte	0x0
 12285 020c 00        		.byte	0x0
 12286 020d 26        		.uleb128 0x26
 12287 020e 05        		.uleb128 0x5
 12288 020f 00        		.byte	0x0
 12289 0210 03        		.uleb128 0x3
 12290 0211 0E        		.uleb128 0xe
 12291 0212 3A        		.uleb128 0x3a
 12292 0213 0B        		.uleb128 0xb
 12293 0214 3B        		.uleb128 0x3b
 12294 0215 05        		.uleb128 0x5
 12295 0216 49        		.uleb128 0x49
 12296 0217 13        		.uleb128 0x13
 12297 0218 02        		.uleb128 0x2
 12298 0219 0A        		.uleb128 0xa
 12299 021a 00        		.byte	0x0
 12300 021b 00        		.byte	0x0
 12301 021c 27        		.uleb128 0x27
 12302 021d 05        		.uleb128 0x5
 12303 021e 00        		.byte	0x0
 12304 021f 03        		.uleb128 0x3
 12305 0220 08        		.uleb128 0x8
 12306 0221 3A        		.uleb128 0x3a
 12307 0222 0B        		.uleb128 0xb
 12308 0223 3B        		.uleb128 0x3b
 12309 0224 05        		.uleb128 0x5
 12310 0225 49        		.uleb128 0x49
 12311 0226 13        		.uleb128 0x13
 12312 0227 02        		.uleb128 0x2
GAS LISTING C:\DOCUME~1\KEUNSO~1\LOCALS~1\Temp/ccWaaqlF.s 			page 217


 12313 0228 0A        		.uleb128 0xa
 12314 0229 00        		.byte	0x0
 12315 022a 00        		.byte	0x0
 12316 022b 28        		.uleb128 0x28
 12317 022c 34        		.uleb128 0x34
 12318 022d 00        		.byte	0x0
 12319 022e 03        		.uleb128 0x3
 12320 022f 0E        		.uleb128 0xe
 12321 0230 3A        		.uleb128 0x3a
 12322 0231 0B        		.uleb128 0xb
 12323 0232 3B        		.uleb128 0x3b
 12324 0233 0B        		.uleb128 0xb
 12325 0234 49        		.uleb128 0x49
 12326 0235 13        		.uleb128 0x13
 12327 0236 02        		.uleb128 0x2
 12328 0237 0A        		.uleb128 0xa
 12329 0238 00        		.byte	0x0
 12330 0239 00        		.byte	0x0
 12331 023a 29        		.uleb128 0x29
 12332 023b 2E        		.uleb128 0x2e
 12333 023c 01        		.byte	0x1
 12334 023d 3F        		.uleb128 0x3f
 12335 023e 0C        		.uleb128 0xc
 12336 023f 03        		.uleb128 0x3
 12337 0240 0E        		.uleb128 0xe
 12338 0241 3A        		.uleb128 0x3a
 12339 0242 0B        		.uleb128 0xb
 12340 0243 3B        		.uleb128 0x3b
 12341 0244 0B        		.uleb128 0xb
 12342 0245 27        		.uleb128 0x27
 12343 0246 0C        		.uleb128 0xc
 12344 0247 11        		.uleb128 0x11
 12345 0248 01        		.uleb128 0x1
 12346 0249 12        		.uleb128 0x12
 12347 024a 01        		.uleb128 0x1
 12348 024b 40        		.uleb128 0x40
 12349 024c 0A        		.uleb128 0xa
 12350 024d 01        		.uleb128 0x1
 12351 024e 13        		.uleb128 0x13
 12352 024f 00        		.byte	0x0
 12353 0250 00        		.byte	0x0
 12354 0251 2A        		.uleb128 0x2a
 12355 0252 05        		.uleb128 0x5
 12356 0253 00        		.byte	0x0
 12357 0254 03        		.uleb128 0x3
 12358 0255 0E        		.uleb128 0xe
 12359 0256 3A        		.uleb128 0x3a
 12360 0257 0B        		.uleb128 0xb
 12361 0258 3B        		.uleb128 0x3b
 12362 0259 0B        		.uleb128 0xb
 12363 025a 49        		.uleb128 0x49
 12364 025b 13        		.uleb128 0x13
 12365 025c 02        		.uleb128 0x2
 12366 025d 0A        		.uleb128 0xa
 12367 025e 00        		.byte	0x0
 12368 025f 00        		.byte	0x0
 12369 0260 2B        		.uleb128 0x2b
GAS LISTING C:\DOCUME~1\KEUNSO~1\LOCALS~1\Temp/ccWaaqlF.s 			page 218


 12370 0261 34        		.uleb128 0x34
 12371 0262 00        		.byte	0x0
 12372 0263 03        		.uleb128 0x3
 12373 0264 0E        		.uleb128 0xe
 12374 0265 3A        		.uleb128 0x3a
 12375 0266 0B        		.uleb128 0xb
 12376 0267 3B        		.uleb128 0x3b
 12377 0268 05        		.uleb128 0x5
 12378 0269 49        		.uleb128 0x49
 12379 026a 13        		.uleb128 0x13
 12380 026b 02        		.uleb128 0x2
 12381 026c 06        		.uleb128 0x6
 12382 026d 00        		.byte	0x0
 12383 026e 00        		.byte	0x0
 12384 026f 2C        		.uleb128 0x2c
 12385 0270 05        		.uleb128 0x5
 12386 0271 00        		.byte	0x0
 12387 0272 03        		.uleb128 0x3
 12388 0273 08        		.uleb128 0x8
 12389 0274 3A        		.uleb128 0x3a
 12390 0275 0B        		.uleb128 0xb
 12391 0276 3B        		.uleb128 0x3b
 12392 0277 05        		.uleb128 0x5
 12393 0278 49        		.uleb128 0x49
 12394 0279 13        		.uleb128 0x13
 12395 027a 02        		.uleb128 0x2
 12396 027b 06        		.uleb128 0x6
 12397 027c 00        		.byte	0x0
 12398 027d 00        		.byte	0x0
 12399 027e 2D        		.uleb128 0x2d
 12400 027f 34        		.uleb128 0x34
 12401 0280 00        		.byte	0x0
 12402 0281 03        		.uleb128 0x3
 12403 0282 08        		.uleb128 0x8
 12404 0283 3A        		.uleb128 0x3a
 12405 0284 0B        		.uleb128 0xb
 12406 0285 3B        		.uleb128 0x3b
 12407 0286 05        		.uleb128 0x5
 12408 0287 49        		.uleb128 0x49
 12409 0288 13        		.uleb128 0x13
 12410 0289 02        		.uleb128 0x2
 12411 028a 06        		.uleb128 0x6
 12412 028b 00        		.byte	0x0
 12413 028c 00        		.byte	0x0
 12414 028d 2E        		.uleb128 0x2e
 12415 028e 05        		.uleb128 0x5
 12416 028f 00        		.byte	0x0
 12417 0290 03        		.uleb128 0x3
 12418 0291 08        		.uleb128 0x8
 12419 0292 3A        		.uleb128 0x3a
 12420 0293 0B        		.uleb128 0xb
 12421 0294 3B        		.uleb128 0x3b
 12422 0295 0B        		.uleb128 0xb
 12423 0296 49        		.uleb128 0x49
 12424 0297 13        		.uleb128 0x13
 12425 0298 02        		.uleb128 0x2
 12426 0299 06        		.uleb128 0x6
GAS LISTING C:\DOCUME~1\KEUNSO~1\LOCALS~1\Temp/ccWaaqlF.s 			page 219


 12427 029a 00        		.byte	0x0
 12428 029b 00        		.byte	0x0
 12429 029c 2F        		.uleb128 0x2f
 12430 029d 34        		.uleb128 0x34
 12431 029e 00        		.byte	0x0
 12432 029f 03        		.uleb128 0x3
 12433 02a0 0E        		.uleb128 0xe
 12434 02a1 3A        		.uleb128 0x3a
 12435 02a2 0B        		.uleb128 0xb
 12436 02a3 3B        		.uleb128 0x3b
 12437 02a4 0B        		.uleb128 0xb
 12438 02a5 49        		.uleb128 0x49
 12439 02a6 13        		.uleb128 0x13
 12440 02a7 02        		.uleb128 0x2
 12441 02a8 06        		.uleb128 0x6
 12442 02a9 00        		.byte	0x0
 12443 02aa 00        		.byte	0x0
 12444 02ab 30        		.uleb128 0x30
 12445 02ac 1D        		.uleb128 0x1d
 12446 02ad 01        		.byte	0x1
 12447 02ae 31        		.uleb128 0x31
 12448 02af 13        		.uleb128 0x13
 12449 02b0 11        		.uleb128 0x11
 12450 02b1 01        		.uleb128 0x1
 12451 02b2 12        		.uleb128 0x12
 12452 02b3 01        		.uleb128 0x1
 12453 02b4 58        		.uleb128 0x58
 12454 02b5 0B        		.uleb128 0xb
 12455 02b6 59        		.uleb128 0x59
 12456 02b7 0B        		.uleb128 0xb
 12457 02b8 00        		.byte	0x0
 12458 02b9 00        		.byte	0x0
 12459 02ba 31        		.uleb128 0x31
 12460 02bb 05        		.uleb128 0x5
 12461 02bc 00        		.byte	0x0
 12462 02bd 31        		.uleb128 0x31
 12463 02be 13        		.uleb128 0x13
 12464 02bf 00        		.byte	0x0
 12465 02c0 00        		.byte	0x0
 12466 02c1 32        		.uleb128 0x32
 12467 02c2 0B        		.uleb128 0xb
 12468 02c3 01        		.byte	0x1
 12469 02c4 11        		.uleb128 0x11
 12470 02c5 01        		.uleb128 0x1
 12471 02c6 12        		.uleb128 0x12
 12472 02c7 01        		.uleb128 0x1
 12473 02c8 00        		.byte	0x0
 12474 02c9 00        		.byte	0x0
 12475 02ca 33        		.uleb128 0x33
 12476 02cb 15        		.uleb128 0x15
 12477 02cc 01        		.byte	0x1
 12478 02cd 27        		.uleb128 0x27
 12479 02ce 0C        		.uleb128 0xc
 12480 02cf 01        		.uleb128 0x1
 12481 02d0 13        		.uleb128 0x13
 12482 02d1 00        		.byte	0x0
 12483 02d2 00        		.byte	0x0
GAS LISTING C:\DOCUME~1\KEUNSO~1\LOCALS~1\Temp/ccWaaqlF.s 			page 220


 12484 02d3 34        		.uleb128 0x34
 12485 02d4 05        		.uleb128 0x5
 12486 02d5 00        		.byte	0x0
 12487 02d6 49        		.uleb128 0x49
 12488 02d7 13        		.uleb128 0x13
 12489 02d8 00        		.byte	0x0
 12490 02d9 00        		.byte	0x0
 12491 02da 35        		.uleb128 0x35
 12492 02db 0B        		.uleb128 0xb
 12493 02dc 01        		.byte	0x1
 12494 02dd 00        		.byte	0x0
 12495 02de 00        		.byte	0x0
 12496 02df 36        		.uleb128 0x36
 12497 02e0 1D        		.uleb128 0x1d
 12498 02e1 01        		.byte	0x1
 12499 02e2 31        		.uleb128 0x31
 12500 02e3 13        		.uleb128 0x13
 12501 02e4 55        		.uleb128 0x55
 12502 02e5 06        		.uleb128 0x6
 12503 02e6 58        		.uleb128 0x58
 12504 02e7 0B        		.uleb128 0xb
 12505 02e8 59        		.uleb128 0x59
 12506 02e9 05        		.uleb128 0x5
 12507 02ea 00        		.byte	0x0
 12508 02eb 00        		.byte	0x0
 12509 02ec 37        		.uleb128 0x37
 12510 02ed 0B        		.uleb128 0xb
 12511 02ee 01        		.byte	0x1
 12512 02ef 55        		.uleb128 0x55
 12513 02f0 06        		.uleb128 0x6
 12514 02f1 00        		.byte	0x0
 12515 02f2 00        		.byte	0x0
 12516 02f3 38        		.uleb128 0x38
 12517 02f4 34        		.uleb128 0x34
 12518 02f5 00        		.byte	0x0
 12519 02f6 03        		.uleb128 0x3
 12520 02f7 0E        		.uleb128 0xe
 12521 02f8 3A        		.uleb128 0x3a
 12522 02f9 0B        		.uleb128 0xb
 12523 02fa 3B        		.uleb128 0x3b
 12524 02fb 0B        		.uleb128 0xb
 12525 02fc 49        		.uleb128 0x49
 12526 02fd 13        		.uleb128 0x13
 12527 02fe 00        		.byte	0x0
 12528 02ff 00        		.byte	0x0
 12529 0300 39        		.uleb128 0x39
 12530 0301 1D        		.uleb128 0x1d
 12531 0302 01        		.byte	0x1
 12532 0303 31        		.uleb128 0x31
 12533 0304 13        		.uleb128 0x13
 12534 0305 11        		.uleb128 0x11
 12535 0306 01        		.uleb128 0x1
 12536 0307 12        		.uleb128 0x12
 12537 0308 01        		.uleb128 0x1
 12538 0309 58        		.uleb128 0x58
 12539 030a 0B        		.uleb128 0xb
 12540 030b 59        		.uleb128 0x59
GAS LISTING C:\DOCUME~1\KEUNSO~1\LOCALS~1\Temp/ccWaaqlF.s 			page 221


 12541 030c 0B        		.uleb128 0xb
 12542 030d 01        		.uleb128 0x1
 12543 030e 13        		.uleb128 0x13
 12544 030f 00        		.byte	0x0
 12545 0310 00        		.byte	0x0
 12546 0311 3A        		.uleb128 0x3a
 12547 0312 1D        		.uleb128 0x1d
 12548 0313 00        		.byte	0x0
 12549 0314 31        		.uleb128 0x31
 12550 0315 13        		.uleb128 0x13
 12551 0316 11        		.uleb128 0x11
 12552 0317 01        		.uleb128 0x1
 12553 0318 12        		.uleb128 0x12
 12554 0319 01        		.uleb128 0x1
 12555 031a 58        		.uleb128 0x58
 12556 031b 0B        		.uleb128 0xb
 12557 031c 59        		.uleb128 0x59
 12558 031d 05        		.uleb128 0x5
 12559 031e 00        		.byte	0x0
 12560 031f 00        		.byte	0x0
 12561 0320 3B        		.uleb128 0x3b
 12562 0321 1D        		.uleb128 0x1d
 12563 0322 01        		.byte	0x1
 12564 0323 31        		.uleb128 0x31
 12565 0324 13        		.uleb128 0x13
 12566 0325 11        		.uleb128 0x11
 12567 0326 01        		.uleb128 0x1
 12568 0327 12        		.uleb128 0x12
 12569 0328 01        		.uleb128 0x1
 12570 0329 58        		.uleb128 0x58
 12571 032a 0B        		.uleb128 0xb
 12572 032b 59        		.uleb128 0x59
 12573 032c 05        		.uleb128 0x5
 12574 032d 01        		.uleb128 0x1
 12575 032e 13        		.uleb128 0x13
 12576 032f 00        		.byte	0x0
 12577 0330 00        		.byte	0x0
 12578 0331 3C        		.uleb128 0x3c
 12579 0332 1D        		.uleb128 0x1d
 12580 0333 01        		.byte	0x1
 12581 0334 31        		.uleb128 0x31
 12582 0335 13        		.uleb128 0x13
 12583 0336 55        		.uleb128 0x55
 12584 0337 06        		.uleb128 0x6
 12585 0338 58        		.uleb128 0x58
 12586 0339 0B        		.uleb128 0xb
 12587 033a 59        		.uleb128 0x59
 12588 033b 05        		.uleb128 0x5
 12589 033c 01        		.uleb128 0x1
 12590 033d 13        		.uleb128 0x13
 12591 033e 00        		.byte	0x0
 12592 033f 00        		.byte	0x0
 12593 0340 3D        		.uleb128 0x3d
 12594 0341 2E        		.uleb128 0x2e
 12595 0342 01        		.byte	0x1
 12596 0343 3F        		.uleb128 0x3f
 12597 0344 0C        		.uleb128 0xc
GAS LISTING C:\DOCUME~1\KEUNSO~1\LOCALS~1\Temp/ccWaaqlF.s 			page 222


 12598 0345 03        		.uleb128 0x3
 12599 0346 0E        		.uleb128 0xe
 12600 0347 3A        		.uleb128 0x3a
 12601 0348 0B        		.uleb128 0xb
 12602 0349 3B        		.uleb128 0x3b
 12603 034a 0B        		.uleb128 0xb
 12604 034b 27        		.uleb128 0x27
 12605 034c 0C        		.uleb128 0xc
 12606 034d 20        		.uleb128 0x20
 12607 034e 0B        		.uleb128 0xb
 12608 034f 01        		.uleb128 0x1
 12609 0350 13        		.uleb128 0x13
 12610 0351 00        		.byte	0x0
 12611 0352 00        		.byte	0x0
 12612 0353 3E        		.uleb128 0x3e
 12613 0354 05        		.uleb128 0x5
 12614 0355 00        		.byte	0x0
 12615 0356 03        		.uleb128 0x3
 12616 0357 0E        		.uleb128 0xe
 12617 0358 3A        		.uleb128 0x3a
 12618 0359 0B        		.uleb128 0xb
 12619 035a 3B        		.uleb128 0x3b
 12620 035b 0B        		.uleb128 0xb
 12621 035c 49        		.uleb128 0x49
 12622 035d 13        		.uleb128 0x13
 12623 035e 00        		.byte	0x0
 12624 035f 00        		.byte	0x0
 12625 0360 3F        		.uleb128 0x3f
 12626 0361 34        		.uleb128 0x34
 12627 0362 00        		.byte	0x0
 12628 0363 03        		.uleb128 0x3
 12629 0364 08        		.uleb128 0x8
 12630 0365 3A        		.uleb128 0x3a
 12631 0366 0B        		.uleb128 0xb
 12632 0367 3B        		.uleb128 0x3b
 12633 0368 0B        		.uleb128 0xb
 12634 0369 49        		.uleb128 0x49
 12635 036a 13        		.uleb128 0x13
 12636 036b 00        		.byte	0x0
 12637 036c 00        		.byte	0x0
 12638 036d 40        		.uleb128 0x40
 12639 036e 1D        		.uleb128 0x1d
 12640 036f 01        		.byte	0x1
 12641 0370 31        		.uleb128 0x31
 12642 0371 13        		.uleb128 0x13
 12643 0372 52        		.uleb128 0x52
 12644 0373 01        		.uleb128 0x1
 12645 0374 55        		.uleb128 0x55
 12646 0375 06        		.uleb128 0x6
 12647 0376 58        		.uleb128 0x58
 12648 0377 0B        		.uleb128 0xb
 12649 0378 59        		.uleb128 0x59
 12650 0379 05        		.uleb128 0x5
 12651 037a 01        		.uleb128 0x1
 12652 037b 13        		.uleb128 0x13
 12653 037c 00        		.byte	0x0
 12654 037d 00        		.byte	0x0
GAS LISTING C:\DOCUME~1\KEUNSO~1\LOCALS~1\Temp/ccWaaqlF.s 			page 223


 12655 037e 41        		.uleb128 0x41
 12656 037f 1D        		.uleb128 0x1d
 12657 0380 01        		.byte	0x1
 12658 0381 31        		.uleb128 0x31
 12659 0382 13        		.uleb128 0x13
 12660 0383 11        		.uleb128 0x11
 12661 0384 01        		.uleb128 0x1
 12662 0385 12        		.uleb128 0x12
 12663 0386 01        		.uleb128 0x1
 12664 0387 58        		.uleb128 0x58
 12665 0388 0B        		.uleb128 0xb
 12666 0389 59        		.uleb128 0x59
 12667 038a 05        		.uleb128 0x5
 12668 038b 00        		.byte	0x0
 12669 038c 00        		.byte	0x0
 12670 038d 42        		.uleb128 0x42
 12671 038e 34        		.uleb128 0x34
 12672 038f 00        		.byte	0x0
 12673 0390 03        		.uleb128 0x3
 12674 0391 0E        		.uleb128 0xe
 12675 0392 3A        		.uleb128 0x3a
 12676 0393 0B        		.uleb128 0xb
 12677 0394 3B        		.uleb128 0x3b
 12678 0395 05        		.uleb128 0x5
 12679 0396 49        		.uleb128 0x49
 12680 0397 13        		.uleb128 0x13
 12681 0398 3F        		.uleb128 0x3f
 12682 0399 0C        		.uleb128 0xc
 12683 039a 02        		.uleb128 0x2
 12684 039b 0A        		.uleb128 0xa
 12685 039c 00        		.byte	0x0
 12686 039d 00        		.byte	0x0
 12687 039e 43        		.uleb128 0x43
 12688 039f 21        		.uleb128 0x21
 12689 03a0 00        		.byte	0x0
 12690 03a1 49        		.uleb128 0x49
 12691 03a2 13        		.uleb128 0x13
 12692 03a3 2F        		.uleb128 0x2f
 12693 03a4 05        		.uleb128 0x5
 12694 03a5 00        		.byte	0x0
 12695 03a6 00        		.byte	0x0
 12696 03a7 44        		.uleb128 0x44
 12697 03a8 35        		.uleb128 0x35
 12698 03a9 00        		.byte	0x0
 12699 03aa 49        		.uleb128 0x49
 12700 03ab 13        		.uleb128 0x13
 12701 03ac 00        		.byte	0x0
 12702 03ad 00        		.byte	0x0
 12703 03ae 45        		.uleb128 0x45
 12704 03af 34        		.uleb128 0x34
 12705 03b0 00        		.byte	0x0
 12706 03b1 03        		.uleb128 0x3
 12707 03b2 0E        		.uleb128 0xe
 12708 03b3 3A        		.uleb128 0x3a
 12709 03b4 0B        		.uleb128 0xb
 12710 03b5 3B        		.uleb128 0x3b
 12711 03b6 0B        		.uleb128 0xb
GAS LISTING C:\DOCUME~1\KEUNSO~1\LOCALS~1\Temp/ccWaaqlF.s 			page 224


 12712 03b7 49        		.uleb128 0x49
 12713 03b8 13        		.uleb128 0x13
 12714 03b9 3F        		.uleb128 0x3f
 12715 03ba 0C        		.uleb128 0xc
 12716 03bb 02        		.uleb128 0x2
 12717 03bc 0A        		.uleb128 0xa
 12718 03bd 00        		.byte	0x0
 12719 03be 00        		.byte	0x0
 12720 03bf 46        		.uleb128 0x46
 12721 03c0 26        		.uleb128 0x26
 12722 03c1 00        		.byte	0x0
 12723 03c2 49        		.uleb128 0x49
 12724 03c3 13        		.uleb128 0x13
 12725 03c4 00        		.byte	0x0
 12726 03c5 00        		.byte	0x0
 12727 03c6 00        		.byte	0x0
 12728               		.section	.debug_pubnames,"",@progbits
 12729 0000 1704 0000 		.long	0x417
 12730 0004 0200      		.word	0x2
 12731 0006 0000 0000 		.long	.Ldebug_info0
 12732 000a 2D17 0000 		.long	0x172d
 12733 000e 0004 0000 		.long	0x400
 12734 0012 4F53 496E 		.string	"OSIntEnter"
 12734      7445 6E74 
 12734      6572 00
 12735 001d 1504 0000 		.long	0x415
 12736 0021 4F53 5665 		.string	"OSVersion"
 12736      7273 696F 
 12736      6E00 
 12737 002b AA04 0000 		.long	0x4aa
 12738 002f 4F53 5F45 		.string	"OS_EventTaskRdy"
 12738      7665 6E74 
 12738      5461 736B 
 12738      5264 7900 
 12739 003f 0C05 0000 		.long	0x50c
 12740 0043 4F53 5F45 		.string	"OS_EventTaskWait"
 12740      7665 6E74 
 12740      5461 736B 
 12740      5761 6974 
 12740      00
 12741 0054 4005 0000 		.long	0x540
 12742 0058 4F53 5F45 		.string	"OS_EventTO"
 12742      7665 6E74 
 12742      544F 00
 12743 0063 7405 0000 		.long	0x574
 12744 0067 4F53 5F45 		.string	"OS_EventWaitListInit"
 12744      7665 6E74 
 12744      5761 6974 
 12744      4C69 7374 
 12744      496E 6974 
 12745 007c 9A05 0000 		.long	0x59a
 12746 0080 4F53 5365 		.string	"OSSemAccept"
 12746      6D41 6363 
 12746      6570 7400 
 12747 008c D505 0000 		.long	0x5d5
 12748 0090 4F53 5365 		.string	"OSSemQuery"
 12748      6D51 7565 
GAS LISTING C:\DOCUME~1\KEUNSO~1\LOCALS~1\Temp/ccWaaqlF.s 			page 225


 12748      7279 00
 12749 009b 9306 0000 		.long	0x693
 12750 009f 4F53 5461 		.string	"OSTaskStkChk"
 12750      736B 5374 
 12750      6B43 686B 
 12750      00
 12751 00ac DE06 0000 		.long	0x6de
 12752 00b0 4F53 5F54 		.string	"OS_TaskStkClr"
 12752      6173 6B53 
 12752      746B 436C 
 12752      7200 
 12753 00be 3407 0000 		.long	0x734
 12754 00c2 4F53 5469 		.string	"OSTimeGet"
 12754      6D65 4765 
 12754      7400 
 12755 00cc 6907 0000 		.long	0x769
 12756 00d0 4F53 5469 		.string	"OSTimeSet"
 12756      6D65 5365 
 12756      7400 
 12757 00da 9A07 0000 		.long	0x79a
 12758 00de 4F53 5461 		.string	"OSTaskQuery"
 12758      736B 5175 
 12758      6572 7900 
 12759 00ea E807 0000 		.long	0x7e8
 12760 00ee 4F53 5461 		.string	"OSTaskNameSet"
 12760      736B 4E61 
 12760      6D65 5365 
 12760      7400 
 12761 00fc 5408 0000 		.long	0x854
 12762 0100 4F53 5461 		.string	"OSTaskNameGet"
 12762      736B 4E61 
 12762      6D65 4765 
 12762      7400 
 12763 010e C208 0000 		.long	0x8c2
 12764 0112 4F53 4576 		.string	"OSEventNameSet"
 12764      656E 744E 
 12764      616D 6553 
 12764      6574 00
 12765 0121 1809 0000 		.long	0x918
 12766 0125 4F53 4576 		.string	"OSEventNameGet"
 12766      656E 744E 
 12766      616D 6547 
 12766      6574 00
 12767 0134 7109 0000 		.long	0x971
 12768 0138 4F53 5365 		.string	"OSSemCreate"
 12768      6D43 7265 
 12768      6174 6500 
 12769 0144 D009 0000 		.long	0x9d0
 12770 0148 4F53 5F54 		.string	"OS_TCBInit"
 12770      4342 496E 
 12770      6974 00
 12771 0153 6D0A 0000 		.long	0xa6d
 12772 0157 4F53 5F54 		.string	"OS_TaskIdle"
 12772      6173 6B49 
 12772      646C 6500 
 12773 0163 B10A 0000 		.long	0xab1
 12774 0167 4F53 5F53 		.string	"OS_Sched"
GAS LISTING C:\DOCUME~1\KEUNSO~1\LOCALS~1\Temp/ccWaaqlF.s 			page 226


 12774      6368 6564 
 12774      00
 12775 0170 CF0A 0000 		.long	0xacf
 12776 0174 4F53 5469 		.string	"OSTimeDlyResume"
 12776      6D65 446C 
 12776      7952 6573 
 12776      756D 6500 
 12777 0184 B30B 0000 		.long	0xbb3
 12778 0188 4F53 5461 		.string	"OSTaskCreateExt"
 12778      736B 4372 
 12778      6561 7465 
 12778      4578 7400 
 12779 0198 2B0C 0000 		.long	0xc2b
 12780 019c 4F53 5461 		.string	"OSTaskCreate"
 12780      736B 4372 
 12780      6561 7465 
 12780      00
 12781 01a9 A20C 0000 		.long	0xca2
 12782 01ad 4F53 5365 		.string	"OSSemPost"
 12782      6D50 6F73 
 12782      7400 
 12783 01b7 D00C 0000 		.long	0xcd0
 12784 01bb 4F53 5365 		.string	"OSSemPend"
 12784      6D50 656E 
 12784      6400 
 12785 01c5 1A0D 0000 		.long	0xd1a
 12786 01c9 4F53 5469 		.string	"OSTimeTick"
 12786      6D65 5469 
 12786      636B 00
 12787 01d4 500D 0000 		.long	0xd50
 12788 01d8 4F53 5374 		.string	"OSStart"
 12788      6172 7400 
 12789 01e0 820D 0000 		.long	0xd82
 12790 01e4 4F53 496E 		.string	"OSIntExit"
 12790      7445 7869 
 12790      7400 
 12791 01ee 050E 0000 		.long	0xe05
 12792 01f2 4F53 5F54 		.string	"OS_TaskStatStkChk"
 12792      6173 6B53 
 12792      7461 7453 
 12792      746B 4368 
 12792      6B00 
 12793 0204 800E 0000 		.long	0xe80
 12794 0208 4F53 5365 		.string	"OSSemDel"
 12794      6D44 656C 
 12794      00
 12795 0211 580F 0000 		.long	0xf58
 12796 0215 4F53 496E 		.string	"OSInit"
 12796      6974 00
 12797 021c E410 0000 		.long	0x10e4
 12798 0220 4F53 5F54 		.string	"OS_TaskStat"
 12798      6173 6B53 
 12798      7461 7400 
 12799 022c 4B12 0000 		.long	0x124b
 12800 0230 4F53 5469 		.string	"OSTimeDly"
 12800      6D65 446C 
 12800      7900 
GAS LISTING C:\DOCUME~1\KEUNSO~1\LOCALS~1\Temp/ccWaaqlF.s 			page 227


 12801 023a 9112 0000 		.long	0x1291
 12802 023e 4F53 5374 		.string	"OSStatInit"
 12802      6174 496E 
 12802      6974 00
 12803 0249 3F13 0000 		.long	0x133f
 12804 024d 4F53 5469 		.string	"OSTimeDlyHMSM"
 12804      6D65 446C 
 12804      7948 4D53 
 12804      4D00 
 12805 025b 9314 0000 		.long	0x1493
 12806 025f 4F53 4374 		.string	"OSCtxSwCtr"
 12806      7853 7743 
 12806      7472 00
 12807 026a A614 0000 		.long	0x14a6
 12808 026e 4F53 4576 		.string	"OSEventFreeList"
 12808      656E 7446 
 12808      7265 654C 
 12808      6973 7400 
 12809 027e C914 0000 		.long	0x14c9
 12810 0282 4F53 4576 		.string	"OSEventTbl"
 12810      656E 7454 
 12810      626C 00
 12811 028d DC14 0000 		.long	0x14dc
 12812 0291 4F53 4350 		.string	"OSCPUUsage"
 12812      5555 7361 
 12812      6765 00
 12813 029c EF14 0000 		.long	0x14ef
 12814 02a0 4F53 4964 		.string	"OSIdleCtrMax"
 12814      6C65 4374 
 12814      724D 6178 
 12814      00
 12815 02ad 0215 0000 		.long	0x1502
 12816 02b1 4F53 4964 		.string	"OSIdleCtrRun"
 12816      6C65 4374 
 12816      7252 756E 
 12816      00
 12817 02be 1515 0000 		.long	0x1515
 12818 02c2 4F53 5374 		.string	"OSStatRdy"
 12818      6174 5264 
 12818      7900 
 12819 02cc 3915 0000 		.long	0x1539
 12820 02d0 4F53 5461 		.string	"OSTaskStatStk"
 12820      736B 5374 
 12820      6174 5374 
 12820      6B00 
 12821 02de 4C15 0000 		.long	0x154c
 12822 02e2 4F53 496E 		.string	"OSIntNesting"
 12822      744E 6573 
 12822      7469 6E67 
 12822      00
 12823 02ef 5F15 0000 		.long	0x155f
 12824 02f3 4F53 496E 		.string	"OSIntExitY"
 12824      7445 7869 
 12824      7459 00
 12825 02fe 7215 0000 		.long	0x1572
 12826 0302 4F53 4C6F 		.string	"OSLockNesting"
 12826      636B 4E65 
GAS LISTING C:\DOCUME~1\KEUNSO~1\LOCALS~1\Temp/ccWaaqlF.s 			page 228


 12826      7374 696E 
 12826      6700 
 12827 0310 8515 0000 		.long	0x1585
 12828 0314 4F53 5072 		.string	"OSPrioCur"
 12828      696F 4375 
 12828      7200 
 12829 031e 9815 0000 		.long	0x1598
 12830 0322 4F53 5072 		.string	"OSPrioHighRdy"
 12830      696F 4869 
 12830      6768 5264 
 12830      7900 
 12831 0330 AB15 0000 		.long	0x15ab
 12832 0334 4F53 5264 		.string	"OSRdyGrp"
 12832      7947 7270 
 12832      00
 12833 033d BE15 0000 		.long	0x15be
 12834 0341 4F53 5264 		.string	"OSRdyTbl"
 12834      7954 626C 
 12834      00
 12835 034a D115 0000 		.long	0x15d1
 12836 034e 4F53 5275 		.string	"OSRunning"
 12836      6E6E 696E 
 12836      6700 
 12837 0358 E415 0000 		.long	0x15e4
 12838 035c 4F53 5461 		.string	"OSTaskCtr"
 12838      736B 4374 
 12838      7200 
 12839 0366 F715 0000 		.long	0x15f7
 12840 036a 4F53 4964 		.string	"OSIdleCtr"
 12840      6C65 4374 
 12840      7200 
 12841 0374 0F16 0000 		.long	0x160f
 12842 0378 4F53 5461 		.string	"OSTaskIdleStk"
 12842      736B 4964 
 12842      6C65 5374 
 12842      6B00 
 12843 0386 2216 0000 		.long	0x1622
 12844 038a 4F53 5443 		.string	"OSTCBCur"
 12844      4243 7572 
 12844      00
 12845 0393 3516 0000 		.long	0x1635
 12846 0397 4F53 5443 		.string	"OSTCBFreeList"
 12846      4246 7265 
 12846      654C 6973 
 12846      7400 
 12847 03a5 4816 0000 		.long	0x1648
 12848 03a9 4F53 5443 		.string	"OSTCBHighRdy"
 12848      4248 6967 
 12848      6852 6479 
 12848      00
 12849 03b6 5B16 0000 		.long	0x165b
 12850 03ba 4F53 5443 		.string	"OSTCBList"
 12850      424C 6973 
 12850      7400 
 12851 03c4 7E16 0000 		.long	0x167e
 12852 03c8 4F53 5443 		.string	"OSTCBPrioTbl"
 12852      4250 7269 
GAS LISTING C:\DOCUME~1\KEUNSO~1\LOCALS~1\Temp/ccWaaqlF.s 			page 229


 12852      6F54 626C 
 12852      00
 12853 03d5 A116 0000 		.long	0x16a1
 12854 03d9 4F53 5443 		.string	"OSTCBTbl"
 12854      4254 626C 
 12854      00
 12855 03e2 B416 0000 		.long	0x16b4
 12856 03e6 4F53 5469 		.string	"OSTime"
 12856      6D65 00
 12857 03ed D716 0000 		.long	0x16d7
 12858 03f1 4F53 4D61 		.string	"OSMapTbl"
 12858      7054 626C 
 12858      00
 12859 03fa FE16 0000 		.long	0x16fe
 12860 03fe 4F53 556E 		.string	"OSUnMapTbl"
 12860      4D61 7054 
 12860      626C 00
 12861 0409 1517 0000 		.long	0x1715
 12862 040d 4F53 4465 		.string	"OSDebugEn"
 12862      6275 6745 
 12862      6E00 
 12863 0417 0000 0000 		.long	0x0
 12864               		.section	.debug_aranges,"",@progbits
 12865 0000 1C00 0000 		.long	0x1c
 12866 0004 0200      		.word	0x2
 12867 0006 0000 0000 		.long	.Ldebug_info0
 12868 000a 04        		.byte	0x4
 12869 000b 00        		.byte	0x0
 12870 000c 0000      		.word	0x0
 12871 000e 0000      		.word	0x0
 12872 0010 0000 0000 		.long	.Ltext0
 12873 0014 121D 0000 		.long	.Letext0-.Ltext0
 12874 0018 0000 0000 		.long	0x0
 12875 001c 0000 0000 		.long	0x0
 12876               		.section	.debug_ranges,"",@progbits
 12877               	.Ldebug_ranges0:
 12878 0000 C40C 0000 		.long	.LBB22-.Ltext0
 12879 0004 D60C 0000 		.long	.LBE22-.Ltext0
 12880 0008 6C0D 0000 		.long	.LBB29-.Ltext0
 12881 000c 760D 0000 		.long	.LBE29-.Ltext0
 12882 0010 0C0D 0000 		.long	.LBB28-.Ltext0
 12883 0014 4A0D 0000 		.long	.LBE28-.Ltext0
 12884 0018 E20C 0000 		.long	.LBB27-.Ltext0
 12885 001c F20C 0000 		.long	.LBE27-.Ltext0
 12886 0020 0000 0000 		.long	0x0
 12887 0024 0000 0000 		.long	0x0
 12888 0028 C40C 0000 		.long	.LBB24-.Ltext0
 12889 002c D60C 0000 		.long	.LBE24-.Ltext0
 12890 0030 6C0D 0000 		.long	.LBB26-.Ltext0
 12891 0034 760D 0000 		.long	.LBE26-.Ltext0
 12892 0038 0C0D 0000 		.long	.LBB23-.Ltext0
 12893 003c 4A0D 0000 		.long	.LBE23-.Ltext0
 12894 0040 E20C 0000 		.long	.LBB25-.Ltext0
 12895 0044 F20C 0000 		.long	.LBE25-.Ltext0
 12896 0048 0000 0000 		.long	0x0
 12897 004c 0000 0000 		.long	0x0
 12898 0050 3A11 0000 		.long	.LBB62-.Ltext0
GAS LISTING C:\DOCUME~1\KEUNSO~1\LOCALS~1\Temp/ccWaaqlF.s 			page 230


 12899 0054 4A11 0000 		.long	.LBE62-.Ltext0
 12900 0058 7412 0000 		.long	.LBB86-.Ltext0
 12901 005c 8212 0000 		.long	.LBE86-.Ltext0
 12902 0060 7611 0000 		.long	.LBB84-.Ltext0
 12903 0064 F611 0000 		.long	.LBE84-.Ltext0
 12904 0068 0000 0000 		.long	0x0
 12905 006c 0000 0000 		.long	0x0
 12906 0070 3A11 0000 		.long	.LBB66-.Ltext0
 12907 0074 4A11 0000 		.long	.LBE66-.Ltext0
 12908 0078 7412 0000 		.long	.LBB71-.Ltext0
 12909 007c 8212 0000 		.long	.LBE71-.Ltext0
 12910 0080 7611 0000 		.long	.LBB65-.Ltext0
 12911 0084 F611 0000 		.long	.LBE65-.Ltext0
 12912 0088 0000 0000 		.long	0x0
 12913 008c 0000 0000 		.long	0x0
 12914 0090 3A11 0000 		.long	.LBB69-.Ltext0
 12915 0094 4A11 0000 		.long	.LBE69-.Ltext0
 12916 0098 7412 0000 		.long	.LBB70-.Ltext0
 12917 009c 8212 0000 		.long	.LBE70-.Ltext0
 12918 00a0 D211 0000 		.long	.LBB67-.Ltext0
 12919 00a4 F611 0000 		.long	.LBE67-.Ltext0
 12920 00a8 7611 0000 		.long	.LBB68-.Ltext0
 12921 00ac 9811 0000 		.long	.LBE68-.Ltext0
 12922 00b0 0000 0000 		.long	0x0
 12923 00b4 0000 0000 		.long	0x0
 12924 00b8 4A11 0000 		.long	.LBB73-.Ltext0
 12925 00bc 5C11 0000 		.long	.LBE73-.Ltext0
 12926 00c0 8212 0000 		.long	.LBB87-.Ltext0
 12927 00c4 9012 0000 		.long	.LBE87-.Ltext0
 12928 00c8 F611 0000 		.long	.LBB85-.Ltext0
 12929 00cc 7412 0000 		.long	.LBE85-.Ltext0
 12930 00d0 0000 0000 		.long	0x0
 12931 00d4 0000 0000 		.long	0x0
 12932 00d8 4A11 0000 		.long	.LBB77-.Ltext0
 12933 00dc 5C11 0000 		.long	.LBE77-.Ltext0
 12934 00e0 8212 0000 		.long	.LBB82-.Ltext0
 12935 00e4 9012 0000 		.long	.LBE82-.Ltext0
 12936 00e8 F611 0000 		.long	.LBB76-.Ltext0
 12937 00ec 7412 0000 		.long	.LBE76-.Ltext0
 12938 00f0 0000 0000 		.long	0x0
 12939 00f4 0000 0000 		.long	0x0
 12940 00f8 4A11 0000 		.long	.LBB80-.Ltext0
 12941 00fc 5C11 0000 		.long	.LBE80-.Ltext0
 12942 0100 8212 0000 		.long	.LBB81-.Ltext0
 12943 0104 9012 0000 		.long	.LBE81-.Ltext0
 12944 0108 5212 0000 		.long	.LBB78-.Ltext0
 12945 010c 7412 0000 		.long	.LBE78-.Ltext0
 12946 0110 F611 0000 		.long	.LBB79-.Ltext0
 12947 0114 1812 0000 		.long	.LBE79-.Ltext0
 12948 0118 0000 0000 		.long	0x0
 12949 011c 0000 0000 		.long	0x0
 12950 0120 DC13 0000 		.long	.LBB104-.Ltext0
 12951 0124 E213 0000 		.long	.LBE104-.Ltext0
 12952 0128 9014 0000 		.long	.LBB121-.Ltext0
 12953 012c 7C15 0000 		.long	.LBE121-.Ltext0
 12954 0130 0000 0000 		.long	0x0
 12955 0134 0000 0000 		.long	0x0
GAS LISTING C:\DOCUME~1\KEUNSO~1\LOCALS~1\Temp/ccWaaqlF.s 			page 231


 12956 0138 DC13 0000 		.long	.LBB105-.Ltext0
 12957 013c E213 0000 		.long	.LBE105-.Ltext0
 12958 0140 9014 0000 		.long	.LBB108-.Ltext0
 12959 0144 7C15 0000 		.long	.LBE108-.Ltext0
 12960 0148 0000 0000 		.long	0x0
 12961 014c 0000 0000 		.long	0x0
 12962 0150 5414 0000 		.long	.LBB109-.Ltext0
 12963 0154 9014 0000 		.long	.LBE109-.Ltext0
 12964 0158 0E16 0000 		.long	.LBB123-.Ltext0
 12965 015c 1816 0000 		.long	.LBE123-.Ltext0
 12966 0160 7C15 0000 		.long	.LBB122-.Ltext0
 12967 0164 DC15 0000 		.long	.LBE122-.Ltext0
 12968 0168 0000 0000 		.long	0x0
 12969 016c 0000 0000 		.long	0x0
 12970 0170 5414 0000 		.long	.LBB111-.Ltext0
 12971 0174 9014 0000 		.long	.LBE111-.Ltext0
 12972 0178 0E16 0000 		.long	.LBB120-.Ltext0
 12973 017c 1816 0000 		.long	.LBE120-.Ltext0
 12974 0180 7C15 0000 		.long	.LBB110-.Ltext0
 12975 0184 DC15 0000 		.long	.LBE110-.Ltext0
 12976 0188 0000 0000 		.long	0x0
 12977 018c 0000 0000 		.long	0x0
 12978 0190 5414 0000 		.long	.LBB113-.Ltext0
 12979 0194 6814 0000 		.long	.LBE113-.Ltext0
 12980 0198 0E16 0000 		.long	.LBB119-.Ltext0
 12981 019c 1816 0000 		.long	.LBE119-.Ltext0
 12982 01a0 7C15 0000 		.long	.LBB112-.Ltext0
 12983 01a4 BA15 0000 		.long	.LBE112-.Ltext0
 12984 01a8 7414 0000 		.long	.LBB118-.Ltext0
 12985 01ac 8414 0000 		.long	.LBE118-.Ltext0
 12986 01b0 0000 0000 		.long	0x0
 12987 01b4 0000 0000 		.long	0x0
 12988 01b8 5414 0000 		.long	.LBB115-.Ltext0
 12989 01bc 6814 0000 		.long	.LBE115-.Ltext0
 12990 01c0 0E16 0000 		.long	.LBB117-.Ltext0
 12991 01c4 1816 0000 		.long	.LBE117-.Ltext0
 12992 01c8 7C15 0000 		.long	.LBB114-.Ltext0
 12993 01cc BA15 0000 		.long	.LBE114-.Ltext0
 12994 01d0 7414 0000 		.long	.LBB116-.Ltext0
 12995 01d4 8414 0000 		.long	.LBE116-.Ltext0
 12996 01d8 0000 0000 		.long	0x0
 12997 01dc 0000 0000 		.long	0x0
 12998               		.section	.debug_line
 12999 0000 071A 0000 		.long	.LELT0-.LSLT0
 13000               	.LSLT0:
 13001 0004 0200      		.word	0x2
 13002 0006 7600 0000 		.long	.LELTP0-.LASLTP0
 13003               	.LASLTP0:
 13004 000a 01        		.byte	0x1
 13005 000b 01        		.byte	0x1
 13006 000c F6        		.byte	0xf6
 13007 000d F5        		.byte	0xf5
 13008 000e 0A        		.byte	0xa
 13009 000f 00        		.byte	0x0
 13010 0010 01        		.byte	0x1
 13011 0011 01        		.byte	0x1
 13012 0012 01        		.byte	0x1
GAS LISTING C:\DOCUME~1\KEUNSO~1\LOCALS~1\Temp/ccWaaqlF.s 			page 232


 13013 0013 01        		.byte	0x1
 13014 0014 00        		.byte	0x0
 13015 0015 00        		.byte	0x0
 13016 0016 00        		.byte	0x0
 13017 0017 01        		.byte	0x1
 13018 0018 2E2E 5C2E 		.ascii	"..\\..\\..\\source"
 13018      2E5C 2E2E 
 13018      5C73 6F75 
 13018      7263 65
 13019 0027 00        		.byte	0
 13020 0028 2E2E 5C73 		.ascii	"..\\source"
 13020      6F75 7263 
 13020      65
 13021 0031 00        		.byte	0
 13022 0032 00        		.byte	0x0
 13023 0033 6F73 5F63 		.string	"os_core.c"
 13023      6F72 652E 
 13023      6300 
 13024 003d 01        		.uleb128 0x1
 13025 003e 00        		.uleb128 0x0
 13026 003f 00        		.uleb128 0x0
 13027 0040 6F73 5F73 		.string	"os_sem.c"
 13027      656D 2E63 
 13027      00
 13028 0049 01        		.uleb128 0x1
 13029 004a 00        		.uleb128 0x0
 13030 004b 00        		.uleb128 0x0
 13031 004c 6F73 5F74 		.string	"os_task.c"
 13031      6173 6B2E 
 13031      6300 
 13032 0056 01        		.uleb128 0x1
 13033 0057 00        		.uleb128 0x0
 13034 0058 00        		.uleb128 0x0
 13035 0059 6F73 5F74 		.string	"os_time.c"
 13035      696D 652E 
 13035      6300 
 13036 0063 01        		.uleb128 0x1
 13037 0064 00        		.uleb128 0x0
 13038 0065 00        		.uleb128 0x0
 13039 0066 6F73 5F63 		.string	"os_cpu.h"
 13039      7075 2E68 
 13039      00
 13040 006f 02        		.uleb128 0x2
 13041 0070 00        		.uleb128 0x0
 13042 0071 00        		.uleb128 0x0
 13043 0072 7563 6F73 		.string	"ucos_ii.h"
 13043      5F69 692E 
 13043      6800 
 13044 007c 01        		.uleb128 0x1
 13045 007d 00        		.uleb128 0x0
 13046 007e 00        		.uleb128 0x0
 13047 007f 00        		.byte	0x0
 13048               	.LELTP0:
 13049 0080 00        		.byte	0x0
 13050 0081 05        		.uleb128 0x5
 13051 0082 02        		.byte	0x2
 13052 0083 0000 0000 		.long	.LM1
GAS LISTING C:\DOCUME~1\KEUNSO~1\LOCALS~1\Temp/ccWaaqlF.s 			page 233


 13053 0087 03        		.byte	0x3
 13054 0088 A303      		.sleb128 419
 13055 008a 01        		.byte	0x1
 13056 008b 00        		.byte	0x0
 13057 008c 05        		.uleb128 0x5
 13058 008d 02        		.byte	0x2
 13059 008e 0000 0000 		.long	.LM2
 13060 0092 15        		.byte	0x15
 13061 0093 00        		.byte	0x0
 13062 0094 05        		.uleb128 0x5
 13063 0095 02        		.byte	0x2
 13064 0096 0000 0000 		.long	.LM3
 13065 009a 15        		.byte	0x15
 13066 009b 00        		.byte	0x0
 13067 009c 05        		.uleb128 0x5
 13068 009d 02        		.byte	0x2
 13069 009e 0000 0000 		.long	.LM4
 13070 00a2 15        		.byte	0x15
 13071 00a3 00        		.byte	0x0
 13072 00a4 05        		.uleb128 0x5
 13073 00a5 02        		.byte	0x2
 13074 00a6 0000 0000 		.long	.LM5
 13075 00aa 03        		.byte	0x3
 13076 00ab AE02      		.sleb128 302
 13077 00ad 01        		.byte	0x1
 13078 00ae 00        		.byte	0x0
 13079 00af 05        		.uleb128 0x5
 13080 00b0 02        		.byte	0x2
 13081 00b1 0000 0000 		.long	.LM6
 13082 00b5 16        		.byte	0x16
 13083 00b6 00        		.byte	0x0
 13084 00b7 05        		.uleb128 0x5
 13085 00b8 02        		.byte	0x2
 13086 00b9 0000 0000 		.long	.LM7
 13087 00bd 41        		.byte	0x41
 13088 00be 00        		.byte	0x0
 13089 00bf 05        		.uleb128 0x5
 13090 00c0 02        		.byte	0x2
 13091 00c1 0000 0000 		.long	.LM8
 13092 00c5 1D        		.byte	0x1d
 13093 00c6 00        		.byte	0x0
 13094 00c7 05        		.uleb128 0x5
 13095 00c8 02        		.byte	0x2
 13096 00c9 0000 0000 		.long	.LM9
 13097 00cd 15        		.byte	0x15
 13098 00ce 00        		.byte	0x0
 13099 00cf 05        		.uleb128 0x5
 13100 00d0 02        		.byte	0x2
 13101 00d1 0000 0000 		.long	.LM10
 13102 00d5 15        		.byte	0x15
 13103 00d6 00        		.byte	0x0
 13104 00d7 05        		.uleb128 0x5
 13105 00d8 02        		.byte	0x2
 13106 00d9 0000 0000 		.long	.LM11
 13107 00dd 15        		.byte	0x15
 13108 00de 00        		.byte	0x0
 13109 00df 05        		.uleb128 0x5
GAS LISTING C:\DOCUME~1\KEUNSO~1\LOCALS~1\Temp/ccWaaqlF.s 			page 234


 13110 00e0 02        		.byte	0x2
 13111 00e1 0000 0000 		.long	.LM12
 13112 00e5 15        		.byte	0x15
 13113 00e6 00        		.byte	0x0
 13114 00e7 05        		.uleb128 0x5
 13115 00e8 02        		.byte	0x2
 13116 00e9 0000 0000 		.long	.LM13
 13117 00ed 15        		.byte	0x15
 13118 00ee 00        		.byte	0x0
 13119 00ef 05        		.uleb128 0x5
 13120 00f0 02        		.byte	0x2
 13121 00f1 0000 0000 		.long	.LM14
 13122 00f5 15        		.byte	0x15
 13123 00f6 00        		.byte	0x0
 13124 00f7 05        		.uleb128 0x5
 13125 00f8 02        		.byte	0x2
 13126 00f9 0000 0000 		.long	.LM15
 13127 00fd 15        		.byte	0x15
 13128 00fe 00        		.byte	0x0
 13129 00ff 05        		.uleb128 0x5
 13130 0100 02        		.byte	0x2
 13131 0101 0000 0000 		.long	.LM16
 13132 0105 16        		.byte	0x16
 13133 0106 00        		.byte	0x0
 13134 0107 05        		.uleb128 0x5
 13135 0108 02        		.byte	0x2
 13136 0109 0000 0000 		.long	.LM17
 13137 010d 15        		.byte	0x15
 13138 010e 00        		.byte	0x0
 13139 010f 05        		.uleb128 0x5
 13140 0110 02        		.byte	0x2
 13141 0111 0000 0000 		.long	.LM18
 13142 0115 15        		.byte	0x15
 13143 0116 00        		.byte	0x0
 13144 0117 05        		.uleb128 0x5
 13145 0118 02        		.byte	0x2
 13146 0119 0000 0000 		.long	.LM19
 13147 011d 1A        		.byte	0x1a
 13148 011e 00        		.byte	0x0
 13149 011f 05        		.uleb128 0x5
 13150 0120 02        		.byte	0x2
 13151 0121 0000 0000 		.long	.LM20
 13152 0125 15        		.byte	0x15
 13153 0126 00        		.byte	0x0
 13154 0127 05        		.uleb128 0x5
 13155 0128 02        		.byte	0x2
 13156 0129 0000 0000 		.long	.LM21
 13157 012d 15        		.byte	0x15
 13158 012e 00        		.byte	0x0
 13159 012f 05        		.uleb128 0x5
 13160 0130 02        		.byte	0x2
 13161 0131 0000 0000 		.long	.LM22
 13162 0135 15        		.byte	0x15
 13163 0136 00        		.byte	0x0
 13164 0137 05        		.uleb128 0x5
 13165 0138 02        		.byte	0x2
 13166 0139 0000 0000 		.long	.LM23
GAS LISTING C:\DOCUME~1\KEUNSO~1\LOCALS~1\Temp/ccWaaqlF.s 			page 235


 13167 013d 17        		.byte	0x17
 13168 013e 00        		.byte	0x0
 13169 013f 05        		.uleb128 0x5
 13170 0140 02        		.byte	0x2
 13171 0141 0000 0000 		.long	.LM24
 13172 0145 27        		.byte	0x27
 13173 0146 00        		.byte	0x0
 13174 0147 05        		.uleb128 0x5
 13175 0148 02        		.byte	0x2
 13176 0149 0000 0000 		.long	.LM25
 13177 014d 18        		.byte	0x18
 13178 014e 00        		.byte	0x0
 13179 014f 05        		.uleb128 0x5
 13180 0150 02        		.byte	0x2
 13181 0151 0000 0000 		.long	.LM26
 13182 0155 16        		.byte	0x16
 13183 0156 00        		.byte	0x0
 13184 0157 05        		.uleb128 0x5
 13185 0158 02        		.byte	0x2
 13186 0159 0000 0000 		.long	.LM27
 13187 015d 15        		.byte	0x15
 13188 015e 00        		.byte	0x0
 13189 015f 05        		.uleb128 0x5
 13190 0160 02        		.byte	0x2
 13191 0161 0000 0000 		.long	.LM28
 13192 0165 15        		.byte	0x15
 13193 0166 00        		.byte	0x0
 13194 0167 05        		.uleb128 0x5
 13195 0168 02        		.byte	0x2
 13196 0169 0000 0000 		.long	.LM29
 13197 016d 16        		.byte	0x16
 13198 016e 00        		.byte	0x0
 13199 016f 05        		.uleb128 0x5
 13200 0170 02        		.byte	0x2
 13201 0171 0000 0000 		.long	.LM30
 13202 0175 15        		.byte	0x15
 13203 0176 00        		.byte	0x0
 13204 0177 05        		.uleb128 0x5
 13205 0178 02        		.byte	0x2
 13206 0179 0000 0000 		.long	.LM31
 13207 017d 15        		.byte	0x15
 13208 017e 00        		.byte	0x0
 13209 017f 05        		.uleb128 0x5
 13210 0180 02        		.byte	0x2
 13211 0181 0000 0000 		.long	.LM32
 13212 0185 0F        		.byte	0xf
 13213 0186 00        		.byte	0x0
 13214 0187 05        		.uleb128 0x5
 13215 0188 02        		.byte	0x2
 13216 0189 0000 0000 		.long	.LM33
 13217 018d 2C        		.byte	0x2c
 13218 018e 00        		.byte	0x0
 13219 018f 05        		.uleb128 0x5
 13220 0190 02        		.byte	0x2
 13221 0191 0000 0000 		.long	.LM34
 13222 0195 18        		.byte	0x18
 13223 0196 00        		.byte	0x0
GAS LISTING C:\DOCUME~1\KEUNSO~1\LOCALS~1\Temp/ccWaaqlF.s 			page 236


 13224 0197 05        		.uleb128 0x5
 13225 0198 02        		.byte	0x2
 13226 0199 0000 0000 		.long	.LM35
 13227 019d 15        		.byte	0x15
 13228 019e 00        		.byte	0x0
 13229 019f 05        		.uleb128 0x5
 13230 01a0 02        		.byte	0x2
 13231 01a1 0000 0000 		.long	.LM36
 13232 01a5 15        		.byte	0x15
 13233 01a6 00        		.byte	0x0
 13234 01a7 05        		.uleb128 0x5
 13235 01a8 02        		.byte	0x2
 13236 01a9 0000 0000 		.long	.LM37
 13237 01ad 15        		.byte	0x15
 13238 01ae 00        		.byte	0x0
 13239 01af 05        		.uleb128 0x5
 13240 01b0 02        		.byte	0x2
 13241 01b1 0000 0000 		.long	.LM38
 13242 01b5 16        		.byte	0x16
 13243 01b6 00        		.byte	0x0
 13244 01b7 05        		.uleb128 0x5
 13245 01b8 02        		.byte	0x2
 13246 01b9 0000 0000 		.long	.LM39
 13247 01bd 15        		.byte	0x15
 13248 01be 00        		.byte	0x0
 13249 01bf 05        		.uleb128 0x5
 13250 01c0 02        		.byte	0x2
 13251 01c1 0000 0000 		.long	.LM40
 13252 01c5 15        		.byte	0x15
 13253 01c6 00        		.byte	0x0
 13254 01c7 05        		.uleb128 0x5
 13255 01c8 02        		.byte	0x2
 13256 01c9 0000 0000 		.long	.LM41
 13257 01cd 26        		.byte	0x26
 13258 01ce 00        		.byte	0x0
 13259 01cf 05        		.uleb128 0x5
 13260 01d0 02        		.byte	0x2
 13261 01d1 0000 0000 		.long	.LM42
 13262 01d5 18        		.byte	0x18
 13263 01d6 00        		.byte	0x0
 13264 01d7 05        		.uleb128 0x5
 13265 01d8 02        		.byte	0x2
 13266 01d9 0000 0000 		.long	.LM43
 13267 01dd 18        		.byte	0x18
 13268 01de 00        		.byte	0x0
 13269 01df 05        		.uleb128 0x5
 13270 01e0 02        		.byte	0x2
 13271 01e1 0000 0000 		.long	.LM44
 13272 01e5 18        		.byte	0x18
 13273 01e6 00        		.byte	0x0
 13274 01e7 05        		.uleb128 0x5
 13275 01e8 02        		.byte	0x2
 13276 01e9 0000 0000 		.long	.LM45
 13277 01ed 2E        		.byte	0x2e
 13278 01ee 00        		.byte	0x0
 13279 01ef 05        		.uleb128 0x5
 13280 01f0 02        		.byte	0x2
GAS LISTING C:\DOCUME~1\KEUNSO~1\LOCALS~1\Temp/ccWaaqlF.s 			page 237


 13281 01f1 0000 0000 		.long	.LM46
 13282 01f5 04        		.byte	0x4
 13283 01f6 02        		.uleb128 0x2
 13284 01f7 03        		.byte	0x3
 13285 01f8 8F79      		.sleb128 -881
 13286 01fa 01        		.byte	0x1
 13287 01fb 00        		.byte	0x0
 13288 01fc 05        		.uleb128 0x5
 13289 01fd 02        		.byte	0x2
 13290 01fe 0000 0000 		.long	.LM47
 13291 0202 20        		.byte	0x20
 13292 0203 00        		.byte	0x0
 13293 0204 05        		.uleb128 0x5
 13294 0205 02        		.byte	0x2
 13295 0206 0000 0000 		.long	.LM48
 13296 020a 1E        		.byte	0x1e
 13297 020b 00        		.byte	0x0
 13298 020c 05        		.uleb128 0x5
 13299 020d 02        		.byte	0x2
 13300 020e 0000 0000 		.long	.LM49
 13301 0212 0D        		.byte	0xd
 13302 0213 00        		.byte	0x0
 13303 0214 05        		.uleb128 0x5
 13304 0215 02        		.byte	0x2
 13305 0216 0000 0000 		.long	.LM50
 13306 021a 15        		.byte	0x15
 13307 021b 00        		.byte	0x0
 13308 021c 05        		.uleb128 0x5
 13309 021d 02        		.byte	0x2
 13310 021e 0000 0000 		.long	.LM51
 13311 0222 15        		.byte	0x15
 13312 0223 00        		.byte	0x0
 13313 0224 05        		.uleb128 0x5
 13314 0225 02        		.byte	0x2
 13315 0226 0000 0000 		.long	.LM52
 13316 022a 15        		.byte	0x15
 13317 022b 00        		.byte	0x0
 13318 022c 05        		.uleb128 0x5
 13319 022d 02        		.byte	0x2
 13320 022e 0000 0000 		.long	.LM53
 13321 0232 16        		.byte	0x16
 13322 0233 00        		.byte	0x0
 13323 0234 05        		.uleb128 0x5
 13324 0235 02        		.byte	0x2
 13325 0236 0000 0000 		.long	.LM54
 13326 023a 16        		.byte	0x16
 13327 023b 00        		.byte	0x0
 13328 023c 05        		.uleb128 0x5
 13329 023d 02        		.byte	0x2
 13330 023e 0000 0000 		.long	.LM55
 13331 0242 03        		.byte	0x3
 13332 0243 B502      		.sleb128 309
 13333 0245 01        		.byte	0x1
 13334 0246 00        		.byte	0x0
 13335 0247 05        		.uleb128 0x5
 13336 0248 02        		.byte	0x2
 13337 0249 0000 0000 		.long	.LM56
GAS LISTING C:\DOCUME~1\KEUNSO~1\LOCALS~1\Temp/ccWaaqlF.s 			page 238


 13338 024d 21        		.byte	0x21
 13339 024e 00        		.byte	0x0
 13340 024f 05        		.uleb128 0x5
 13341 0250 02        		.byte	0x2
 13342 0251 0000 0000 		.long	.LM57
 13343 0255 17        		.byte	0x17
 13344 0256 00        		.byte	0x0
 13345 0257 05        		.uleb128 0x5
 13346 0258 02        		.byte	0x2
 13347 0259 0000 0000 		.long	.LM58
 13348 025d 15        		.byte	0x15
 13349 025e 00        		.byte	0x0
 13350 025f 05        		.uleb128 0x5
 13351 0260 02        		.byte	0x2
 13352 0261 0000 0000 		.long	.LM59
 13353 0265 18        		.byte	0x18
 13354 0266 00        		.byte	0x0
 13355 0267 05        		.uleb128 0x5
 13356 0268 02        		.byte	0x2
 13357 0269 0000 0000 		.long	.LM60
 13358 026d 18        		.byte	0x18
 13359 026e 00        		.byte	0x0
 13360 026f 05        		.uleb128 0x5
 13361 0270 02        		.byte	0x2
 13362 0271 0000 0000 		.long	.LM61
 13363 0275 2E        		.byte	0x2e
 13364 0276 00        		.byte	0x0
 13365 0277 05        		.uleb128 0x5
 13366 0278 02        		.byte	0x2
 13367 0279 0000 0000 		.long	.LM62
 13368 027d 15        		.byte	0x15
 13369 027e 00        		.byte	0x0
 13370 027f 05        		.uleb128 0x5
 13371 0280 02        		.byte	0x2
 13372 0281 0000 0000 		.long	.LM63
 13373 0285 16        		.byte	0x16
 13374 0286 00        		.byte	0x0
 13375 0287 05        		.uleb128 0x5
 13376 0288 02        		.byte	0x2
 13377 0289 0000 0000 		.long	.LM64
 13378 028d 04        		.byte	0x4
 13379 028e 03        		.uleb128 0x3
 13380 028f 03        		.byte	0x3
 13381 0290 B902      		.sleb128 313
 13382 0292 01        		.byte	0x1
 13383 0293 00        		.byte	0x0
 13384 0294 05        		.uleb128 0x5
 13385 0295 02        		.byte	0x2
 13386 0296 0000 0000 		.long	.LM65
 13387 029a 25        		.byte	0x25
 13388 029b 00        		.byte	0x0
 13389 029c 05        		.uleb128 0x5
 13390 029d 02        		.byte	0x2
 13391 029e 0000 0000 		.long	.LM66
 13392 02a2 15        		.byte	0x15
 13393 02a3 00        		.byte	0x0
 13394 02a4 05        		.uleb128 0x5
GAS LISTING C:\DOCUME~1\KEUNSO~1\LOCALS~1\Temp/ccWaaqlF.s 			page 239


 13395 02a5 02        		.byte	0x2
 13396 02a6 0000 0000 		.long	.LM67
 13397 02aa 15        		.byte	0x15
 13398 02ab 00        		.byte	0x0
 13399 02ac 05        		.uleb128 0x5
 13400 02ad 02        		.byte	0x2
 13401 02ae 0000 0000 		.long	.LM68
 13402 02b2 15        		.byte	0x15
 13403 02b3 00        		.byte	0x0
 13404 02b4 05        		.uleb128 0x5
 13405 02b5 02        		.byte	0x2
 13406 02b6 0000 0000 		.long	.LM69
 13407 02ba 17        		.byte	0x17
 13408 02bb 00        		.byte	0x0
 13409 02bc 05        		.uleb128 0x5
 13410 02bd 02        		.byte	0x2
 13411 02be 0000 0000 		.long	.LM70
 13412 02c2 15        		.byte	0x15
 13413 02c3 00        		.byte	0x0
 13414 02c4 05        		.uleb128 0x5
 13415 02c5 02        		.byte	0x2
 13416 02c6 0000 0000 		.long	.LM71
 13417 02ca 18        		.byte	0x18
 13418 02cb 00        		.byte	0x0
 13419 02cc 05        		.uleb128 0x5
 13420 02cd 02        		.byte	0x2
 13421 02ce 0000 0000 		.long	.LM72
 13422 02d2 18        		.byte	0x18
 13423 02d3 00        		.byte	0x0
 13424 02d4 05        		.uleb128 0x5
 13425 02d5 02        		.byte	0x2
 13426 02d6 0000 0000 		.long	.LM73
 13427 02da 15        		.byte	0x15
 13428 02db 00        		.byte	0x0
 13429 02dc 05        		.uleb128 0x5
 13430 02dd 02        		.byte	0x2
 13431 02de 0000 0000 		.long	.LM74
 13432 02e2 27        		.byte	0x27
 13433 02e3 00        		.byte	0x0
 13434 02e4 05        		.uleb128 0x5
 13435 02e5 02        		.byte	0x2
 13436 02e6 0000 0000 		.long	.LM75
 13437 02ea 03        		.byte	0x3
 13438 02eb 61        		.sleb128 -31
 13439 02ec 01        		.byte	0x1
 13440 02ed 00        		.byte	0x0
 13441 02ee 05        		.uleb128 0x5
 13442 02ef 02        		.byte	0x2
 13443 02f0 0000 0000 		.long	.LM76
 13444 02f4 18        		.byte	0x18
 13445 02f5 00        		.byte	0x0
 13446 02f6 05        		.uleb128 0x5
 13447 02f7 02        		.byte	0x2
 13448 02f8 0000 0000 		.long	.LM77
 13449 02fc 2F        		.byte	0x2f
 13450 02fd 00        		.byte	0x0
 13451 02fe 05        		.uleb128 0x5
GAS LISTING C:\DOCUME~1\KEUNSO~1\LOCALS~1\Temp/ccWaaqlF.s 			page 240


 13452 02ff 02        		.byte	0x2
 13453 0300 0000 0000 		.long	.LM78
 13454 0304 03        		.byte	0x3
 13455 0305 71        		.sleb128 -15
 13456 0306 01        		.byte	0x1
 13457 0307 00        		.byte	0x0
 13458 0308 05        		.uleb128 0x5
 13459 0309 02        		.byte	0x2
 13460 030a 0000 0000 		.long	.LM79
 13461 030e 15        		.byte	0x15
 13462 030f 00        		.byte	0x0
 13463 0310 05        		.uleb128 0x5
 13464 0311 02        		.byte	0x2
 13465 0312 0000 0000 		.long	.LM80
 13466 0316 15        		.byte	0x15
 13467 0317 00        		.byte	0x0
 13468 0318 05        		.uleb128 0x5
 13469 0319 02        		.byte	0x2
 13470 031a 0000 0000 		.long	.LM81
 13471 031e 16        		.byte	0x16
 13472 031f 00        		.byte	0x0
 13473 0320 05        		.uleb128 0x5
 13474 0321 02        		.byte	0x2
 13475 0322 0000 0000 		.long	.LM82
 13476 0326 15        		.byte	0x15
 13477 0327 00        		.byte	0x0
 13478 0328 05        		.uleb128 0x5
 13479 0329 02        		.byte	0x2
 13480 032a 0000 0000 		.long	.LM83
 13481 032e 13        		.byte	0x13
 13482 032f 00        		.byte	0x0
 13483 0330 05        		.uleb128 0x5
 13484 0331 02        		.byte	0x2
 13485 0332 0000 0000 		.long	.LM84
 13486 0336 1C        		.byte	0x1c
 13487 0337 00        		.byte	0x0
 13488 0338 05        		.uleb128 0x5
 13489 0339 02        		.byte	0x2
 13490 033a 0000 0000 		.long	.LM85
 13491 033e 15        		.byte	0x15
 13492 033f 00        		.byte	0x0
 13493 0340 05        		.uleb128 0x5
 13494 0341 02        		.byte	0x2
 13495 0342 0000 0000 		.long	.LM86
 13496 0346 16        		.byte	0x16
 13497 0347 00        		.byte	0x0
 13498 0348 05        		.uleb128 0x5
 13499 0349 02        		.byte	0x2
 13500 034a 0000 0000 		.long	.LM87
 13501 034e 03        		.byte	0x3
 13502 034f 69        		.sleb128 -23
 13503 0350 01        		.byte	0x1
 13504 0351 00        		.byte	0x0
 13505 0352 05        		.uleb128 0x5
 13506 0353 02        		.byte	0x2
 13507 0354 0000 0000 		.long	.LM88
 13508 0358 2B        		.byte	0x2b
GAS LISTING C:\DOCUME~1\KEUNSO~1\LOCALS~1\Temp/ccWaaqlF.s 			page 241


 13509 0359 00        		.byte	0x0
 13510 035a 05        		.uleb128 0x5
 13511 035b 02        		.byte	0x2
 13512 035c 0000 0000 		.long	.LM89
 13513 0360 03        		.byte	0x3
 13514 0361 75        		.sleb128 -11
 13515 0362 01        		.byte	0x1
 13516 0363 00        		.byte	0x0
 13517 0364 05        		.uleb128 0x5
 13518 0365 02        		.byte	0x2
 13519 0366 0000 0000 		.long	.LM90
 13520 036a AF        		.byte	0xaf
 13521 036b 00        		.byte	0x0
 13522 036c 05        		.uleb128 0x5
 13523 036d 02        		.byte	0x2
 13524 036e 0000 0000 		.long	.LM91
 13525 0372 15        		.byte	0x15
 13526 0373 00        		.byte	0x0
 13527 0374 05        		.uleb128 0x5
 13528 0375 02        		.byte	0x2
 13529 0376 0000 0000 		.long	.LM92
 13530 037a 15        		.byte	0x15
 13531 037b 00        		.byte	0x0
 13532 037c 05        		.uleb128 0x5
 13533 037d 02        		.byte	0x2
 13534 037e 0000 0000 		.long	.LM93
 13535 0382 17        		.byte	0x17
 13536 0383 00        		.byte	0x0
 13537 0384 05        		.uleb128 0x5
 13538 0385 02        		.byte	0x2
 13539 0386 0000 0000 		.long	.LM94
 13540 038a 15        		.byte	0x15
 13541 038b 00        		.byte	0x0
 13542 038c 05        		.uleb128 0x5
 13543 038d 02        		.byte	0x2
 13544 038e 0000 0000 		.long	.LM95
 13545 0392 12        		.byte	0x12
 13546 0393 00        		.byte	0x0
 13547 0394 05        		.uleb128 0x5
 13548 0395 02        		.byte	0x2
 13549 0396 0000 0000 		.long	.LM96
 13550 039a 04        		.byte	0x4
 13551 039b 04        		.uleb128 0x4
 13552 039c 03        		.byte	0x3
 13553 039d 9B7A      		.sleb128 -741
 13554 039f 01        		.byte	0x1
 13555 03a0 00        		.byte	0x0
 13556 03a1 05        		.uleb128 0x5
 13557 03a2 02        		.byte	0x2
 13558 03a3 0000 0000 		.long	.LM97
 13559 03a7 1B        		.byte	0x1b
 13560 03a8 00        		.byte	0x0
 13561 03a9 05        		.uleb128 0x5
 13562 03aa 02        		.byte	0x2
 13563 03ab 0000 0000 		.long	.LM98
 13564 03af 15        		.byte	0x15
 13565 03b0 00        		.byte	0x0
GAS LISTING C:\DOCUME~1\KEUNSO~1\LOCALS~1\Temp/ccWaaqlF.s 			page 242


 13566 03b1 05        		.uleb128 0x5
 13567 03b2 02        		.byte	0x2
 13568 03b3 0000 0000 		.long	.LM99
 13569 03b7 15        		.byte	0x15
 13570 03b8 00        		.byte	0x0
 13571 03b9 05        		.uleb128 0x5
 13572 03ba 02        		.byte	0x2
 13573 03bb 0000 0000 		.long	.LM100
 13574 03bf 16        		.byte	0x16
 13575 03c0 00        		.byte	0x0
 13576 03c1 05        		.uleb128 0x5
 13577 03c2 02        		.byte	0x2
 13578 03c3 0000 0000 		.long	.LM101
 13579 03c7 25        		.byte	0x25
 13580 03c8 00        		.byte	0x0
 13581 03c9 05        		.uleb128 0x5
 13582 03ca 02        		.byte	0x2
 13583 03cb 0000 0000 		.long	.LM102
 13584 03cf 1A        		.byte	0x1a
 13585 03d0 00        		.byte	0x0
 13586 03d1 05        		.uleb128 0x5
 13587 03d2 02        		.byte	0x2
 13588 03d3 0000 0000 		.long	.LM103
 13589 03d7 15        		.byte	0x15
 13590 03d8 00        		.byte	0x0
 13591 03d9 05        		.uleb128 0x5
 13592 03da 02        		.byte	0x2
 13593 03db 0000 0000 		.long	.LM104
 13594 03df 15        		.byte	0x15
 13595 03e0 00        		.byte	0x0
 13596 03e1 05        		.uleb128 0x5
 13597 03e2 02        		.byte	0x2
 13598 03e3 0000 0000 		.long	.LM105
 13599 03e7 15        		.byte	0x15
 13600 03e8 00        		.byte	0x0
 13601 03e9 05        		.uleb128 0x5
 13602 03ea 02        		.byte	0x2
 13603 03eb 0000 0000 		.long	.LM106
 13604 03ef 04        		.byte	0x4
 13605 03f0 03        		.uleb128 0x3
 13606 03f1 03        		.byte	0x3
 13607 03f2 8705      		.sleb128 647
 13608 03f4 01        		.byte	0x1
 13609 03f5 00        		.byte	0x0
 13610 03f6 05        		.uleb128 0x5
 13611 03f7 02        		.byte	0x2
 13612 03f8 0000 0000 		.long	.LM107
 13613 03fc 22        		.byte	0x22
 13614 03fd 00        		.byte	0x0
 13615 03fe 05        		.uleb128 0x5
 13616 03ff 02        		.byte	0x2
 13617 0400 0000 0000 		.long	.LM108
 13618 0404 15        		.byte	0x15
 13619 0405 00        		.byte	0x0
 13620 0406 05        		.uleb128 0x5
 13621 0407 02        		.byte	0x2
 13622 0408 0000 0000 		.long	.LM109
GAS LISTING C:\DOCUME~1\KEUNSO~1\LOCALS~1\Temp/ccWaaqlF.s 			page 243


 13623 040c 17        		.byte	0x17
 13624 040d 00        		.byte	0x0
 13625 040e 05        		.uleb128 0x5
 13626 040f 02        		.byte	0x2
 13627 0410 0000 0000 		.long	.LM110
 13628 0414 15        		.byte	0x15
 13629 0415 00        		.byte	0x0
 13630 0416 05        		.uleb128 0x5
 13631 0417 02        		.byte	0x2
 13632 0418 0000 0000 		.long	.LM111
 13633 041c 18        		.byte	0x18
 13634 041d 00        		.byte	0x0
 13635 041e 05        		.uleb128 0x5
 13636 041f 02        		.byte	0x2
 13637 0420 0000 0000 		.long	.LM112
 13638 0424 15        		.byte	0x15
 13639 0425 00        		.byte	0x0
 13640 0426 05        		.uleb128 0x5
 13641 0427 02        		.byte	0x2
 13642 0428 0000 0000 		.long	.LM113
 13643 042c 16        		.byte	0x16
 13644 042d 00        		.byte	0x0
 13645 042e 05        		.uleb128 0x5
 13646 042f 02        		.byte	0x2
 13647 0430 0000 0000 		.long	.LM114
 13648 0434 0E        		.byte	0xe
 13649 0435 00        		.byte	0x0
 13650 0436 05        		.uleb128 0x5
 13651 0437 02        		.byte	0x2
 13652 0438 0000 0000 		.long	.LM115
 13653 043c 10        		.byte	0x10
 13654 043d 00        		.byte	0x0
 13655 043e 05        		.uleb128 0x5
 13656 043f 02        		.byte	0x2
 13657 0440 0000 0000 		.long	.LM116
 13658 0444 03        		.byte	0x3
 13659 0445 E77D      		.sleb128 -281
 13660 0447 01        		.byte	0x1
 13661 0448 00        		.byte	0x0
 13662 0449 05        		.uleb128 0x5
 13663 044a 02        		.byte	0x2
 13664 044b 0000 0000 		.long	.LM117
 13665 044f 1C        		.byte	0x1c
 13666 0450 00        		.byte	0x0
 13667 0451 05        		.uleb128 0x5
 13668 0452 02        		.byte	0x2
 13669 0453 0000 0000 		.long	.LM118
 13670 0457 22        		.byte	0x22
 13671 0458 00        		.byte	0x0
 13672 0459 05        		.uleb128 0x5
 13673 045a 02        		.byte	0x2
 13674 045b 0000 0000 		.long	.LM119
 13675 045f 17        		.byte	0x17
 13676 0460 00        		.byte	0x0
 13677 0461 05        		.uleb128 0x5
 13678 0462 02        		.byte	0x2
 13679 0463 0000 0000 		.long	.LM120
GAS LISTING C:\DOCUME~1\KEUNSO~1\LOCALS~1\Temp/ccWaaqlF.s 			page 244


 13680 0467 15        		.byte	0x15
 13681 0468 00        		.byte	0x0
 13682 0469 05        		.uleb128 0x5
 13683 046a 02        		.byte	0x2
 13684 046b 0000 0000 		.long	.LM121
 13685 046f 19        		.byte	0x19
 13686 0470 00        		.byte	0x0
 13687 0471 05        		.uleb128 0x5
 13688 0472 02        		.byte	0x2
 13689 0473 0000 0000 		.long	.LM122
 13690 0477 15        		.byte	0x15
 13691 0478 00        		.byte	0x0
 13692 0479 05        		.uleb128 0x5
 13693 047a 02        		.byte	0x2
 13694 047b 0000 0000 		.long	.LM123
 13695 047f 15        		.byte	0x15
 13696 0480 00        		.byte	0x0
 13697 0481 05        		.uleb128 0x5
 13698 0482 02        		.byte	0x2
 13699 0483 0000 0000 		.long	.LM124
 13700 0487 15        		.byte	0x15
 13701 0488 00        		.byte	0x0
 13702 0489 05        		.uleb128 0x5
 13703 048a 02        		.byte	0x2
 13704 048b 0000 0000 		.long	.LM125
 13705 048f 1A        		.byte	0x1a
 13706 0490 00        		.byte	0x0
 13707 0491 05        		.uleb128 0x5
 13708 0492 02        		.byte	0x2
 13709 0493 0000 0000 		.long	.LM126
 13710 0497 11        		.byte	0x11
 13711 0498 00        		.byte	0x0
 13712 0499 05        		.uleb128 0x5
 13713 049a 02        		.byte	0x2
 13714 049b 0000 0000 		.long	.LM127
 13715 049f 15        		.byte	0x15
 13716 04a0 00        		.byte	0x0
 13717 04a1 05        		.uleb128 0x5
 13718 04a2 02        		.byte	0x2
 13719 04a3 0000 0000 		.long	.LM128
 13720 04a7 15        		.byte	0x15
 13721 04a8 00        		.byte	0x0
 13722 04a9 05        		.uleb128 0x5
 13723 04aa 02        		.byte	0x2
 13724 04ab 0000 0000 		.long	.LM129
 13725 04af 15        		.byte	0x15
 13726 04b0 00        		.byte	0x0
 13727 04b1 05        		.uleb128 0x5
 13728 04b2 02        		.byte	0x2
 13729 04b3 0000 0000 		.long	.LM130
 13730 04b7 03        		.byte	0x3
 13731 04b8 6F        		.sleb128 -17
 13732 04b9 01        		.byte	0x1
 13733 04ba 00        		.byte	0x0
 13734 04bb 05        		.uleb128 0x5
 13735 04bc 02        		.byte	0x2
 13736 04bd 0000 0000 		.long	.LM131
GAS LISTING C:\DOCUME~1\KEUNSO~1\LOCALS~1\Temp/ccWaaqlF.s 			page 245


 13737 04c1 18        		.byte	0x18
 13738 04c2 00        		.byte	0x0
 13739 04c3 05        		.uleb128 0x5
 13740 04c4 02        		.byte	0x2
 13741 04c5 0000 0000 		.long	.LM132
 13742 04c9 15        		.byte	0x15
 13743 04ca 00        		.byte	0x0
 13744 04cb 05        		.uleb128 0x5
 13745 04cc 02        		.byte	0x2
 13746 04cd 0000 0000 		.long	.LM133
 13747 04d1 20        		.byte	0x20
 13748 04d2 00        		.byte	0x0
 13749 04d3 05        		.uleb128 0x5
 13750 04d4 02        		.byte	0x2
 13751 04d5 0000 0000 		.long	.LM134
 13752 04d9 03        		.byte	0x3
 13753 04da 977F      		.sleb128 -105
 13754 04dc 01        		.byte	0x1
 13755 04dd 00        		.byte	0x0
 13756 04de 05        		.uleb128 0x5
 13757 04df 02        		.byte	0x2
 13758 04e0 0000 0000 		.long	.LM135
 13759 04e4 1C        		.byte	0x1c
 13760 04e5 00        		.byte	0x0
 13761 04e6 05        		.uleb128 0x5
 13762 04e7 02        		.byte	0x2
 13763 04e8 0000 0000 		.long	.LM136
 13764 04ec 20        		.byte	0x20
 13765 04ed 00        		.byte	0x0
 13766 04ee 05        		.uleb128 0x5
 13767 04ef 02        		.byte	0x2
 13768 04f0 0000 0000 		.long	.LM137
 13769 04f4 17        		.byte	0x17
 13770 04f5 00        		.byte	0x0
 13771 04f6 05        		.uleb128 0x5
 13772 04f7 02        		.byte	0x2
 13773 04f8 0000 0000 		.long	.LM138
 13774 04fc 15        		.byte	0x15
 13775 04fd 00        		.byte	0x0
 13776 04fe 05        		.uleb128 0x5
 13777 04ff 02        		.byte	0x2
 13778 0500 0000 0000 		.long	.LM139
 13779 0504 19        		.byte	0x19
 13780 0505 00        		.byte	0x0
 13781 0506 05        		.uleb128 0x5
 13782 0507 02        		.byte	0x2
 13783 0508 0000 0000 		.long	.LM140
 13784 050c 15        		.byte	0x15
 13785 050d 00        		.byte	0x0
 13786 050e 05        		.uleb128 0x5
 13787 050f 02        		.byte	0x2
 13788 0510 0000 0000 		.long	.LM141
 13789 0514 15        		.byte	0x15
 13790 0515 00        		.byte	0x0
 13791 0516 05        		.uleb128 0x5
 13792 0517 02        		.byte	0x2
 13793 0518 0000 0000 		.long	.LM142
GAS LISTING C:\DOCUME~1\KEUNSO~1\LOCALS~1\Temp/ccWaaqlF.s 			page 246


 13794 051c 15        		.byte	0x15
 13795 051d 00        		.byte	0x0
 13796 051e 05        		.uleb128 0x5
 13797 051f 02        		.byte	0x2
 13798 0520 0000 0000 		.long	.LM143
 13799 0524 16        		.byte	0x16
 13800 0525 00        		.byte	0x0
 13801 0526 05        		.uleb128 0x5
 13802 0527 02        		.byte	0x2
 13803 0528 0000 0000 		.long	.LM144
 13804 052c 03        		.byte	0x3
 13805 052d 73        		.sleb128 -13
 13806 052e 01        		.byte	0x1
 13807 052f 00        		.byte	0x0
 13808 0530 05        		.uleb128 0x5
 13809 0531 02        		.byte	0x2
 13810 0532 0000 0000 		.long	.LM145
 13811 0536 18        		.byte	0x18
 13812 0537 00        		.byte	0x0
 13813 0538 05        		.uleb128 0x5
 13814 0539 02        		.byte	0x2
 13815 053a 0000 0000 		.long	.LM146
 13816 053e 15        		.byte	0x15
 13817 053f 00        		.byte	0x0
 13818 0540 05        		.uleb128 0x5
 13819 0541 02        		.byte	0x2
 13820 0542 0000 0000 		.long	.LM147
 13821 0546 1C        		.byte	0x1c
 13822 0547 00        		.byte	0x0
 13823 0548 05        		.uleb128 0x5
 13824 0549 02        		.byte	0x2
 13825 054a 0000 0000 		.long	.LM148
 13826 054e 04        		.byte	0x4
 13827 054f 01        		.uleb128 0x1
 13828 0550 03        		.byte	0x3
 13829 0551 E37D      		.sleb128 -285
 13830 0553 01        		.byte	0x1
 13831 0554 00        		.byte	0x0
 13832 0555 05        		.uleb128 0x5
 13833 0556 02        		.byte	0x2
 13834 0557 0000 0000 		.long	.LM149
 13835 055b 1B        		.byte	0x1b
 13836 055c 00        		.byte	0x0
 13837 055d 05        		.uleb128 0x5
 13838 055e 02        		.byte	0x2
 13839 055f 0000 0000 		.long	.LM150
 13840 0563 21        		.byte	0x21
 13841 0564 00        		.byte	0x0
 13842 0565 05        		.uleb128 0x5
 13843 0566 02        		.byte	0x2
 13844 0567 0000 0000 		.long	.LM151
 13845 056b 20        		.byte	0x20
 13846 056c 00        		.byte	0x0
 13847 056d 05        		.uleb128 0x5
 13848 056e 02        		.byte	0x2
 13849 056f 0000 0000 		.long	.LM152
 13850 0573 15        		.byte	0x15
GAS LISTING C:\DOCUME~1\KEUNSO~1\LOCALS~1\Temp/ccWaaqlF.s 			page 247


 13851 0574 00        		.byte	0x0
 13852 0575 05        		.uleb128 0x5
 13853 0576 02        		.byte	0x2
 13854 0577 0000 0000 		.long	.LM153
 13855 057b 15        		.byte	0x15
 13856 057c 00        		.byte	0x0
 13857 057d 05        		.uleb128 0x5
 13858 057e 02        		.byte	0x2
 13859 057f 0000 0000 		.long	.LM154
 13860 0583 15        		.byte	0x15
 13861 0584 00        		.byte	0x0
 13862 0585 05        		.uleb128 0x5
 13863 0586 02        		.byte	0x2
 13864 0587 0000 0000 		.long	.LM155
 13865 058b 1A        		.byte	0x1a
 13866 058c 00        		.byte	0x0
 13867 058d 05        		.uleb128 0x5
 13868 058e 02        		.byte	0x2
 13869 058f 0000 0000 		.long	.LM156
 13870 0593 03        		.byte	0x3
 13871 0594 73        		.sleb128 -13
 13872 0595 01        		.byte	0x1
 13873 0596 00        		.byte	0x0
 13874 0597 05        		.uleb128 0x5
 13875 0598 02        		.byte	0x2
 13876 0599 0000 0000 		.long	.LM157
 13877 059d 15        		.byte	0x15
 13878 059e 00        		.byte	0x0
 13879 059f 05        		.uleb128 0x5
 13880 05a0 02        		.byte	0x2
 13881 05a1 0000 0000 		.long	.LM158
 13882 05a5 20        		.byte	0x20
 13883 05a6 00        		.byte	0x0
 13884 05a7 05        		.uleb128 0x5
 13885 05a8 02        		.byte	0x2
 13886 05a9 0000 0000 		.long	.LM159
 13887 05ad 11        		.byte	0x11
 13888 05ae 00        		.byte	0x0
 13889 05af 05        		.uleb128 0x5
 13890 05b0 02        		.byte	0x2
 13891 05b1 0000 0000 		.long	.LM160
 13892 05b5 15        		.byte	0x15
 13893 05b6 00        		.byte	0x0
 13894 05b7 05        		.uleb128 0x5
 13895 05b8 02        		.byte	0x2
 13896 05b9 0000 0000 		.long	.LM161
 13897 05bd 15        		.byte	0x15
 13898 05be 00        		.byte	0x0
 13899 05bf 05        		.uleb128 0x5
 13900 05c0 02        		.byte	0x2
 13901 05c1 0000 0000 		.long	.LM162
 13902 05c5 15        		.byte	0x15
 13903 05c6 00        		.byte	0x0
 13904 05c7 05        		.uleb128 0x5
 13905 05c8 02        		.byte	0x2
 13906 05c9 0000 0000 		.long	.LM163
 13907 05cd 03        		.byte	0x3
GAS LISTING C:\DOCUME~1\KEUNSO~1\LOCALS~1\Temp/ccWaaqlF.s 			page 248


 13908 05ce 927F      		.sleb128 -110
 13909 05d0 01        		.byte	0x1
 13910 05d1 00        		.byte	0x0
 13911 05d2 05        		.uleb128 0x5
 13912 05d3 02        		.byte	0x2
 13913 05d4 0000 0000 		.long	.LM164
 13914 05d8 1B        		.byte	0x1b
 13915 05d9 00        		.byte	0x0
 13916 05da 05        		.uleb128 0x5
 13917 05db 02        		.byte	0x2
 13918 05dc 0000 0000 		.long	.LM165
 13919 05e0 21        		.byte	0x21
 13920 05e1 00        		.byte	0x0
 13921 05e2 05        		.uleb128 0x5
 13922 05e3 02        		.byte	0x2
 13923 05e4 0000 0000 		.long	.LM166
 13924 05e8 20        		.byte	0x20
 13925 05e9 00        		.byte	0x0
 13926 05ea 05        		.uleb128 0x5
 13927 05eb 02        		.byte	0x2
 13928 05ec 0000 0000 		.long	.LM167
 13929 05f0 15        		.byte	0x15
 13930 05f1 00        		.byte	0x0
 13931 05f2 05        		.uleb128 0x5
 13932 05f3 02        		.byte	0x2
 13933 05f4 0000 0000 		.long	.LM168
 13934 05f8 15        		.byte	0x15
 13935 05f9 00        		.byte	0x0
 13936 05fa 05        		.uleb128 0x5
 13937 05fb 02        		.byte	0x2
 13938 05fc 0000 0000 		.long	.LM169
 13939 0600 15        		.byte	0x15
 13940 0601 00        		.byte	0x0
 13941 0602 05        		.uleb128 0x5
 13942 0603 02        		.byte	0x2
 13943 0604 0000 0000 		.long	.LM170
 13944 0608 16        		.byte	0x16
 13945 0609 00        		.byte	0x0
 13946 060a 05        		.uleb128 0x5
 13947 060b 02        		.byte	0x2
 13948 060c 0000 0000 		.long	.LM171
 13949 0610 0B        		.byte	0xb
 13950 0611 00        		.byte	0x0
 13951 0612 05        		.uleb128 0x5
 13952 0613 02        		.byte	0x2
 13953 0614 0000 0000 		.long	.LM172
 13954 0618 15        		.byte	0x15
 13955 0619 00        		.byte	0x0
 13956 061a 05        		.uleb128 0x5
 13957 061b 02        		.byte	0x2
 13958 061c 0000 0000 		.long	.LM173
 13959 0620 1C        		.byte	0x1c
 13960 0621 00        		.byte	0x0
 13961 0622 05        		.uleb128 0x5
 13962 0623 02        		.byte	0x2
 13963 0624 0000 0000 		.long	.LM174
 13964 0628 04        		.byte	0x4
GAS LISTING C:\DOCUME~1\KEUNSO~1\LOCALS~1\Temp/ccWaaqlF.s 			page 249


 13965 0629 02        		.uleb128 0x2
 13966 062a 03        		.byte	0x3
 13967 062b C87E      		.sleb128 -184
 13968 062d 01        		.byte	0x1
 13969 062e 00        		.byte	0x0
 13970 062f 05        		.uleb128 0x5
 13971 0630 02        		.byte	0x2
 13972 0631 0000 0000 		.long	.LM175
 13973 0635 1B        		.byte	0x1b
 13974 0636 00        		.byte	0x0
 13975 0637 05        		.uleb128 0x5
 13976 0638 02        		.byte	0x2
 13977 0639 0000 0000 		.long	.LM176
 13978 063d 17        		.byte	0x17
 13979 063e 00        		.byte	0x0
 13980 063f 05        		.uleb128 0x5
 13981 0640 02        		.byte	0x2
 13982 0641 0000 0000 		.long	.LM177
 13983 0645 15        		.byte	0x15
 13984 0646 00        		.byte	0x0
 13985 0647 05        		.uleb128 0x5
 13986 0648 02        		.byte	0x2
 13987 0649 0000 0000 		.long	.LM178
 13988 064d 15        		.byte	0x15
 13989 064e 00        		.byte	0x0
 13990 064f 05        		.uleb128 0x5
 13991 0650 02        		.byte	0x2
 13992 0651 0000 0000 		.long	.LM179
 13993 0655 15        		.byte	0x15
 13994 0656 00        		.byte	0x0
 13995 0657 05        		.uleb128 0x5
 13996 0658 02        		.byte	0x2
 13997 0659 0000 0000 		.long	.LM180
 13998 065d 16        		.byte	0x16
 13999 065e 00        		.byte	0x0
 14000 065f 05        		.uleb128 0x5
 14001 0660 02        		.byte	0x2
 14002 0661 0000 0000 		.long	.LM181
 14003 0665 15        		.byte	0x15
 14004 0666 00        		.byte	0x0
 14005 0667 05        		.uleb128 0x5
 14006 0668 02        		.byte	0x2
 14007 0669 0000 0000 		.long	.LM182
 14008 066d 15        		.byte	0x15
 14009 066e 00        		.byte	0x0
 14010 066f 05        		.uleb128 0x5
 14011 0670 02        		.byte	0x2
 14012 0671 0000 0000 		.long	.LM183
 14013 0675 15        		.byte	0x15
 14014 0676 00        		.byte	0x0
 14015 0677 05        		.uleb128 0x5
 14016 0678 02        		.byte	0x2
 14017 0679 0000 0000 		.long	.LM184
 14018 067d 15        		.byte	0x15
 14019 067e 00        		.byte	0x0
 14020 067f 05        		.uleb128 0x5
 14021 0680 02        		.byte	0x2
GAS LISTING C:\DOCUME~1\KEUNSO~1\LOCALS~1\Temp/ccWaaqlF.s 			page 250


 14022 0681 0000 0000 		.long	.LM185
 14023 0685 16        		.byte	0x16
 14024 0686 00        		.byte	0x0
 14025 0687 05        		.uleb128 0x5
 14026 0688 02        		.byte	0x2
 14027 0689 0000 0000 		.long	.LM186
 14028 068d 04        		.byte	0x4
 14029 068e 01        		.uleb128 0x1
 14030 068f 03        		.byte	0x3
 14031 0690 8E06      		.sleb128 782
 14032 0692 01        		.byte	0x1
 14033 0693 00        		.byte	0x0
 14034 0694 05        		.uleb128 0x5
 14035 0695 02        		.byte	0x2
 14036 0696 0000 0000 		.long	.LM187
 14037 069a 18        		.byte	0x18
 14038 069b 00        		.byte	0x0
 14039 069c 05        		.uleb128 0x5
 14040 069d 02        		.byte	0x2
 14041 069e 0000 0000 		.long	.LM188
 14042 06a2 18        		.byte	0x18
 14043 06a3 00        		.byte	0x0
 14044 06a4 05        		.uleb128 0x5
 14045 06a5 02        		.byte	0x2
 14046 06a6 0000 0000 		.long	.LM189
 14047 06aa 04        		.byte	0x4
 14048 06ab 02        		.uleb128 0x2
 14049 06ac 03        		.byte	0x3
 14050 06ad EF79      		.sleb128 -785
 14051 06af 01        		.byte	0x1
 14052 06b0 00        		.byte	0x0
 14053 06b1 05        		.uleb128 0x5
 14054 06b2 02        		.byte	0x2
 14055 06b3 0000 0000 		.long	.LM190
 14056 06b7 03        		.byte	0x3
 14057 06b8 6D        		.sleb128 -19
 14058 06b9 01        		.byte	0x1
 14059 06ba 00        		.byte	0x0
 14060 06bb 05        		.uleb128 0x5
 14061 06bc 02        		.byte	0x2
 14062 06bd 0000 0000 		.long	.LM191
 14063 06c1 27        		.byte	0x27
 14064 06c2 00        		.byte	0x0
 14065 06c3 05        		.uleb128 0x5
 14066 06c4 02        		.byte	0x2
 14067 06c5 0000 0000 		.long	.LM192
 14068 06c9 04        		.byte	0x4
 14069 06ca 01        		.uleb128 0x1
 14070 06cb 03        		.byte	0x3
 14071 06cc A30A      		.sleb128 1315
 14072 06ce 01        		.byte	0x1
 14073 06cf 00        		.byte	0x0
 14074 06d0 05        		.uleb128 0x5
 14075 06d1 02        		.byte	0x2
 14076 06d2 0000 0000 		.long	.LM193
 14077 06d6 1B        		.byte	0x1b
 14078 06d7 00        		.byte	0x0
GAS LISTING C:\DOCUME~1\KEUNSO~1\LOCALS~1\Temp/ccWaaqlF.s 			page 251


 14079 06d8 05        		.uleb128 0x5
 14080 06d9 02        		.byte	0x2
 14081 06da 0000 0000 		.long	.LM194
 14082 06de 15        		.byte	0x15
 14083 06df 00        		.byte	0x0
 14084 06e0 05        		.uleb128 0x5
 14085 06e1 02        		.byte	0x2
 14086 06e2 0000 0000 		.long	.LM195
 14087 06e6 15        		.byte	0x15
 14088 06e7 00        		.byte	0x0
 14089 06e8 05        		.uleb128 0x5
 14090 06e9 02        		.byte	0x2
 14091 06ea 0000 0000 		.long	.LM196
 14092 06ee 15        		.byte	0x15
 14093 06ef 00        		.byte	0x0
 14094 06f0 05        		.uleb128 0x5
 14095 06f1 02        		.byte	0x2
 14096 06f2 0000 0000 		.long	.LM197
 14097 06f6 15        		.byte	0x15
 14098 06f7 00        		.byte	0x0
 14099 06f8 05        		.uleb128 0x5
 14100 06f9 02        		.byte	0x2
 14101 06fa 0000 0000 		.long	.LM198
 14102 06fe 15        		.byte	0x15
 14103 06ff 00        		.byte	0x0
 14104 0700 05        		.uleb128 0x5
 14105 0701 02        		.byte	0x2
 14106 0702 0000 0000 		.long	.LM199
 14107 0706 15        		.byte	0x15
 14108 0707 00        		.byte	0x0
 14109 0708 05        		.uleb128 0x5
 14110 0709 02        		.byte	0x2
 14111 070a 0000 0000 		.long	.LM200
 14112 070e 15        		.byte	0x15
 14113 070f 00        		.byte	0x0
 14114 0710 05        		.uleb128 0x5
 14115 0711 02        		.byte	0x2
 14116 0712 0000 0000 		.long	.LM201
 14117 0716 15        		.byte	0x15
 14118 0717 00        		.byte	0x0
 14119 0718 05        		.uleb128 0x5
 14120 0719 02        		.byte	0x2
 14121 071a 0000 0000 		.long	.LM202
 14122 071e 17        		.byte	0x17
 14123 071f 00        		.byte	0x0
 14124 0720 05        		.uleb128 0x5
 14125 0721 02        		.byte	0x2
 14126 0722 0000 0000 		.long	.LM203
 14127 0726 15        		.byte	0x15
 14128 0727 00        		.byte	0x0
 14129 0728 05        		.uleb128 0x5
 14130 0729 02        		.byte	0x2
 14131 072a 0000 0000 		.long	.LM204
 14132 072e 15        		.byte	0x15
 14133 072f 00        		.byte	0x0
 14134 0730 05        		.uleb128 0x5
 14135 0731 02        		.byte	0x2
GAS LISTING C:\DOCUME~1\KEUNSO~1\LOCALS~1\Temp/ccWaaqlF.s 			page 252


 14136 0732 0000 0000 		.long	.LM205
 14137 0736 15        		.byte	0x15
 14138 0737 00        		.byte	0x0
 14139 0738 05        		.uleb128 0x5
 14140 0739 02        		.byte	0x2
 14141 073a 0000 0000 		.long	.LM206
 14142 073e 15        		.byte	0x15
 14143 073f 00        		.byte	0x0
 14144 0740 05        		.uleb128 0x5
 14145 0741 02        		.byte	0x2
 14146 0742 0000 0000 		.long	.LM207
 14147 0746 21        		.byte	0x21
 14148 0747 00        		.byte	0x0
 14149 0748 05        		.uleb128 0x5
 14150 0749 02        		.byte	0x2
 14151 074a 0000 0000 		.long	.LM208
 14152 074e 15        		.byte	0x15
 14153 074f 00        		.byte	0x0
 14154 0750 05        		.uleb128 0x5
 14155 0751 02        		.byte	0x2
 14156 0752 0000 0000 		.long	.LM209
 14157 0756 15        		.byte	0x15
 14158 0757 00        		.byte	0x0
 14159 0758 05        		.uleb128 0x5
 14160 0759 02        		.byte	0x2
 14161 075a 0000 0000 		.long	.LM210
 14162 075e 15        		.byte	0x15
 14163 075f 00        		.byte	0x0
 14164 0760 05        		.uleb128 0x5
 14165 0761 02        		.byte	0x2
 14166 0762 0000 0000 		.long	.LM211
 14167 0766 17        		.byte	0x17
 14168 0767 00        		.byte	0x0
 14169 0768 05        		.uleb128 0x5
 14170 0769 02        		.byte	0x2
 14171 076a 0000 0000 		.long	.LM212
 14172 076e 20        		.byte	0x20
 14173 076f 00        		.byte	0x0
 14174 0770 05        		.uleb128 0x5
 14175 0771 02        		.byte	0x2
 14176 0772 0000 0000 		.long	.LM213
 14177 0776 15        		.byte	0x15
 14178 0777 00        		.byte	0x0
 14179 0778 05        		.uleb128 0x5
 14180 0779 02        		.byte	0x2
 14181 077a 0000 0000 		.long	.LM214
 14182 077e 15        		.byte	0x15
 14183 077f 00        		.byte	0x0
 14184 0780 05        		.uleb128 0x5
 14185 0781 02        		.byte	0x2
 14186 0782 0000 0000 		.long	.LM215
 14187 0786 15        		.byte	0x15
 14188 0787 00        		.byte	0x0
 14189 0788 05        		.uleb128 0x5
 14190 0789 02        		.byte	0x2
 14191 078a 0000 0000 		.long	.LM216
 14192 078e 15        		.byte	0x15
GAS LISTING C:\DOCUME~1\KEUNSO~1\LOCALS~1\Temp/ccWaaqlF.s 			page 253


 14193 078f 00        		.byte	0x0
 14194 0790 05        		.uleb128 0x5
 14195 0791 02        		.byte	0x2
 14196 0792 0000 0000 		.long	.LM217
 14197 0796 18        		.byte	0x18
 14198 0797 00        		.byte	0x0
 14199 0798 05        		.uleb128 0x5
 14200 0799 02        		.byte	0x2
 14201 079a 0000 0000 		.long	.LM218
 14202 079e 18        		.byte	0x18
 14203 079f 00        		.byte	0x0
 14204 07a0 05        		.uleb128 0x5
 14205 07a1 02        		.byte	0x2
 14206 07a2 0000 0000 		.long	.LM219
 14207 07a6 17        		.byte	0x17
 14208 07a7 00        		.byte	0x0
 14209 07a8 05        		.uleb128 0x5
 14210 07a9 02        		.byte	0x2
 14211 07aa 0000 0000 		.long	.LM220
 14212 07ae 16        		.byte	0x16
 14213 07af 00        		.byte	0x0
 14214 07b0 05        		.uleb128 0x5
 14215 07b1 02        		.byte	0x2
 14216 07b2 0000 0000 		.long	.LM221
 14217 07b6 15        		.byte	0x15
 14218 07b7 00        		.byte	0x0
 14219 07b8 05        		.uleb128 0x5
 14220 07b9 02        		.byte	0x2
 14221 07ba 0000 0000 		.long	.LM222
 14222 07be 15        		.byte	0x15
 14223 07bf 00        		.byte	0x0
 14224 07c0 05        		.uleb128 0x5
 14225 07c1 02        		.byte	0x2
 14226 07c2 0000 0000 		.long	.LM223
 14227 07c6 15        		.byte	0x15
 14228 07c7 00        		.byte	0x0
 14229 07c8 05        		.uleb128 0x5
 14230 07c9 02        		.byte	0x2
 14231 07ca 0000 0000 		.long	.LM224
 14232 07ce 15        		.byte	0x15
 14233 07cf 00        		.byte	0x0
 14234 07d0 05        		.uleb128 0x5
 14235 07d1 02        		.byte	0x2
 14236 07d2 0000 0000 		.long	.LM225
 14237 07d6 15        		.byte	0x15
 14238 07d7 00        		.byte	0x0
 14239 07d8 05        		.uleb128 0x5
 14240 07d9 02        		.byte	0x2
 14241 07da 0000 0000 		.long	.LM226
 14242 07de 16        		.byte	0x16
 14243 07df 00        		.byte	0x0
 14244 07e0 05        		.uleb128 0x5
 14245 07e1 02        		.byte	0x2
 14246 07e2 0000 0000 		.long	.LM227
 14247 07e6 15        		.byte	0x15
 14248 07e7 00        		.byte	0x0
 14249 07e8 05        		.uleb128 0x5
GAS LISTING C:\DOCUME~1\KEUNSO~1\LOCALS~1\Temp/ccWaaqlF.s 			page 254


 14250 07e9 02        		.byte	0x2
 14251 07ea 0000 0000 		.long	.LM228
 14252 07ee 15        		.byte	0x15
 14253 07ef 00        		.byte	0x0
 14254 07f0 05        		.uleb128 0x5
 14255 07f1 02        		.byte	0x2
 14256 07f2 0000 0000 		.long	.LM229
 14257 07f6 15        		.byte	0x15
 14258 07f7 00        		.byte	0x0
 14259 07f8 05        		.uleb128 0x5
 14260 07f9 02        		.byte	0x2
 14261 07fa 0000 0000 		.long	.LM230
 14262 07fe 19        		.byte	0x19
 14263 07ff 00        		.byte	0x0
 14264 0800 05        		.uleb128 0x5
 14265 0801 02        		.byte	0x2
 14266 0802 0000 0000 		.long	.LM231
 14267 0806 12        		.byte	0x12
 14268 0807 00        		.byte	0x0
 14269 0808 05        		.uleb128 0x5
 14270 0809 02        		.byte	0x2
 14271 080a 0000 0000 		.long	.LM232
 14272 080e 03        		.byte	0x3
 14273 080f 837E      		.sleb128 -253
 14274 0811 01        		.byte	0x1
 14275 0812 00        		.byte	0x0
 14276 0813 05        		.uleb128 0x5
 14277 0814 02        		.byte	0x2
 14278 0815 0000 0000 		.long	.LM233
 14279 0819 1C        		.byte	0x1c
 14280 081a 00        		.byte	0x0
 14281 081b 05        		.uleb128 0x5
 14282 081c 02        		.byte	0x2
 14283 081d 0000 0000 		.long	.LM234
 14284 0821 15        		.byte	0x15
 14285 0822 00        		.byte	0x0
 14286 0823 05        		.uleb128 0x5
 14287 0824 02        		.byte	0x2
 14288 0825 0000 0000 		.long	.LM235
 14289 0829 15        		.byte	0x15
 14290 082a 00        		.byte	0x0
 14291 082b 05        		.uleb128 0x5
 14292 082c 02        		.byte	0x2
 14293 082d 0000 0000 		.long	.LM236
 14294 0831 15        		.byte	0x15
 14295 0832 00        		.byte	0x0
 14296 0833 05        		.uleb128 0x5
 14297 0834 02        		.byte	0x2
 14298 0835 0000 0000 		.long	.LM237
 14299 0839 03        		.byte	0x3
 14300 083a 46        		.sleb128 -58
 14301 083b 01        		.byte	0x1
 14302 083c 00        		.byte	0x0
 14303 083d 05        		.uleb128 0x5
 14304 083e 02        		.byte	0x2
 14305 083f 0000 0000 		.long	.LM238
 14306 0843 1B        		.byte	0x1b
GAS LISTING C:\DOCUME~1\KEUNSO~1\LOCALS~1\Temp/ccWaaqlF.s 			page 255


 14307 0844 00        		.byte	0x0
 14308 0845 05        		.uleb128 0x5
 14309 0846 02        		.byte	0x2
 14310 0847 0000 0000 		.long	.LM239
 14311 084b 15        		.byte	0x15
 14312 084c 00        		.byte	0x0
 14313 084d 05        		.uleb128 0x5
 14314 084e 02        		.byte	0x2
 14315 084f 0000 0000 		.long	.LM240
 14316 0853 15        		.byte	0x15
 14317 0854 00        		.byte	0x0
 14318 0855 05        		.uleb128 0x5
 14319 0856 02        		.byte	0x2
 14320 0857 0000 0000 		.long	.LM241
 14321 085b 15        		.byte	0x15
 14322 085c 00        		.byte	0x0
 14323 085d 05        		.uleb128 0x5
 14324 085e 02        		.byte	0x2
 14325 085f 0000 0000 		.long	.LM242
 14326 0863 15        		.byte	0x15
 14327 0864 00        		.byte	0x0
 14328 0865 05        		.uleb128 0x5
 14329 0866 02        		.byte	0x2
 14330 0867 0000 0000 		.long	.LM243
 14331 086b 15        		.byte	0x15
 14332 086c 00        		.byte	0x0
 14333 086d 05        		.uleb128 0x5
 14334 086e 02        		.byte	0x2
 14335 086f 0000 0000 		.long	.LM244
 14336 0873 15        		.byte	0x15
 14337 0874 00        		.byte	0x0
 14338 0875 05        		.uleb128 0x5
 14339 0876 02        		.byte	0x2
 14340 0877 0000 0000 		.long	.LM245
 14341 087b 16        		.byte	0x16
 14342 087c 00        		.byte	0x0
 14343 087d 05        		.uleb128 0x5
 14344 087e 02        		.byte	0x2
 14345 087f 0000 0000 		.long	.LM246
 14346 0883 16        		.byte	0x16
 14347 0884 00        		.byte	0x0
 14348 0885 05        		.uleb128 0x5
 14349 0886 02        		.byte	0x2
 14350 0887 0000 0000 		.long	.LM247
 14351 088b 15        		.byte	0x15
 14352 088c 00        		.byte	0x0
 14353 088d 05        		.uleb128 0x5
 14354 088e 02        		.byte	0x2
 14355 088f 0000 0000 		.long	.LM248
 14356 0893 18        		.byte	0x18
 14357 0894 00        		.byte	0x0
 14358 0895 05        		.uleb128 0x5
 14359 0896 02        		.byte	0x2
 14360 0897 0000 0000 		.long	.LM249
 14361 089b 15        		.byte	0x15
 14362 089c 00        		.byte	0x0
 14363 089d 05        		.uleb128 0x5
GAS LISTING C:\DOCUME~1\KEUNSO~1\LOCALS~1\Temp/ccWaaqlF.s 			page 256


 14364 089e 02        		.byte	0x2
 14365 089f 0000 0000 		.long	.LM250
 14366 08a3 04        		.byte	0x4
 14367 08a4 04        		.uleb128 0x4
 14368 08a5 03        		.byte	0x3
 14369 08a6 C577      		.sleb128 -1083
 14370 08a8 01        		.byte	0x1
 14371 08a9 00        		.byte	0x0
 14372 08aa 05        		.uleb128 0x5
 14373 08ab 02        		.byte	0x2
 14374 08ac 0000 0000 		.long	.LM251
 14375 08b0 1B        		.byte	0x1b
 14376 08b1 00        		.byte	0x0
 14377 08b2 05        		.uleb128 0x5
 14378 08b3 02        		.byte	0x2
 14379 08b4 0000 0000 		.long	.LM252
 14380 08b8 17        		.byte	0x17
 14381 08b9 00        		.byte	0x0
 14382 08ba 05        		.uleb128 0x5
 14383 08bb 02        		.byte	0x2
 14384 08bc 0000 0000 		.long	.LM253
 14385 08c0 15        		.byte	0x15
 14386 08c1 00        		.byte	0x0
 14387 08c2 05        		.uleb128 0x5
 14388 08c3 02        		.byte	0x2
 14389 08c4 0000 0000 		.long	.LM254
 14390 08c8 15        		.byte	0x15
 14391 08c9 00        		.byte	0x0
 14392 08ca 05        		.uleb128 0x5
 14393 08cb 02        		.byte	0x2
 14394 08cc 0000 0000 		.long	.LM255
 14395 08d0 15        		.byte	0x15
 14396 08d1 00        		.byte	0x0
 14397 08d2 05        		.uleb128 0x5
 14398 08d3 02        		.byte	0x2
 14399 08d4 0000 0000 		.long	.LM256
 14400 08d8 20        		.byte	0x20
 14401 08d9 00        		.byte	0x0
 14402 08da 05        		.uleb128 0x5
 14403 08db 02        		.byte	0x2
 14404 08dc 0000 0000 		.long	.LM257
 14405 08e0 03        		.byte	0x3
 14406 08e1 6E        		.sleb128 -18
 14407 08e2 01        		.byte	0x1
 14408 08e3 00        		.byte	0x0
 14409 08e4 05        		.uleb128 0x5
 14410 08e5 02        		.byte	0x2
 14411 08e6 0000 0000 		.long	.LM258
 14412 08ea 2A        		.byte	0x2a
 14413 08eb 00        		.byte	0x0
 14414 08ec 05        		.uleb128 0x5
 14415 08ed 02        		.byte	0x2
 14416 08ee 0000 0000 		.long	.LM259
 14417 08f2 16        		.byte	0x16
 14418 08f3 00        		.byte	0x0
 14419 08f4 05        		.uleb128 0x5
 14420 08f5 02        		.byte	0x2
GAS LISTING C:\DOCUME~1\KEUNSO~1\LOCALS~1\Temp/ccWaaqlF.s 			page 257


 14421 08f6 0000 0000 		.long	.LM260
 14422 08fa 03        		.byte	0x3
 14423 08fb 6F        		.sleb128 -17
 14424 08fc 01        		.byte	0x1
 14425 08fd 00        		.byte	0x0
 14426 08fe 05        		.uleb128 0x5
 14427 08ff 02        		.byte	0x2
 14428 0900 0000 0000 		.long	.LM261
 14429 0904 15        		.byte	0x15
 14430 0905 00        		.byte	0x0
 14431 0906 05        		.uleb128 0x5
 14432 0907 02        		.byte	0x2
 14433 0908 0000 0000 		.long	.LM262
 14434 090c 1A        		.byte	0x1a
 14435 090d 00        		.byte	0x0
 14436 090e 05        		.uleb128 0x5
 14437 090f 02        		.byte	0x2
 14438 0910 0000 0000 		.long	.LM263
 14439 0914 0F        		.byte	0xf
 14440 0915 00        		.byte	0x0
 14441 0916 05        		.uleb128 0x5
 14442 0917 02        		.byte	0x2
 14443 0918 0000 0000 		.long	.LM264
 14444 091c 15        		.byte	0x15
 14445 091d 00        		.byte	0x0
 14446 091e 05        		.uleb128 0x5
 14447 091f 02        		.byte	0x2
 14448 0920 0000 0000 		.long	.LM265
 14449 0924 15        		.byte	0x15
 14450 0925 00        		.byte	0x0
 14451 0926 05        		.uleb128 0x5
 14452 0927 02        		.byte	0x2
 14453 0928 0000 0000 		.long	.LM266
 14454 092c 15        		.byte	0x15
 14455 092d 00        		.byte	0x0
 14456 092e 05        		.uleb128 0x5
 14457 092f 02        		.byte	0x2
 14458 0930 0000 0000 		.long	.LM267
 14459 0934 04        		.byte	0x4
 14460 0935 03        		.uleb128 0x3
 14461 0936 7E        		.byte	0x7e
 14462 0937 00        		.byte	0x0
 14463 0938 05        		.uleb128 0x5
 14464 0939 02        		.byte	0x2
 14465 093a 0000 0000 		.long	.LM268
 14466 093e 21        		.byte	0x21
 14467 093f 00        		.byte	0x0
 14468 0940 05        		.uleb128 0x5
 14469 0941 02        		.byte	0x2
 14470 0942 0000 0000 		.long	.LM269
 14471 0946 15        		.byte	0x15
 14472 0947 00        		.byte	0x0
 14473 0948 05        		.uleb128 0x5
 14474 0949 02        		.byte	0x2
 14475 094a 0000 0000 		.long	.LM270
 14476 094e 2B        		.byte	0x2b
 14477 094f 00        		.byte	0x0
GAS LISTING C:\DOCUME~1\KEUNSO~1\LOCALS~1\Temp/ccWaaqlF.s 			page 258


 14478 0950 05        		.uleb128 0x5
 14479 0951 02        		.byte	0x2
 14480 0952 0000 0000 		.long	.LM271
 14481 0956 16        		.byte	0x16
 14482 0957 00        		.byte	0x0
 14483 0958 05        		.uleb128 0x5
 14484 0959 02        		.byte	0x2
 14485 095a 0000 0000 		.long	.LM272
 14486 095e 03        		.byte	0x3
 14487 095f 68        		.sleb128 -24
 14488 0960 01        		.byte	0x1
 14489 0961 00        		.byte	0x0
 14490 0962 05        		.uleb128 0x5
 14491 0963 02        		.byte	0x2
 14492 0964 0000 0000 		.long	.LM273
 14493 0968 16        		.byte	0x16
 14494 0969 00        		.byte	0x0
 14495 096a 05        		.uleb128 0x5
 14496 096b 02        		.byte	0x2
 14497 096c 0000 0000 		.long	.LM274
 14498 0970 16        		.byte	0x16
 14499 0971 00        		.byte	0x0
 14500 0972 05        		.uleb128 0x5
 14501 0973 02        		.byte	0x2
 14502 0974 0000 0000 		.long	.LM275
 14503 0978 16        		.byte	0x16
 14504 0979 00        		.byte	0x0
 14505 097a 05        		.uleb128 0x5
 14506 097b 02        		.byte	0x2
 14507 097c 0000 0000 		.long	.LM276
 14508 0980 15        		.byte	0x15
 14509 0981 00        		.byte	0x0
 14510 0982 05        		.uleb128 0x5
 14511 0983 02        		.byte	0x2
 14512 0984 0000 0000 		.long	.LM277
 14513 0988 15        		.byte	0x15
 14514 0989 00        		.byte	0x0
 14515 098a 05        		.uleb128 0x5
 14516 098b 02        		.byte	0x2
 14517 098c 0000 0000 		.long	.LM278
 14518 0990 15        		.byte	0x15
 14519 0991 00        		.byte	0x0
 14520 0992 05        		.uleb128 0x5
 14521 0993 02        		.byte	0x2
 14522 0994 0000 0000 		.long	.LM279
 14523 0998 15        		.byte	0x15
 14524 0999 00        		.byte	0x0
 14525 099a 05        		.uleb128 0x5
 14526 099b 02        		.byte	0x2
 14527 099c 0000 0000 		.long	.LM280
 14528 09a0 15        		.byte	0x15
 14529 09a1 00        		.byte	0x0
 14530 09a2 05        		.uleb128 0x5
 14531 09a3 02        		.byte	0x2
 14532 09a4 0000 0000 		.long	.LM281
 14533 09a8 15        		.byte	0x15
 14534 09a9 00        		.byte	0x0
GAS LISTING C:\DOCUME~1\KEUNSO~1\LOCALS~1\Temp/ccWaaqlF.s 			page 259


 14535 09aa 05        		.uleb128 0x5
 14536 09ab 02        		.byte	0x2
 14537 09ac 0000 0000 		.long	.LM282
 14538 09b0 15        		.byte	0x15
 14539 09b1 00        		.byte	0x0
 14540 09b2 05        		.uleb128 0x5
 14541 09b3 02        		.byte	0x2
 14542 09b4 0000 0000 		.long	.LM283
 14543 09b8 17        		.byte	0x17
 14544 09b9 00        		.byte	0x0
 14545 09ba 05        		.uleb128 0x5
 14546 09bb 02        		.byte	0x2
 14547 09bc 0000 0000 		.long	.LM284
 14548 09c0 15        		.byte	0x15
 14549 09c1 00        		.byte	0x0
 14550 09c2 05        		.uleb128 0x5
 14551 09c3 02        		.byte	0x2
 14552 09c4 0000 0000 		.long	.LM285
 14553 09c8 15        		.byte	0x15
 14554 09c9 00        		.byte	0x0
 14555 09ca 05        		.uleb128 0x5
 14556 09cb 02        		.byte	0x2
 14557 09cc 0000 0000 		.long	.LM286
 14558 09d0 03        		.byte	0x3
 14559 09d1 EE7E      		.sleb128 -146
 14560 09d3 01        		.byte	0x1
 14561 09d4 00        		.byte	0x0
 14562 09d5 05        		.uleb128 0x5
 14563 09d6 02        		.byte	0x2
 14564 09d7 0000 0000 		.long	.LM287
 14565 09db 21        		.byte	0x21
 14566 09dc 00        		.byte	0x0
 14567 09dd 05        		.uleb128 0x5
 14568 09de 02        		.byte	0x2
 14569 09df 0000 0000 		.long	.LM288
 14570 09e3 15        		.byte	0x15
 14571 09e4 00        		.byte	0x0
 14572 09e5 05        		.uleb128 0x5
 14573 09e6 02        		.byte	0x2
 14574 09e7 0000 0000 		.long	.LM289
 14575 09eb 28        		.byte	0x28
 14576 09ec 00        		.byte	0x0
 14577 09ed 05        		.uleb128 0x5
 14578 09ee 02        		.byte	0x2
 14579 09ef 0000 0000 		.long	.LM290
 14580 09f3 16        		.byte	0x16
 14581 09f4 00        		.byte	0x0
 14582 09f5 05        		.uleb128 0x5
 14583 09f6 02        		.byte	0x2
 14584 09f7 0000 0000 		.long	.LM291
 14585 09fb 03        		.byte	0x3
 14586 09fc 6B        		.sleb128 -21
 14587 09fd 01        		.byte	0x1
 14588 09fe 00        		.byte	0x0
 14589 09ff 05        		.uleb128 0x5
 14590 0a00 02        		.byte	0x2
 14591 0a01 0000 0000 		.long	.LM292
GAS LISTING C:\DOCUME~1\KEUNSO~1\LOCALS~1\Temp/ccWaaqlF.s 			page 260


 14592 0a05 16        		.byte	0x16
 14593 0a06 00        		.byte	0x0
 14594 0a07 05        		.uleb128 0x5
 14595 0a08 02        		.byte	0x2
 14596 0a09 0000 0000 		.long	.LM293
 14597 0a0d 15        		.byte	0x15
 14598 0a0e 00        		.byte	0x0
 14599 0a0f 05        		.uleb128 0x5
 14600 0a10 02        		.byte	0x2
 14601 0a11 0000 0000 		.long	.LM294
 14602 0a15 15        		.byte	0x15
 14603 0a16 00        		.byte	0x0
 14604 0a17 05        		.uleb128 0x5
 14605 0a18 02        		.byte	0x2
 14606 0a19 0000 0000 		.long	.LM295
 14607 0a1d 15        		.byte	0x15
 14608 0a1e 00        		.byte	0x0
 14609 0a1f 05        		.uleb128 0x5
 14610 0a20 02        		.byte	0x2
 14611 0a21 0000 0000 		.long	.LM296
 14612 0a25 15        		.byte	0x15
 14613 0a26 00        		.byte	0x0
 14614 0a27 05        		.uleb128 0x5
 14615 0a28 02        		.byte	0x2
 14616 0a29 0000 0000 		.long	.LM297
 14617 0a2d 15        		.byte	0x15
 14618 0a2e 00        		.byte	0x0
 14619 0a2f 05        		.uleb128 0x5
 14620 0a30 02        		.byte	0x2
 14621 0a31 0000 0000 		.long	.LM298
 14622 0a35 15        		.byte	0x15
 14623 0a36 00        		.byte	0x0
 14624 0a37 05        		.uleb128 0x5
 14625 0a38 02        		.byte	0x2
 14626 0a39 0000 0000 		.long	.LM299
 14627 0a3d 15        		.byte	0x15
 14628 0a3e 00        		.byte	0x0
 14629 0a3f 05        		.uleb128 0x5
 14630 0a40 02        		.byte	0x2
 14631 0a41 0000 0000 		.long	.LM300
 14632 0a45 15        		.byte	0x15
 14633 0a46 00        		.byte	0x0
 14634 0a47 05        		.uleb128 0x5
 14635 0a48 02        		.byte	0x2
 14636 0a49 0000 0000 		.long	.LM301
 14637 0a4d 17        		.byte	0x17
 14638 0a4e 00        		.byte	0x0
 14639 0a4f 05        		.uleb128 0x5
 14640 0a50 02        		.byte	0x2
 14641 0a51 0000 0000 		.long	.LM302
 14642 0a55 15        		.byte	0x15
 14643 0a56 00        		.byte	0x0
 14644 0a57 05        		.uleb128 0x5
 14645 0a58 02        		.byte	0x2
 14646 0a59 0000 0000 		.long	.LM303
 14647 0a5d 15        		.byte	0x15
 14648 0a5e 00        		.byte	0x0
GAS LISTING C:\DOCUME~1\KEUNSO~1\LOCALS~1\Temp/ccWaaqlF.s 			page 261


 14649 0a5f 05        		.uleb128 0x5
 14650 0a60 02        		.byte	0x2
 14651 0a61 0000 0000 		.long	.LM304
 14652 0a65 04        		.byte	0x4
 14653 0a66 02        		.uleb128 0x2
 14654 0a67 97        		.byte	0x97
 14655 0a68 00        		.byte	0x0
 14656 0a69 05        		.uleb128 0x5
 14657 0a6a 02        		.byte	0x2
 14658 0a6b 0000 0000 		.long	.LM305
 14659 0a6f 1F        		.byte	0x1f
 14660 0a70 00        		.byte	0x0
 14661 0a71 05        		.uleb128 0x5
 14662 0a72 02        		.byte	0x2
 14663 0a73 0000 0000 		.long	.LM306
 14664 0a77 17        		.byte	0x17
 14665 0a78 00        		.byte	0x0
 14666 0a79 05        		.uleb128 0x5
 14667 0a7a 02        		.byte	0x2
 14668 0a7b 0000 0000 		.long	.LM307
 14669 0a7f 15        		.byte	0x15
 14670 0a80 00        		.byte	0x0
 14671 0a81 05        		.uleb128 0x5
 14672 0a82 02        		.byte	0x2
 14673 0a83 0000 0000 		.long	.LM308
 14674 0a87 1A        		.byte	0x1a
 14675 0a88 00        		.byte	0x0
 14676 0a89 05        		.uleb128 0x5
 14677 0a8a 02        		.byte	0x2
 14678 0a8b 0000 0000 		.long	.LM309
 14679 0a8f 15        		.byte	0x15
 14680 0a90 00        		.byte	0x0
 14681 0a91 05        		.uleb128 0x5
 14682 0a92 02        		.byte	0x2
 14683 0a93 0000 0000 		.long	.LM310
 14684 0a97 15        		.byte	0x15
 14685 0a98 00        		.byte	0x0
 14686 0a99 05        		.uleb128 0x5
 14687 0a9a 02        		.byte	0x2
 14688 0a9b 0000 0000 		.long	.LM311
 14689 0a9f 17        		.byte	0x17
 14690 0aa0 00        		.byte	0x0
 14691 0aa1 05        		.uleb128 0x5
 14692 0aa2 02        		.byte	0x2
 14693 0aa3 0000 0000 		.long	.LM312
 14694 0aa7 16        		.byte	0x16
 14695 0aa8 00        		.byte	0x0
 14696 0aa9 05        		.uleb128 0x5
 14697 0aaa 02        		.byte	0x2
 14698 0aab 0000 0000 		.long	.LM313
 14699 0aaf 03        		.byte	0x3
 14700 0ab0 74        		.sleb128 -12
 14701 0ab1 01        		.byte	0x1
 14702 0ab2 00        		.byte	0x0
 14703 0ab3 05        		.uleb128 0x5
 14704 0ab4 02        		.byte	0x2
 14705 0ab5 0000 0000 		.long	.LM314
GAS LISTING C:\DOCUME~1\KEUNSO~1\LOCALS~1\Temp/ccWaaqlF.s 			page 262


 14706 0ab9 15        		.byte	0x15
 14707 0aba 00        		.byte	0x0
 14708 0abb 05        		.uleb128 0x5
 14709 0abc 02        		.byte	0x2
 14710 0abd 0000 0000 		.long	.LM315
 14711 0ac1 15        		.byte	0x15
 14712 0ac2 00        		.byte	0x0
 14713 0ac3 05        		.uleb128 0x5
 14714 0ac4 02        		.byte	0x2
 14715 0ac5 0000 0000 		.long	.LM316
 14716 0ac9 03        		.byte	0x3
 14717 0aca AE7F      		.sleb128 -82
 14718 0acc 01        		.byte	0x1
 14719 0acd 00        		.byte	0x0
 14720 0ace 05        		.uleb128 0x5
 14721 0acf 02        		.byte	0x2
 14722 0ad0 0000 0000 		.long	.LM317
 14723 0ad4 1A        		.byte	0x1a
 14724 0ad5 00        		.byte	0x0
 14725 0ad6 05        		.uleb128 0x5
 14726 0ad7 02        		.byte	0x2
 14727 0ad8 0000 0000 		.long	.LM318
 14728 0adc 1E        		.byte	0x1e
 14729 0add 00        		.byte	0x0
 14730 0ade 05        		.uleb128 0x5
 14731 0adf 02        		.byte	0x2
 14732 0ae0 0000 0000 		.long	.LM319
 14733 0ae4 15        		.byte	0x15
 14734 0ae5 00        		.byte	0x0
 14735 0ae6 05        		.uleb128 0x5
 14736 0ae7 02        		.byte	0x2
 14737 0ae8 0000 0000 		.long	.LM320
 14738 0aec 2E        		.byte	0x2e
 14739 0aed 00        		.byte	0x0
 14740 0aee 05        		.uleb128 0x5
 14741 0aef 02        		.byte	0x2
 14742 0af0 0000 0000 		.long	.LM321
 14743 0af4 03        		.byte	0x3
 14744 0af5 5C        		.sleb128 -36
 14745 0af6 01        		.byte	0x1
 14746 0af7 00        		.byte	0x0
 14747 0af8 05        		.uleb128 0x5
 14748 0af9 02        		.byte	0x2
 14749 0afa 0000 0000 		.long	.LM322
 14750 0afe 38        		.byte	0x38
 14751 0aff 00        		.byte	0x0
 14752 0b00 05        		.uleb128 0x5
 14753 0b01 02        		.byte	0x2
 14754 0b02 0000 0000 		.long	.LM323
 14755 0b06 03        		.byte	0x3
 14756 0b07 69        		.sleb128 -23
 14757 0b08 01        		.byte	0x1
 14758 0b09 00        		.byte	0x0
 14759 0b0a 05        		.uleb128 0x5
 14760 0b0b 02        		.byte	0x2
 14761 0b0c 0000 0000 		.long	.LM324
 14762 0b10 15        		.byte	0x15
GAS LISTING C:\DOCUME~1\KEUNSO~1\LOCALS~1\Temp/ccWaaqlF.s 			page 263


 14763 0b11 00        		.byte	0x0
 14764 0b12 05        		.uleb128 0x5
 14765 0b13 02        		.byte	0x2
 14766 0b14 0000 0000 		.long	.LM325
 14767 0b18 15        		.byte	0x15
 14768 0b19 00        		.byte	0x0
 14769 0b1a 05        		.uleb128 0x5
 14770 0b1b 02        		.byte	0x2
 14771 0b1c 0000 0000 		.long	.LM326
 14772 0b20 15        		.byte	0x15
 14773 0b21 00        		.byte	0x0
 14774 0b22 05        		.uleb128 0x5
 14775 0b23 02        		.byte	0x2
 14776 0b24 0000 0000 		.long	.LM327
 14777 0b28 15        		.byte	0x15
 14778 0b29 00        		.byte	0x0
 14779 0b2a 05        		.uleb128 0x5
 14780 0b2b 02        		.byte	0x2
 14781 0b2c 0000 0000 		.long	.LM328
 14782 0b30 27        		.byte	0x27
 14783 0b31 00        		.byte	0x0
 14784 0b32 05        		.uleb128 0x5
 14785 0b33 02        		.byte	0x2
 14786 0b34 0000 0000 		.long	.LM329
 14787 0b38 03        		.byte	0x3
 14788 0b39 71        		.sleb128 -15
 14789 0b3a 01        		.byte	0x1
 14790 0b3b 00        		.byte	0x0
 14791 0b3c 05        		.uleb128 0x5
 14792 0b3d 02        		.byte	0x2
 14793 0b3e 0000 0000 		.long	.LM330
 14794 0b42 15        		.byte	0x15
 14795 0b43 00        		.byte	0x0
 14796 0b44 05        		.uleb128 0x5
 14797 0b45 02        		.byte	0x2
 14798 0b46 0000 0000 		.long	.LM331
 14799 0b4a 15        		.byte	0x15
 14800 0b4b 00        		.byte	0x0
 14801 0b4c 05        		.uleb128 0x5
 14802 0b4d 02        		.byte	0x2
 14803 0b4e 0000 0000 		.long	.LM332
 14804 0b52 15        		.byte	0x15
 14805 0b53 00        		.byte	0x0
 14806 0b54 05        		.uleb128 0x5
 14807 0b55 02        		.byte	0x2
 14808 0b56 0000 0000 		.long	.LM333
 14809 0b5a 15        		.byte	0x15
 14810 0b5b 00        		.byte	0x0
 14811 0b5c 05        		.uleb128 0x5
 14812 0b5d 02        		.byte	0x2
 14813 0b5e 0000 0000 		.long	.LM334
 14814 0b62 15        		.byte	0x15
 14815 0b63 00        		.byte	0x0
 14816 0b64 05        		.uleb128 0x5
 14817 0b65 02        		.byte	0x2
 14818 0b66 0000 0000 		.long	.LM335
 14819 0b6a 15        		.byte	0x15
GAS LISTING C:\DOCUME~1\KEUNSO~1\LOCALS~1\Temp/ccWaaqlF.s 			page 264


 14820 0b6b 00        		.byte	0x0
 14821 0b6c 05        		.uleb128 0x5
 14822 0b6d 02        		.byte	0x2
 14823 0b6e 0000 0000 		.long	.LM336
 14824 0b72 1A        		.byte	0x1a
 14825 0b73 00        		.byte	0x0
 14826 0b74 05        		.uleb128 0x5
 14827 0b75 02        		.byte	0x2
 14828 0b76 0000 0000 		.long	.LM337
 14829 0b7a 15        		.byte	0x15
 14830 0b7b 00        		.byte	0x0
 14831 0b7c 05        		.uleb128 0x5
 14832 0b7d 02        		.byte	0x2
 14833 0b7e 0000 0000 		.long	.LM338
 14834 0b82 15        		.byte	0x15
 14835 0b83 00        		.byte	0x0
 14836 0b84 05        		.uleb128 0x5
 14837 0b85 02        		.byte	0x2
 14838 0b86 0000 0000 		.long	.LM339
 14839 0b8a 0D        		.byte	0xd
 14840 0b8b 00        		.byte	0x0
 14841 0b8c 05        		.uleb128 0x5
 14842 0b8d 02        		.byte	0x2
 14843 0b8e 0000 0000 		.long	.LM340
 14844 0b92 15        		.byte	0x15
 14845 0b93 00        		.byte	0x0
 14846 0b94 05        		.uleb128 0x5
 14847 0b95 02        		.byte	0x2
 14848 0b96 0000 0000 		.long	.LM341
 14849 0b9a 15        		.byte	0x15
 14850 0b9b 00        		.byte	0x0
 14851 0b9c 05        		.uleb128 0x5
 14852 0b9d 02        		.byte	0x2
 14853 0b9e 0000 0000 		.long	.LM342
 14854 0ba2 04        		.byte	0x4
 14855 0ba3 01        		.uleb128 0x1
 14856 0ba4 03        		.byte	0x3
 14857 0ba5 E302      		.sleb128 355
 14858 0ba7 01        		.byte	0x1
 14859 0ba8 00        		.byte	0x0
 14860 0ba9 05        		.uleb128 0x5
 14861 0baa 02        		.byte	0x2
 14862 0bab 0000 0000 		.long	.LM343
 14863 0baf 1D        		.byte	0x1d
 14864 0bb0 00        		.byte	0x0
 14865 0bb1 05        		.uleb128 0x5
 14866 0bb2 02        		.byte	0x2
 14867 0bb3 0000 0000 		.long	.LM344
 14868 0bb7 17        		.byte	0x17
 14869 0bb8 00        		.byte	0x0
 14870 0bb9 05        		.uleb128 0x5
 14871 0bba 02        		.byte	0x2
 14872 0bbb 0000 0000 		.long	.LM345
 14873 0bbf 15        		.byte	0x15
 14874 0bc0 00        		.byte	0x0
 14875 0bc1 05        		.uleb128 0x5
 14876 0bc2 02        		.byte	0x2
GAS LISTING C:\DOCUME~1\KEUNSO~1\LOCALS~1\Temp/ccWaaqlF.s 			page 265


 14877 0bc3 0000 0000 		.long	.LM346
 14878 0bc7 15        		.byte	0x15
 14879 0bc8 00        		.byte	0x0
 14880 0bc9 05        		.uleb128 0x5
 14881 0bca 02        		.byte	0x2
 14882 0bcb 0000 0000 		.long	.LM347
 14883 0bcf 16        		.byte	0x16
 14884 0bd0 00        		.byte	0x0
 14885 0bd1 05        		.uleb128 0x5
 14886 0bd2 02        		.byte	0x2
 14887 0bd3 0000 0000 		.long	.LM348
 14888 0bd7 2D        		.byte	0x2d
 14889 0bd8 00        		.byte	0x0
 14890 0bd9 05        		.uleb128 0x5
 14891 0bda 02        		.byte	0x2
 14892 0bdb 0000 0000 		.long	.LM349
 14893 0bdf 15        		.byte	0x15
 14894 0be0 00        		.byte	0x0
 14895 0be1 05        		.uleb128 0x5
 14896 0be2 02        		.byte	0x2
 14897 0be3 0000 0000 		.long	.LM350
 14898 0be7 1C        		.byte	0x1c
 14899 0be8 00        		.byte	0x0
 14900 0be9 05        		.uleb128 0x5
 14901 0bea 02        		.byte	0x2
 14902 0beb 0000 0000 		.long	.LM351
 14903 0bef 11        		.byte	0x11
 14904 0bf0 00        		.byte	0x0
 14905 0bf1 05        		.uleb128 0x5
 14906 0bf2 02        		.byte	0x2
 14907 0bf3 0000 0000 		.long	.LM352
 14908 0bf7 15        		.byte	0x15
 14909 0bf8 00        		.byte	0x0
 14910 0bf9 05        		.uleb128 0x5
 14911 0bfa 02        		.byte	0x2
 14912 0bfb 0000 0000 		.long	.LM353
 14913 0bff 1A        		.byte	0x1a
 14914 0c00 00        		.byte	0x0
 14915 0c01 05        		.uleb128 0x5
 14916 0c02 02        		.byte	0x2
 14917 0c03 0000 0000 		.long	.LM354
 14918 0c07 15        		.byte	0x15
 14919 0c08 00        		.byte	0x0
 14920 0c09 05        		.uleb128 0x5
 14921 0c0a 02        		.byte	0x2
 14922 0c0b 0000 0000 		.long	.LM355
 14923 0c0f 03        		.byte	0x3
 14924 0c10 73        		.sleb128 -13
 14925 0c11 01        		.byte	0x1
 14926 0c12 00        		.byte	0x0
 14927 0c13 05        		.uleb128 0x5
 14928 0c14 02        		.byte	0x2
 14929 0c15 0000 0000 		.long	.LM356
 14930 0c19 15        		.byte	0x15
 14931 0c1a 00        		.byte	0x0
 14932 0c1b 05        		.uleb128 0x5
 14933 0c1c 02        		.byte	0x2
GAS LISTING C:\DOCUME~1\KEUNSO~1\LOCALS~1\Temp/ccWaaqlF.s 			page 266


 14934 0c1d 0000 0000 		.long	.LM357
 14935 0c21 15        		.byte	0x15
 14936 0c22 00        		.byte	0x0
 14937 0c23 05        		.uleb128 0x5
 14938 0c24 02        		.byte	0x2
 14939 0c25 0000 0000 		.long	.LM358
 14940 0c29 15        		.byte	0x15
 14941 0c2a 00        		.byte	0x0
 14942 0c2b 05        		.uleb128 0x5
 14943 0c2c 02        		.byte	0x2
 14944 0c2d 0000 0000 		.long	.LM359
 14945 0c31 15        		.byte	0x15
 14946 0c32 00        		.byte	0x0
 14947 0c33 05        		.uleb128 0x5
 14948 0c34 02        		.byte	0x2
 14949 0c35 0000 0000 		.long	.LM360
 14950 0c39 18        		.byte	0x18
 14951 0c3a 00        		.byte	0x0
 14952 0c3b 05        		.uleb128 0x5
 14953 0c3c 02        		.byte	0x2
 14954 0c3d 0000 0000 		.long	.LM361
 14955 0c41 0C        		.byte	0xc
 14956 0c42 00        		.byte	0x0
 14957 0c43 05        		.uleb128 0x5
 14958 0c44 02        		.byte	0x2
 14959 0c45 0000 0000 		.long	.LM362
 14960 0c49 03        		.byte	0x3
 14961 0c4a 8F7F      		.sleb128 -113
 14962 0c4c 01        		.byte	0x1
 14963 0c4d 00        		.byte	0x0
 14964 0c4e 05        		.uleb128 0x5
 14965 0c4f 02        		.byte	0x2
 14966 0c50 0000 0000 		.long	.LM363
 14967 0c54 19        		.byte	0x19
 14968 0c55 00        		.byte	0x0
 14969 0c56 05        		.uleb128 0x5
 14970 0c57 02        		.byte	0x2
 14971 0c58 0000 0000 		.long	.LM364
 14972 0c5c 15        		.byte	0x15
 14973 0c5d 00        		.byte	0x0
 14974 0c5e 05        		.uleb128 0x5
 14975 0c5f 02        		.byte	0x2
 14976 0c60 0000 0000 		.long	.LM365
 14977 0c64 16        		.byte	0x16
 14978 0c65 00        		.byte	0x0
 14979 0c66 05        		.uleb128 0x5
 14980 0c67 02        		.byte	0x2
 14981 0c68 0000 0000 		.long	.LM366
 14982 0c6c 15        		.byte	0x15
 14983 0c6d 00        		.byte	0x0
 14984 0c6e 05        		.uleb128 0x5
 14985 0c6f 02        		.byte	0x2
 14986 0c70 0000 0000 		.long	.LM367
 14987 0c74 15        		.byte	0x15
 14988 0c75 00        		.byte	0x0
 14989 0c76 05        		.uleb128 0x5
 14990 0c77 02        		.byte	0x2
GAS LISTING C:\DOCUME~1\KEUNSO~1\LOCALS~1\Temp/ccWaaqlF.s 			page 267


 14991 0c78 0000 0000 		.long	.LM368
 14992 0c7c 15        		.byte	0x15
 14993 0c7d 00        		.byte	0x0
 14994 0c7e 05        		.uleb128 0x5
 14995 0c7f 02        		.byte	0x2
 14996 0c80 0000 0000 		.long	.LM369
 14997 0c84 15        		.byte	0x15
 14998 0c85 00        		.byte	0x0
 14999 0c86 05        		.uleb128 0x5
 15000 0c87 02        		.byte	0x2
 15001 0c88 0000 0000 		.long	.LM370
 15002 0c8c 03        		.byte	0x3
 15003 0c8d F27E      		.sleb128 -142
 15004 0c8f 01        		.byte	0x1
 15005 0c90 00        		.byte	0x0
 15006 0c91 05        		.uleb128 0x5
 15007 0c92 02        		.byte	0x2
 15008 0c93 0000 0000 		.long	.LM371
 15009 0c97 1A        		.byte	0x1a
 15010 0c98 00        		.byte	0x0
 15011 0c99 05        		.uleb128 0x5
 15012 0c9a 02        		.byte	0x2
 15013 0c9b 0000 0000 		.long	.LM372
 15014 0c9f 15        		.byte	0x15
 15015 0ca0 00        		.byte	0x0
 15016 0ca1 05        		.uleb128 0x5
 15017 0ca2 02        		.byte	0x2
 15018 0ca3 0000 0000 		.long	.LM373
 15019 0ca7 15        		.byte	0x15
 15020 0ca8 00        		.byte	0x0
 15021 0ca9 05        		.uleb128 0x5
 15022 0caa 02        		.byte	0x2
 15023 0cab 0000 0000 		.long	.LM374
 15024 0caf 15        		.byte	0x15
 15025 0cb0 00        		.byte	0x0
 15026 0cb1 05        		.uleb128 0x5
 15027 0cb2 02        		.byte	0x2
 15028 0cb3 0000 0000 		.long	.LM375
 15029 0cb7 16        		.byte	0x16
 15030 0cb8 00        		.byte	0x0
 15031 0cb9 05        		.uleb128 0x5
 15032 0cba 02        		.byte	0x2
 15033 0cbb 0000 0000 		.long	.LM376
 15034 0cbf 22        		.byte	0x22
 15035 0cc0 00        		.byte	0x0
 15036 0cc1 05        		.uleb128 0x5
 15037 0cc2 02        		.byte	0x2
 15038 0cc3 0000 0000 		.long	.LM377
 15039 0cc7 03        		.byte	0x3
 15040 0cc8 73        		.sleb128 -13
 15041 0cc9 01        		.byte	0x1
 15042 0cca 00        		.byte	0x0
 15043 0ccb 05        		.uleb128 0x5
 15044 0ccc 02        		.byte	0x2
 15045 0ccd 0000 0000 		.long	.LM378
 15046 0cd1 15        		.byte	0x15
 15047 0cd2 00        		.byte	0x0
GAS LISTING C:\DOCUME~1\KEUNSO~1\LOCALS~1\Temp/ccWaaqlF.s 			page 268


 15048 0cd3 05        		.uleb128 0x5
 15049 0cd4 02        		.byte	0x2
 15050 0cd5 0000 0000 		.long	.LM379
 15051 0cd9 15        		.byte	0x15
 15052 0cda 00        		.byte	0x0
 15053 0cdb 05        		.uleb128 0x5
 15054 0cdc 02        		.byte	0x2
 15055 0cdd 0000 0000 		.long	.LM380
 15056 0ce1 15        		.byte	0x15
 15057 0ce2 00        		.byte	0x0
 15058 0ce3 05        		.uleb128 0x5
 15059 0ce4 02        		.byte	0x2
 15060 0ce5 0000 0000 		.long	.LM381
 15061 0ce9 15        		.byte	0x15
 15062 0cea 00        		.byte	0x0
 15063 0ceb 05        		.uleb128 0x5
 15064 0cec 02        		.byte	0x2
 15065 0ced 0000 0000 		.long	.LM382
 15066 0cf1 16        		.byte	0x16
 15067 0cf2 00        		.byte	0x0
 15068 0cf3 05        		.uleb128 0x5
 15069 0cf4 02        		.byte	0x2
 15070 0cf5 0000 0000 		.long	.LM383
 15071 0cf9 16        		.byte	0x16
 15072 0cfa 00        		.byte	0x0
 15073 0cfb 05        		.uleb128 0x5
 15074 0cfc 02        		.byte	0x2
 15075 0cfd 0000 0000 		.long	.LM384
 15076 0d01 15        		.byte	0x15
 15077 0d02 00        		.byte	0x0
 15078 0d03 05        		.uleb128 0x5
 15079 0d04 02        		.byte	0x2
 15080 0d05 0000 0000 		.long	.LM385
 15081 0d09 03        		.byte	0x3
 15082 0d0a F306      		.sleb128 883
 15083 0d0c 01        		.byte	0x1
 15084 0d0d 00        		.byte	0x0
 15085 0d0e 05        		.uleb128 0x5
 15086 0d0f 02        		.byte	0x2
 15087 0d10 0000 0000 		.long	.LM386
 15088 0d14 01        		.byte	0x1
 15089 0d15 00        		.byte	0x0
 15090 0d16 05        		.uleb128 0x5
 15091 0d17 02        		.byte	0x2
 15092 0d18 0000 0000 		.long	.LM387
 15093 0d1c 04        		.byte	0x4
 15094 0d1d 03        		.uleb128 0x3
 15095 0d1e 03        		.byte	0x3
 15096 0d1f B67B      		.sleb128 -586
 15097 0d21 01        		.byte	0x1
 15098 0d22 00        		.byte	0x0
 15099 0d23 05        		.uleb128 0x5
 15100 0d24 02        		.byte	0x2
 15101 0d25 0000 0000 		.long	.LM388
 15102 0d29 18        		.byte	0x18
 15103 0d2a 00        		.byte	0x0
 15104 0d2b 05        		.uleb128 0x5
GAS LISTING C:\DOCUME~1\KEUNSO~1\LOCALS~1\Temp/ccWaaqlF.s 			page 269


 15105 0d2c 02        		.byte	0x2
 15106 0d2d 0000 0000 		.long	.LM389
 15107 0d31 15        		.byte	0x15
 15108 0d32 00        		.byte	0x0
 15109 0d33 05        		.uleb128 0x5
 15110 0d34 02        		.byte	0x2
 15111 0d35 0000 0000 		.long	.LM390
 15112 0d39 04        		.byte	0x4
 15113 0d3a 01        		.uleb128 0x1
 15114 0d3b 03        		.byte	0x3
 15115 0d3c DB04      		.sleb128 603
 15116 0d3e 01        		.byte	0x1
 15117 0d3f 00        		.byte	0x0
 15118 0d40 05        		.uleb128 0x5
 15119 0d41 02        		.byte	0x2
 15120 0d42 0000 0000 		.long	.LM391
 15121 0d46 03        		.byte	0x3
 15122 0d47 72        		.sleb128 -14
 15123 0d48 01        		.byte	0x1
 15124 0d49 00        		.byte	0x0
 15125 0d4a 05        		.uleb128 0x5
 15126 0d4b 02        		.byte	0x2
 15127 0d4c 0000 0000 		.long	.LM392
 15128 0d50 04        		.byte	0x4
 15129 0d51 03        		.uleb128 0x3
 15130 0d52 03        		.byte	0x3
 15131 0d53 A57B      		.sleb128 -603
 15132 0d55 01        		.byte	0x1
 15133 0d56 00        		.byte	0x0
 15134 0d57 05        		.uleb128 0x5
 15135 0d58 02        		.byte	0x2
 15136 0d59 0000 0000 		.long	.LM393
 15137 0d5d 18        		.byte	0x18
 15138 0d5e 00        		.byte	0x0
 15139 0d5f 05        		.uleb128 0x5
 15140 0d60 02        		.byte	0x2
 15141 0d61 0000 0000 		.long	.LM394
 15142 0d65 15        		.byte	0x15
 15143 0d66 00        		.byte	0x0
 15144 0d67 05        		.uleb128 0x5
 15145 0d68 02        		.byte	0x2
 15146 0d69 0000 0000 		.long	.LM395
 15147 0d6d 15        		.byte	0x15
 15148 0d6e 00        		.byte	0x0
 15149 0d6f 05        		.uleb128 0x5
 15150 0d70 02        		.byte	0x2
 15151 0d71 0000 0000 		.long	.LM396
 15152 0d75 04        		.byte	0x4
 15153 0d76 01        		.uleb128 0x1
 15154 0d77 03        		.byte	0x3
 15155 0d78 E304      		.sleb128 611
 15156 0d7a 01        		.byte	0x1
 15157 0d7b 00        		.byte	0x0
 15158 0d7c 05        		.uleb128 0x5
 15159 0d7d 02        		.byte	0x2
 15160 0d7e 0000 0000 		.long	.LM397
 15161 0d82 03        		.byte	0x3
GAS LISTING C:\DOCUME~1\KEUNSO~1\LOCALS~1\Temp/ccWaaqlF.s 			page 270


 15162 0d83 72        		.sleb128 -14
 15163 0d84 01        		.byte	0x1
 15164 0d85 00        		.byte	0x0
 15165 0d86 05        		.uleb128 0x5
 15166 0d87 02        		.byte	0x2
 15167 0d88 0000 0000 		.long	.LM398
 15168 0d8c 26        		.byte	0x26
 15169 0d8d 00        		.byte	0x0
 15170 0d8e 05        		.uleb128 0x5
 15171 0d8f 02        		.byte	0x2
 15172 0d90 0000 0000 		.long	.LM399
 15173 0d94 04        		.byte	0x4
 15174 0d95 03        		.uleb128 0x3
 15175 0d96 03        		.byte	0x3
 15176 0d97 9D7B      		.sleb128 -611
 15177 0d99 01        		.byte	0x1
 15178 0d9a 00        		.byte	0x0
 15179 0d9b 05        		.uleb128 0x5
 15180 0d9c 02        		.byte	0x2
 15181 0d9d 0000 0000 		.long	.LM400
 15182 0da1 1C        		.byte	0x1c
 15183 0da2 00        		.byte	0x0
 15184 0da3 05        		.uleb128 0x5
 15185 0da4 02        		.byte	0x2
 15186 0da5 0000 0000 		.long	.LM401
 15187 0da9 15        		.byte	0x15
 15188 0daa 00        		.byte	0x0
 15189 0dab 05        		.uleb128 0x5
 15190 0dac 02        		.byte	0x2
 15191 0dad 0000 0000 		.long	.LM402
 15192 0db1 15        		.byte	0x15
 15193 0db2 00        		.byte	0x0
 15194 0db3 05        		.uleb128 0x5
 15195 0db4 02        		.byte	0x2
 15196 0db5 0000 0000 		.long	.LM403
 15197 0db9 16        		.byte	0x16
 15198 0dba 00        		.byte	0x0
 15199 0dbb 05        		.uleb128 0x5
 15200 0dbc 02        		.byte	0x2
 15201 0dbd 0000 0000 		.long	.LM404
 15202 0dc1 15        		.byte	0x15
 15203 0dc2 00        		.byte	0x0
 15204 0dc3 05        		.uleb128 0x5
 15205 0dc4 02        		.byte	0x2
 15206 0dc5 0000 0000 		.long	.LM405
 15207 0dc9 13        		.byte	0x13
 15208 0dca 00        		.byte	0x0
 15209 0dcb 05        		.uleb128 0x5
 15210 0dcc 02        		.byte	0x2
 15211 0dcd 0000 0000 		.long	.LM406
 15212 0dd1 04        		.byte	0x4
 15213 0dd2 01        		.uleb128 0x1
 15214 0dd3 03        		.byte	0x3
 15215 0dd4 CF04      		.sleb128 591
 15216 0dd6 01        		.byte	0x1
 15217 0dd7 00        		.byte	0x0
 15218 0dd8 05        		.uleb128 0x5
GAS LISTING C:\DOCUME~1\KEUNSO~1\LOCALS~1\Temp/ccWaaqlF.s 			page 271


 15219 0dd9 02        		.byte	0x2
 15220 0dda 0000 0000 		.long	.LM407
 15221 0dde 18        		.byte	0x18
 15222 0ddf 00        		.byte	0x0
 15223 0de0 05        		.uleb128 0x5
 15224 0de1 02        		.byte	0x2
 15225 0de2 0000 0000 		.long	.LM408
 15226 0de6 04        		.byte	0x4
 15227 0de7 03        		.uleb128 0x3
 15228 0de8 03        		.byte	0x3
 15229 0de9 AD7B      		.sleb128 -595
 15230 0deb 01        		.byte	0x1
 15231 0dec 00        		.byte	0x0
 15232 0ded 05        		.uleb128 0x5
 15233 0dee 02        		.byte	0x2
 15234 0def 0000 0000 		.long	.LM409
 15235 0df3 04        		.byte	0x4
 15236 0df4 02        		.uleb128 0x2
 15237 0df5 03        		.byte	0x3
 15238 0df6 8D7B      		.sleb128 -627
 15239 0df8 01        		.byte	0x1
 15240 0df9 00        		.byte	0x0
 15241 0dfa 05        		.uleb128 0x5
 15242 0dfb 02        		.byte	0x2
 15243 0dfc 0000 0000 		.long	.LM410
 15244 0e00 1B        		.byte	0x1b
 15245 0e01 00        		.byte	0x0
 15246 0e02 05        		.uleb128 0x5
 15247 0e03 02        		.byte	0x2
 15248 0e04 0000 0000 		.long	.LM411
 15249 0e08 1E        		.byte	0x1e
 15250 0e09 00        		.byte	0x0
 15251 0e0a 05        		.uleb128 0x5
 15252 0e0b 02        		.byte	0x2
 15253 0e0c 0000 0000 		.long	.LM412
 15254 0e10 15        		.byte	0x15
 15255 0e11 00        		.byte	0x0
 15256 0e12 05        		.uleb128 0x5
 15257 0e13 02        		.byte	0x2
 15258 0e14 0000 0000 		.long	.LM413
 15259 0e18 48        		.byte	0x48
 15260 0e19 00        		.byte	0x0
 15261 0e1a 05        		.uleb128 0x5
 15262 0e1b 02        		.byte	0x2
 15263 0e1c 0000 0000 		.long	.LM414
 15264 0e20 03        		.byte	0x3
 15265 0e21 42        		.sleb128 -62
 15266 0e22 01        		.byte	0x1
 15267 0e23 00        		.byte	0x0
 15268 0e24 05        		.uleb128 0x5
 15269 0e25 02        		.byte	0x2
 15270 0e26 0000 0000 		.long	.LM415
 15271 0e2a 21        		.byte	0x21
 15272 0e2b 00        		.byte	0x0
 15273 0e2c 05        		.uleb128 0x5
 15274 0e2d 02        		.byte	0x2
 15275 0e2e 0000 0000 		.long	.LM416
GAS LISTING C:\DOCUME~1\KEUNSO~1\LOCALS~1\Temp/ccWaaqlF.s 			page 272


 15276 0e32 15        		.byte	0x15
 15277 0e33 00        		.byte	0x0
 15278 0e34 05        		.uleb128 0x5
 15279 0e35 02        		.byte	0x2
 15280 0e36 0000 0000 		.long	.LM417
 15281 0e3a 19        		.byte	0x19
 15282 0e3b 00        		.byte	0x0
 15283 0e3c 05        		.uleb128 0x5
 15284 0e3d 02        		.byte	0x2
 15285 0e3e 0000 0000 		.long	.LM418
 15286 0e42 16        		.byte	0x16
 15287 0e43 00        		.byte	0x0
 15288 0e44 05        		.uleb128 0x5
 15289 0e45 02        		.byte	0x2
 15290 0e46 0000 0000 		.long	.LM419
 15291 0e4a 20        		.byte	0x20
 15292 0e4b 00        		.byte	0x0
 15293 0e4c 05        		.uleb128 0x5
 15294 0e4d 02        		.byte	0x2
 15295 0e4e 0000 0000 		.long	.LM420
 15296 0e52 15        		.byte	0x15
 15297 0e53 00        		.byte	0x0
 15298 0e54 05        		.uleb128 0x5
 15299 0e55 02        		.byte	0x2
 15300 0e56 0000 0000 		.long	.LM421
 15301 0e5a 03        		.byte	0x3
 15302 0e5b 71        		.sleb128 -15
 15303 0e5c 01        		.byte	0x1
 15304 0e5d 00        		.byte	0x0
 15305 0e5e 05        		.uleb128 0x5
 15306 0e5f 02        		.byte	0x2
 15307 0e60 0000 0000 		.long	.LM422
 15308 0e64 3B        		.byte	0x3b
 15309 0e65 00        		.byte	0x0
 15310 0e66 05        		.uleb128 0x5
 15311 0e67 02        		.byte	0x2
 15312 0e68 0000 0000 		.long	.LM423
 15313 0e6c 15        		.byte	0x15
 15314 0e6d 00        		.byte	0x0
 15315 0e6e 05        		.uleb128 0x5
 15316 0e6f 02        		.byte	0x2
 15317 0e70 0000 0000 		.long	.LM424
 15318 0e74 03        		.byte	0x3
 15319 0e75 58        		.sleb128 -40
 15320 0e76 01        		.byte	0x1
 15321 0e77 00        		.byte	0x0
 15322 0e78 05        		.uleb128 0x5
 15323 0e79 02        		.byte	0x2
 15324 0e7a 0000 0000 		.long	.LM425
 15325 0e7e 28        		.byte	0x28
 15326 0e7f 00        		.byte	0x0
 15327 0e80 05        		.uleb128 0x5
 15328 0e81 02        		.byte	0x2
 15329 0e82 0000 0000 		.long	.LM426
 15330 0e86 04        		.byte	0x4
 15331 0e87 01        		.uleb128 0x1
 15332 0e88 03        		.byte	0x3
GAS LISTING C:\DOCUME~1\KEUNSO~1\LOCALS~1\Temp/ccWaaqlF.s 			page 273


 15333 0e89 C604      		.sleb128 582
 15334 0e8b 01        		.byte	0x1
 15335 0e8c 00        		.byte	0x0
 15336 0e8d 05        		.uleb128 0x5
 15337 0e8e 02        		.byte	0x2
 15338 0e8f 0000 0000 		.long	.LM427
 15339 0e93 15        		.byte	0x15
 15340 0e94 00        		.byte	0x0
 15341 0e95 05        		.uleb128 0x5
 15342 0e96 02        		.byte	0x2
 15343 0e97 0000 0000 		.long	.LM428
 15344 0e9b 15        		.byte	0x15
 15345 0e9c 00        		.byte	0x0
 15346 0e9d 05        		.uleb128 0x5
 15347 0e9e 02        		.byte	0x2
 15348 0e9f 0000 0000 		.long	.LM429
 15349 0ea3 15        		.byte	0x15
 15350 0ea4 00        		.byte	0x0
 15351 0ea5 05        		.uleb128 0x5
 15352 0ea6 02        		.byte	0x2
 15353 0ea7 0000 0000 		.long	.LM430
 15354 0eab 16        		.byte	0x16
 15355 0eac 00        		.byte	0x0
 15356 0ead 05        		.uleb128 0x5
 15357 0eae 02        		.byte	0x2
 15358 0eaf 0000 0000 		.long	.LM431
 15359 0eb3 15        		.byte	0x15
 15360 0eb4 00        		.byte	0x0
 15361 0eb5 05        		.uleb128 0x5
 15362 0eb6 02        		.byte	0x2
 15363 0eb7 0000 0000 		.long	.LM432
 15364 0ebb 15        		.byte	0x15
 15365 0ebc 00        		.byte	0x0
 15366 0ebd 05        		.uleb128 0x5
 15367 0ebe 02        		.byte	0x2
 15368 0ebf 0000 0000 		.long	.LM433
 15369 0ec3 16        		.byte	0x16
 15370 0ec4 00        		.byte	0x0
 15371 0ec5 05        		.uleb128 0x5
 15372 0ec6 02        		.byte	0x2
 15373 0ec7 0000 0000 		.long	.LM434
 15374 0ecb 15        		.byte	0x15
 15375 0ecc 00        		.byte	0x0
 15376 0ecd 05        		.uleb128 0x5
 15377 0ece 02        		.byte	0x2
 15378 0ecf 0000 0000 		.long	.LM435
 15379 0ed3 15        		.byte	0x15
 15380 0ed4 00        		.byte	0x0
 15381 0ed5 05        		.uleb128 0x5
 15382 0ed6 02        		.byte	0x2
 15383 0ed7 0000 0000 		.long	.LM436
 15384 0edb 1A        		.byte	0x1a
 15385 0edc 00        		.byte	0x0
 15386 0edd 05        		.uleb128 0x5
 15387 0ede 02        		.byte	0x2
 15388 0edf 0000 0000 		.long	.LM437
 15389 0ee3 15        		.byte	0x15
GAS LISTING C:\DOCUME~1\KEUNSO~1\LOCALS~1\Temp/ccWaaqlF.s 			page 274


 15390 0ee4 00        		.byte	0x0
 15391 0ee5 05        		.uleb128 0x5
 15392 0ee6 02        		.byte	0x2
 15393 0ee7 0000 0000 		.long	.LM438
 15394 0eeb 15        		.byte	0x15
 15395 0eec 00        		.byte	0x0
 15396 0eed 05        		.uleb128 0x5
 15397 0eee 02        		.byte	0x2
 15398 0eef 0000 0000 		.long	.LM439
 15399 0ef3 15        		.byte	0x15
 15400 0ef4 00        		.byte	0x0
 15401 0ef5 05        		.uleb128 0x5
 15402 0ef6 02        		.byte	0x2
 15403 0ef7 0000 0000 		.long	.LM440
 15404 0efb 04        		.byte	0x4
 15405 0efc 02        		.uleb128 0x2
 15406 0efd 03        		.byte	0x3
 15407 0efe A67B      		.sleb128 -602
 15408 0f00 01        		.byte	0x1
 15409 0f01 00        		.byte	0x0
 15410 0f02 05        		.uleb128 0x5
 15411 0f03 02        		.byte	0x2
 15412 0f04 0000 0000 		.long	.LM441
 15413 0f08 18        		.byte	0x18
 15414 0f09 00        		.byte	0x0
 15415 0f0a 05        		.uleb128 0x5
 15416 0f0b 02        		.byte	0x2
 15417 0f0c 0000 0000 		.long	.LM442
 15418 0f10 04        		.byte	0x4
 15419 0f11 01        		.uleb128 0x1
 15420 0f12 03        		.byte	0x3
 15421 0f13 AC05      		.sleb128 684
 15422 0f15 01        		.byte	0x1
 15423 0f16 00        		.byte	0x0
 15424 0f17 05        		.uleb128 0x5
 15425 0f18 02        		.byte	0x2
 15426 0f19 0000 0000 		.long	.LM443
 15427 0f1d 18        		.byte	0x18
 15428 0f1e 00        		.byte	0x0
 15429 0f1f 05        		.uleb128 0x5
 15430 0f20 02        		.byte	0x2
 15431 0f21 0000 0000 		.long	.LM444
 15432 0f25 18        		.byte	0x18
 15433 0f26 00        		.byte	0x0
 15434 0f27 05        		.uleb128 0x5
 15435 0f28 02        		.byte	0x2
 15436 0f29 0000 0000 		.long	.LM445
 15437 0f2d 04        		.byte	0x4
 15438 0f2e 02        		.uleb128 0x2
 15439 0f2f 03        		.byte	0x3
 15440 0f30 CF7A      		.sleb128 -689
 15441 0f32 01        		.byte	0x1
 15442 0f33 00        		.byte	0x0
 15443 0f34 05        		.uleb128 0x5
 15444 0f35 02        		.byte	0x2
 15445 0f36 0000 0000 		.long	.LM446
 15446 0f3a 15        		.byte	0x15
GAS LISTING C:\DOCUME~1\KEUNSO~1\LOCALS~1\Temp/ccWaaqlF.s 			page 275


 15447 0f3b 00        		.byte	0x0
 15448 0f3c 05        		.uleb128 0x5
 15449 0f3d 02        		.byte	0x2
 15450 0f3e 0000 0000 		.long	.LM447
 15451 0f42 15        		.byte	0x15
 15452 0f43 00        		.byte	0x0
 15453 0f44 05        		.uleb128 0x5
 15454 0f45 02        		.byte	0x2
 15455 0f46 0000 0000 		.long	.LM448
 15456 0f4a 15        		.byte	0x15
 15457 0f4b 00        		.byte	0x0
 15458 0f4c 05        		.uleb128 0x5
 15459 0f4d 02        		.byte	0x2
 15460 0f4e 0000 0000 		.long	.LM449
 15461 0f52 15        		.byte	0x15
 15462 0f53 00        		.byte	0x0
 15463 0f54 05        		.uleb128 0x5
 15464 0f55 02        		.byte	0x2
 15465 0f56 0000 0000 		.long	.LM450
 15466 0f5a 15        		.byte	0x15
 15467 0f5b 00        		.byte	0x0
 15468 0f5c 05        		.uleb128 0x5
 15469 0f5d 02        		.byte	0x2
 15470 0f5e 0000 0000 		.long	.LM451
 15471 0f62 17        		.byte	0x17
 15472 0f63 00        		.byte	0x0
 15473 0f64 05        		.uleb128 0x5
 15474 0f65 02        		.byte	0x2
 15475 0f66 0000 0000 		.long	.LM452
 15476 0f6a 12        		.byte	0x12
 15477 0f6b 00        		.byte	0x0
 15478 0f6c 05        		.uleb128 0x5
 15479 0f6d 02        		.byte	0x2
 15480 0f6e 0000 0000 		.long	.LM453
 15481 0f72 03        		.byte	0x3
 15482 0f73 63        		.sleb128 -29
 15483 0f74 01        		.byte	0x1
 15484 0f75 00        		.byte	0x0
 15485 0f76 05        		.uleb128 0x5
 15486 0f77 02        		.byte	0x2
 15487 0f78 0000 0000 		.long	.LM454
 15488 0f7c 16        		.byte	0x16
 15489 0f7d 00        		.byte	0x0
 15490 0f7e 05        		.uleb128 0x5
 15491 0f7f 02        		.byte	0x2
 15492 0f80 0000 0000 		.long	.LM455
 15493 0f84 15        		.byte	0x15
 15494 0f85 00        		.byte	0x0
 15495 0f86 05        		.uleb128 0x5
 15496 0f87 02        		.byte	0x2
 15497 0f88 0000 0000 		.long	.LM456
 15498 0f8c 15        		.byte	0x15
 15499 0f8d 00        		.byte	0x0
 15500 0f8e 05        		.uleb128 0x5
 15501 0f8f 02        		.byte	0x2
 15502 0f90 0000 0000 		.long	.LM457
 15503 0f94 15        		.byte	0x15
GAS LISTING C:\DOCUME~1\KEUNSO~1\LOCALS~1\Temp/ccWaaqlF.s 			page 276


 15504 0f95 00        		.byte	0x0
 15505 0f96 05        		.uleb128 0x5
 15506 0f97 02        		.byte	0x2
 15507 0f98 0000 0000 		.long	.LM458
 15508 0f9c 15        		.byte	0x15
 15509 0f9d 00        		.byte	0x0
 15510 0f9e 05        		.uleb128 0x5
 15511 0f9f 02        		.byte	0x2
 15512 0fa0 0000 0000 		.long	.LM459
 15513 0fa4 15        		.byte	0x15
 15514 0fa5 00        		.byte	0x0
 15515 0fa6 05        		.uleb128 0x5
 15516 0fa7 02        		.byte	0x2
 15517 0fa8 0000 0000 		.long	.LM460
 15518 0fac 04        		.byte	0x4
 15519 0fad 01        		.uleb128 0x1
 15520 0fae BD        		.byte	0xbd
 15521 0faf 00        		.byte	0x0
 15522 0fb0 05        		.uleb128 0x5
 15523 0fb1 02        		.byte	0x2
 15524 0fb2 0000 0000 		.long	.LM461
 15525 0fb6 16        		.byte	0x16
 15526 0fb7 00        		.byte	0x0
 15527 0fb8 05        		.uleb128 0x5
 15528 0fb9 02        		.byte	0x2
 15529 0fba 0000 0000 		.long	.LM462
 15530 0fbe 03        		.byte	0x3
 15531 0fbf F604      		.sleb128 630
 15532 0fc1 01        		.byte	0x1
 15533 0fc2 00        		.byte	0x0
 15534 0fc3 05        		.uleb128 0x5
 15535 0fc4 02        		.byte	0x2
 15536 0fc5 0000 0000 		.long	.LM463
 15537 0fc9 17        		.byte	0x17
 15538 0fca 00        		.byte	0x0
 15539 0fcb 05        		.uleb128 0x5
 15540 0fcc 02        		.byte	0x2
 15541 0fcd 0000 0000 		.long	.LM464
 15542 0fd1 15        		.byte	0x15
 15543 0fd2 00        		.byte	0x0
 15544 0fd3 05        		.uleb128 0x5
 15545 0fd4 02        		.byte	0x2
 15546 0fd5 0000 0000 		.long	.LM465
 15547 0fd9 16        		.byte	0x16
 15548 0fda 00        		.byte	0x0
 15549 0fdb 05        		.uleb128 0x5
 15550 0fdc 02        		.byte	0x2
 15551 0fdd 0000 0000 		.long	.LM466
 15552 0fe1 16        		.byte	0x16
 15553 0fe2 00        		.byte	0x0
 15554 0fe3 05        		.uleb128 0x5
 15555 0fe4 02        		.byte	0x2
 15556 0fe5 0000 0000 		.long	.LM467
 15557 0fe9 16        		.byte	0x16
 15558 0fea 00        		.byte	0x0
 15559 0feb 05        		.uleb128 0x5
 15560 0fec 02        		.byte	0x2
GAS LISTING C:\DOCUME~1\KEUNSO~1\LOCALS~1\Temp/ccWaaqlF.s 			page 277


 15561 0fed 0000 0000 		.long	.LM468
 15562 0ff1 15        		.byte	0x15
 15563 0ff2 00        		.byte	0x0
 15564 0ff3 05        		.uleb128 0x5
 15565 0ff4 02        		.byte	0x2
 15566 0ff5 0000 0000 		.long	.LM469
 15567 0ff9 17        		.byte	0x17
 15568 0ffa 00        		.byte	0x0
 15569 0ffb 05        		.uleb128 0x5
 15570 0ffc 02        		.byte	0x2
 15571 0ffd 0000 0000 		.long	.LM470
 15572 1001 15        		.byte	0x15
 15573 1002 00        		.byte	0x0
 15574 1003 05        		.uleb128 0x5
 15575 1004 02        		.byte	0x2
 15576 1005 0000 0000 		.long	.LM471
 15577 1009 15        		.byte	0x15
 15578 100a 00        		.byte	0x0
 15579 100b 05        		.uleb128 0x5
 15580 100c 02        		.byte	0x2
 15581 100d 0000 0000 		.long	.LM472
 15582 1011 2B        		.byte	0x2b
 15583 1012 00        		.byte	0x0
 15584 1013 05        		.uleb128 0x5
 15585 1014 02        		.byte	0x2
 15586 1015 0000 0000 		.long	.LM473
 15587 1019 17        		.byte	0x17
 15588 101a 00        		.byte	0x0
 15589 101b 05        		.uleb128 0x5
 15590 101c 02        		.byte	0x2
 15591 101d 0000 0000 		.long	.LM474
 15592 1021 17        		.byte	0x17
 15593 1022 00        		.byte	0x0
 15594 1023 05        		.uleb128 0x5
 15595 1024 02        		.byte	0x2
 15596 1025 0000 0000 		.long	.LM475
 15597 1029 15        		.byte	0x15
 15598 102a 00        		.byte	0x0
 15599 102b 05        		.uleb128 0x5
 15600 102c 02        		.byte	0x2
 15601 102d 0000 0000 		.long	.LM476
 15602 1031 16        		.byte	0x16
 15603 1032 00        		.byte	0x0
 15604 1033 05        		.uleb128 0x5
 15605 1034 02        		.byte	0x2
 15606 1035 0000 0000 		.long	.LM477
 15607 1039 15        		.byte	0x15
 15608 103a 00        		.byte	0x0
 15609 103b 05        		.uleb128 0x5
 15610 103c 02        		.byte	0x2
 15611 103d 0000 0000 		.long	.LM478
 15612 1041 96        		.byte	0x96
 15613 1042 00        		.byte	0x0
 15614 1043 05        		.uleb128 0x5
 15615 1044 02        		.byte	0x2
 15616 1045 0000 0000 		.long	.LM479
 15617 1049 15        		.byte	0x15
GAS LISTING C:\DOCUME~1\KEUNSO~1\LOCALS~1\Temp/ccWaaqlF.s 			page 278


 15618 104a 00        		.byte	0x0
 15619 104b 05        		.uleb128 0x5
 15620 104c 02        		.byte	0x2
 15621 104d 0000 0000 		.long	.LM480
 15622 1051 18        		.byte	0x18
 15623 1052 00        		.byte	0x0
 15624 1053 05        		.uleb128 0x5
 15625 1054 02        		.byte	0x2
 15626 1055 0000 0000 		.long	.LM481
 15627 1059 16        		.byte	0x16
 15628 105a 00        		.byte	0x0
 15629 105b 05        		.uleb128 0x5
 15630 105c 02        		.byte	0x2
 15631 105d 0000 0000 		.long	.LM482
 15632 1061 12        		.byte	0x12
 15633 1062 00        		.byte	0x0
 15634 1063 05        		.uleb128 0x5
 15635 1064 02        		.byte	0x2
 15636 1065 0000 0000 		.long	.LM483
 15637 1069 16        		.byte	0x16
 15638 106a 00        		.byte	0x0
 15639 106b 05        		.uleb128 0x5
 15640 106c 02        		.byte	0x2
 15641 106d 0000 0000 		.long	.LM484
 15642 1071 12        		.byte	0x12
 15643 1072 00        		.byte	0x0
 15644 1073 05        		.uleb128 0x5
 15645 1074 02        		.byte	0x2
 15646 1075 0000 0000 		.long	.LM485
 15647 1079 16        		.byte	0x16
 15648 107a 00        		.byte	0x0
 15649 107b 05        		.uleb128 0x5
 15650 107c 02        		.byte	0x2
 15651 107d 0000 0000 		.long	.LM486
 15652 1081 12        		.byte	0x12
 15653 1082 00        		.byte	0x0
 15654 1083 05        		.uleb128 0x5
 15655 1084 02        		.byte	0x2
 15656 1085 0000 0000 		.long	.LM487
 15657 1089 16        		.byte	0x16
 15658 108a 00        		.byte	0x0
 15659 108b 05        		.uleb128 0x5
 15660 108c 02        		.byte	0x2
 15661 108d 0000 0000 		.long	.LM488
 15662 1091 12        		.byte	0x12
 15663 1092 00        		.byte	0x0
 15664 1093 05        		.uleb128 0x5
 15665 1094 02        		.byte	0x2
 15666 1095 0000 0000 		.long	.LM489
 15667 1099 16        		.byte	0x16
 15668 109a 00        		.byte	0x0
 15669 109b 05        		.uleb128 0x5
 15670 109c 02        		.byte	0x2
 15671 109d 0000 0000 		.long	.LM490
 15672 10a1 12        		.byte	0x12
 15673 10a2 00        		.byte	0x0
 15674 10a3 05        		.uleb128 0x5
GAS LISTING C:\DOCUME~1\KEUNSO~1\LOCALS~1\Temp/ccWaaqlF.s 			page 279


 15675 10a4 02        		.byte	0x2
 15676 10a5 0000 0000 		.long	.LM491
 15677 10a9 16        		.byte	0x16
 15678 10aa 00        		.byte	0x0
 15679 10ab 05        		.uleb128 0x5
 15680 10ac 02        		.byte	0x2
 15681 10ad 0000 0000 		.long	.LM492
 15682 10b1 12        		.byte	0x12
 15683 10b2 00        		.byte	0x0
 15684 10b3 05        		.uleb128 0x5
 15685 10b4 02        		.byte	0x2
 15686 10b5 0000 0000 		.long	.LM493
 15687 10b9 16        		.byte	0x16
 15688 10ba 00        		.byte	0x0
 15689 10bb 05        		.uleb128 0x5
 15690 10bc 02        		.byte	0x2
 15691 10bd 0000 0000 		.long	.LM494
 15692 10c1 12        		.byte	0x12
 15693 10c2 00        		.byte	0x0
 15694 10c3 05        		.uleb128 0x5
 15695 10c4 02        		.byte	0x2
 15696 10c5 0000 0000 		.long	.LM495
 15697 10c9 16        		.byte	0x16
 15698 10ca 00        		.byte	0x0
 15699 10cb 05        		.uleb128 0x5
 15700 10cc 02        		.byte	0x2
 15701 10cd 0000 0000 		.long	.LM496
 15702 10d1 12        		.byte	0x12
 15703 10d2 00        		.byte	0x0
 15704 10d3 05        		.uleb128 0x5
 15705 10d4 02        		.byte	0x2
 15706 10d5 0000 0000 		.long	.LM497
 15707 10d9 16        		.byte	0x16
 15708 10da 00        		.byte	0x0
 15709 10db 05        		.uleb128 0x5
 15710 10dc 02        		.byte	0x2
 15711 10dd 0000 0000 		.long	.LM498
 15712 10e1 12        		.byte	0x12
 15713 10e2 00        		.byte	0x0
 15714 10e3 05        		.uleb128 0x5
 15715 10e4 02        		.byte	0x2
 15716 10e5 0000 0000 		.long	.LM499
 15717 10e9 16        		.byte	0x16
 15718 10ea 00        		.byte	0x0
 15719 10eb 05        		.uleb128 0x5
 15720 10ec 02        		.byte	0x2
 15721 10ed 0000 0000 		.long	.LM500
 15722 10f1 12        		.byte	0x12
 15723 10f2 00        		.byte	0x0
 15724 10f3 05        		.uleb128 0x5
 15725 10f4 02        		.byte	0x2
 15726 10f5 0000 0000 		.long	.LM501
 15727 10f9 16        		.byte	0x16
 15728 10fa 00        		.byte	0x0
 15729 10fb 05        		.uleb128 0x5
 15730 10fc 02        		.byte	0x2
 15731 10fd 0000 0000 		.long	.LM502
GAS LISTING C:\DOCUME~1\KEUNSO~1\LOCALS~1\Temp/ccWaaqlF.s 			page 280


 15732 1101 12        		.byte	0x12
 15733 1102 00        		.byte	0x0
 15734 1103 05        		.uleb128 0x5
 15735 1104 02        		.byte	0x2
 15736 1105 0000 0000 		.long	.LM503
 15737 1109 16        		.byte	0x16
 15738 110a 00        		.byte	0x0
 15739 110b 05        		.uleb128 0x5
 15740 110c 02        		.byte	0x2
 15741 110d 0000 0000 		.long	.LM504
 15742 1111 19        		.byte	0x19
 15743 1112 00        		.byte	0x0
 15744 1113 05        		.uleb128 0x5
 15745 1114 02        		.byte	0x2
 15746 1115 0000 0000 		.long	.LM505
 15747 1119 16        		.byte	0x16
 15748 111a 00        		.byte	0x0
 15749 111b 05        		.uleb128 0x5
 15750 111c 02        		.byte	0x2
 15751 111d 0000 0000 		.long	.LM506
 15752 1121 16        		.byte	0x16
 15753 1122 00        		.byte	0x0
 15754 1123 05        		.uleb128 0x5
 15755 1124 02        		.byte	0x2
 15756 1125 0000 0000 		.long	.LM507
 15757 1129 15        		.byte	0x15
 15758 112a 00        		.byte	0x0
 15759 112b 05        		.uleb128 0x5
 15760 112c 02        		.byte	0x2
 15761 112d 0000 0000 		.long	.LM508
 15762 1131 03        		.byte	0x3
 15763 1132 8F7E      		.sleb128 -241
 15764 1134 01        		.byte	0x1
 15765 1135 00        		.byte	0x0
 15766 1136 05        		.uleb128 0x5
 15767 1137 02        		.byte	0x2
 15768 1138 0000 0000 		.long	.LM509
 15769 113c 18        		.byte	0x18
 15770 113d 00        		.byte	0x0
 15771 113e 05        		.uleb128 0x5
 15772 113f 02        		.byte	0x2
 15773 1140 0000 0000 		.long	.LM510
 15774 1144 15        		.byte	0x15
 15775 1145 00        		.byte	0x0
 15776 1146 05        		.uleb128 0x5
 15777 1147 02        		.byte	0x2
 15778 1148 0000 0000 		.long	.LM511
 15779 114c 16        		.byte	0x16
 15780 114d 00        		.byte	0x0
 15781 114e 05        		.uleb128 0x5
 15782 114f 02        		.byte	0x2
 15783 1150 0000 0000 		.long	.LM512
 15784 1154 11        		.byte	0x11
 15785 1155 00        		.byte	0x0
 15786 1156 05        		.uleb128 0x5
 15787 1157 02        		.byte	0x2
 15788 1158 0000 0000 		.long	.LM513
GAS LISTING C:\DOCUME~1\KEUNSO~1\LOCALS~1\Temp/ccWaaqlF.s 			page 281


 15789 115c 15        		.byte	0x15
 15790 115d 00        		.byte	0x0
 15791 115e 05        		.uleb128 0x5
 15792 115f 02        		.byte	0x2
 15793 1160 0000 0000 		.long	.LM514
 15794 1164 16        		.byte	0x16
 15795 1165 00        		.byte	0x0
 15796 1166 05        		.uleb128 0x5
 15797 1167 02        		.byte	0x2
 15798 1168 0000 0000 		.long	.LM515
 15799 116c 19        		.byte	0x19
 15800 116d 00        		.byte	0x0
 15801 116e 05        		.uleb128 0x5
 15802 116f 02        		.byte	0x2
 15803 1170 0000 0000 		.long	.LM516
 15804 1174 15        		.byte	0x15
 15805 1175 00        		.byte	0x0
 15806 1176 05        		.uleb128 0x5
 15807 1177 02        		.byte	0x2
 15808 1178 0000 0000 		.long	.LM517
 15809 117c 16        		.byte	0x16
 15810 117d 00        		.byte	0x0
 15811 117e 05        		.uleb128 0x5
 15812 117f 02        		.byte	0x2
 15813 1180 0000 0000 		.long	.LM518
 15814 1184 16        		.byte	0x16
 15815 1185 00        		.byte	0x0
 15816 1186 05        		.uleb128 0x5
 15817 1187 02        		.byte	0x2
 15818 1188 0000 0000 		.long	.LM519
 15819 118c 04        		.byte	0x4
 15820 118d 03        		.uleb128 0x3
 15821 118e 03        		.byte	0x3
 15822 118f DB7A      		.sleb128 -677
 15823 1191 01        		.byte	0x1
 15824 1192 00        		.byte	0x0
 15825 1193 05        		.uleb128 0x5
 15826 1194 02        		.byte	0x2
 15827 1195 0000 0000 		.long	.LM520
 15828 1199 15        		.byte	0x15
 15829 119a 00        		.byte	0x0
 15830 119b 05        		.uleb128 0x5
 15831 119c 02        		.byte	0x2
 15832 119d 0000 0000 		.long	.LM521
 15833 11a1 2B        		.byte	0x2b
 15834 11a2 00        		.byte	0x0
 15835 11a3 05        		.uleb128 0x5
 15836 11a4 02        		.byte	0x2
 15837 11a5 0000 0000 		.long	.LM522
 15838 11a9 03        		.byte	0x3
 15839 11aa 68        		.sleb128 -24
 15840 11ab 01        		.byte	0x1
 15841 11ac 00        		.byte	0x0
 15842 11ad 05        		.uleb128 0x5
 15843 11ae 02        		.byte	0x2
 15844 11af 0000 0000 		.long	.LM523
 15845 11b3 15        		.byte	0x15
GAS LISTING C:\DOCUME~1\KEUNSO~1\LOCALS~1\Temp/ccWaaqlF.s 			page 282


 15846 11b4 00        		.byte	0x0
 15847 11b5 05        		.uleb128 0x5
 15848 11b6 02        		.byte	0x2
 15849 11b7 0000 0000 		.long	.LM524
 15850 11bb 2B        		.byte	0x2b
 15851 11bc 00        		.byte	0x0
 15852 11bd 05        		.uleb128 0x5
 15853 11be 02        		.byte	0x2
 15854 11bf 0000 0000 		.long	.LM525
 15855 11c3 04        		.byte	0x4
 15856 11c4 01        		.uleb128 0x1
 15857 11c5 64        		.byte	0x64
 15858 11c6 00        		.byte	0x0
 15859 11c7 05        		.uleb128 0x5
 15860 11c8 02        		.byte	0x2
 15861 11c9 0000 0000 		.long	.LM526
 15862 11cd 16        		.byte	0x16
 15863 11ce 00        		.byte	0x0
 15864 11cf 05        		.uleb128 0x5
 15865 11d0 02        		.byte	0x2
 15866 11d1 0000 0000 		.long	.LM527
 15867 11d5 04        		.byte	0x4
 15868 11d6 03        		.uleb128 0x3
 15869 11d7 03        		.byte	0x3
 15870 11d8 987F      		.sleb128 -104
 15871 11da 01        		.byte	0x1
 15872 11db 00        		.byte	0x0
 15873 11dc 05        		.uleb128 0x5
 15874 11dd 02        		.byte	0x2
 15875 11de 0000 0000 		.long	.LM528
 15876 11e2 16        		.byte	0x16
 15877 11e3 00        		.byte	0x0
 15878 11e4 05        		.uleb128 0x5
 15879 11e5 02        		.byte	0x2
 15880 11e6 0000 0000 		.long	.LM529
 15881 11ea 16        		.byte	0x16
 15882 11eb 00        		.byte	0x0
 15883 11ec 05        		.uleb128 0x5
 15884 11ed 02        		.byte	0x2
 15885 11ee 0000 0000 		.long	.LM530
 15886 11f2 16        		.byte	0x16
 15887 11f3 00        		.byte	0x0
 15888 11f4 05        		.uleb128 0x5
 15889 11f5 02        		.byte	0x2
 15890 11f6 0000 0000 		.long	.LM531
 15891 11fa 15        		.byte	0x15
 15892 11fb 00        		.byte	0x0
 15893 11fc 05        		.uleb128 0x5
 15894 11fd 02        		.byte	0x2
 15895 11fe 0000 0000 		.long	.LM532
 15896 1202 15        		.byte	0x15
 15897 1203 00        		.byte	0x0
 15898 1204 05        		.uleb128 0x5
 15899 1205 02        		.byte	0x2
 15900 1206 0000 0000 		.long	.LM533
 15901 120a 15        		.byte	0x15
 15902 120b 00        		.byte	0x0
GAS LISTING C:\DOCUME~1\KEUNSO~1\LOCALS~1\Temp/ccWaaqlF.s 			page 283


 15903 120c 05        		.uleb128 0x5
 15904 120d 02        		.byte	0x2
 15905 120e 0000 0000 		.long	.LM534
 15906 1212 15        		.byte	0x15
 15907 1213 00        		.byte	0x0
 15908 1214 05        		.uleb128 0x5
 15909 1215 02        		.byte	0x2
 15910 1216 0000 0000 		.long	.LM535
 15911 121a 15        		.byte	0x15
 15912 121b 00        		.byte	0x0
 15913 121c 05        		.uleb128 0x5
 15914 121d 02        		.byte	0x2
 15915 121e 0000 0000 		.long	.LM536
 15916 1222 15        		.byte	0x15
 15917 1223 00        		.byte	0x0
 15918 1224 05        		.uleb128 0x5
 15919 1225 02        		.byte	0x2
 15920 1226 0000 0000 		.long	.LM537
 15921 122a 15        		.byte	0x15
 15922 122b 00        		.byte	0x0
 15923 122c 05        		.uleb128 0x5
 15924 122d 02        		.byte	0x2
 15925 122e 0000 0000 		.long	.LM538
 15926 1232 03        		.byte	0x3
 15927 1233 73        		.sleb128 -13
 15928 1234 01        		.byte	0x1
 15929 1235 00        		.byte	0x0
 15930 1236 05        		.uleb128 0x5
 15931 1237 02        		.byte	0x2
 15932 1238 0000 0000 		.long	.LM539
 15933 123c 16        		.byte	0x16
 15934 123d 00        		.byte	0x0
 15935 123e 05        		.uleb128 0x5
 15936 123f 02        		.byte	0x2
 15937 1240 0000 0000 		.long	.LM540
 15938 1244 16        		.byte	0x16
 15939 1245 00        		.byte	0x0
 15940 1246 05        		.uleb128 0x5
 15941 1247 02        		.byte	0x2
 15942 1248 0000 0000 		.long	.LM541
 15943 124c 16        		.byte	0x16
 15944 124d 00        		.byte	0x0
 15945 124e 05        		.uleb128 0x5
 15946 124f 02        		.byte	0x2
 15947 1250 0000 0000 		.long	.LM542
 15948 1254 15        		.byte	0x15
 15949 1255 00        		.byte	0x0
 15950 1256 05        		.uleb128 0x5
 15951 1257 02        		.byte	0x2
 15952 1258 0000 0000 		.long	.LM543
 15953 125c 15        		.byte	0x15
 15954 125d 00        		.byte	0x0
 15955 125e 05        		.uleb128 0x5
 15956 125f 02        		.byte	0x2
 15957 1260 0000 0000 		.long	.LM544
 15958 1264 15        		.byte	0x15
 15959 1265 00        		.byte	0x0
GAS LISTING C:\DOCUME~1\KEUNSO~1\LOCALS~1\Temp/ccWaaqlF.s 			page 284


 15960 1266 05        		.uleb128 0x5
 15961 1267 02        		.byte	0x2
 15962 1268 0000 0000 		.long	.LM545
 15963 126c 15        		.byte	0x15
 15964 126d 00        		.byte	0x0
 15965 126e 05        		.uleb128 0x5
 15966 126f 02        		.byte	0x2
 15967 1270 0000 0000 		.long	.LM546
 15968 1274 15        		.byte	0x15
 15969 1275 00        		.byte	0x0
 15970 1276 05        		.uleb128 0x5
 15971 1277 02        		.byte	0x2
 15972 1278 0000 0000 		.long	.LM547
 15973 127c 15        		.byte	0x15
 15974 127d 00        		.byte	0x0
 15975 127e 05        		.uleb128 0x5
 15976 127f 02        		.byte	0x2
 15977 1280 0000 0000 		.long	.LM548
 15978 1284 15        		.byte	0x15
 15979 1285 00        		.byte	0x0
 15980 1286 05        		.uleb128 0x5
 15981 1287 02        		.byte	0x2
 15982 1288 0000 0000 		.long	.LM549
 15983 128c 17        		.byte	0x17
 15984 128d 00        		.byte	0x0
 15985 128e 05        		.uleb128 0x5
 15986 128f 02        		.byte	0x2
 15987 1290 0000 0000 		.long	.LM550
 15988 1294 15        		.byte	0x15
 15989 1295 00        		.byte	0x0
 15990 1296 05        		.uleb128 0x5
 15991 1297 02        		.byte	0x2
 15992 1298 0000 0000 		.long	.LM551
 15993 129c 15        		.byte	0x15
 15994 129d 00        		.byte	0x0
 15995 129e 05        		.uleb128 0x5
 15996 129f 02        		.byte	0x2
 15997 12a0 0000 0000 		.long	.LM552
 15998 12a4 12        		.byte	0x12
 15999 12a5 00        		.byte	0x0
 16000 12a6 05        		.uleb128 0x5
 16001 12a7 02        		.byte	0x2
 16002 12a8 0000 0000 		.long	.LM553
 16003 12ac 15        		.byte	0x15
 16004 12ad 00        		.byte	0x0
 16005 12ae 05        		.uleb128 0x5
 16006 12af 02        		.byte	0x2
 16007 12b0 0000 0000 		.long	.LM554
 16008 12b4 15        		.byte	0x15
 16009 12b5 00        		.byte	0x0
 16010 12b6 05        		.uleb128 0x5
 16011 12b7 02        		.byte	0x2
 16012 12b8 0000 0000 		.long	.LM555
 16013 12bc 04        		.byte	0x4
 16014 12bd 01        		.uleb128 0x1
 16015 12be 03        		.byte	0x3
 16016 12bf E007      		.sleb128 992
GAS LISTING C:\DOCUME~1\KEUNSO~1\LOCALS~1\Temp/ccWaaqlF.s 			page 285


 16017 12c1 01        		.byte	0x1
 16018 12c2 00        		.byte	0x0
 16019 12c3 05        		.uleb128 0x5
 16020 12c4 02        		.byte	0x2
 16021 12c5 0000 0000 		.long	.LM556
 16022 12c9 1E        		.byte	0x1e
 16023 12ca 00        		.byte	0x0
 16024 12cb 05        		.uleb128 0x5
 16025 12cc 02        		.byte	0x2
 16026 12cd 0000 0000 		.long	.LM557
 16027 12d1 04        		.byte	0x4
 16028 12d2 04        		.uleb128 0x4
 16029 12d3 03        		.byte	0x3
 16030 12d4 9676      		.sleb128 -1258
 16031 12d6 01        		.byte	0x1
 16032 12d7 00        		.byte	0x0
 16033 12d8 05        		.uleb128 0x5
 16034 12d9 02        		.byte	0x2
 16035 12da 0000 0000 		.long	.LM558
 16036 12de 0E        		.byte	0xe
 16037 12df 00        		.byte	0x0
 16038 12e0 05        		.uleb128 0x5
 16039 12e1 02        		.byte	0x2
 16040 12e2 0000 0000 		.long	.LM559
 16041 12e6 15        		.byte	0x15
 16042 12e7 00        		.byte	0x0
 16043 12e8 05        		.uleb128 0x5
 16044 12e9 02        		.byte	0x2
 16045 12ea 0000 0000 		.long	.LM560
 16046 12ee 15        		.byte	0x15
 16047 12ef 00        		.byte	0x0
 16048 12f0 05        		.uleb128 0x5
 16049 12f1 02        		.byte	0x2
 16050 12f2 0000 0000 		.long	.LM561
 16051 12f6 15        		.byte	0x15
 16052 12f7 00        		.byte	0x0
 16053 12f8 05        		.uleb128 0x5
 16054 12f9 02        		.byte	0x2
 16055 12fa 0000 0000 		.long	.LM562
 16056 12fe 15        		.byte	0x15
 16057 12ff 00        		.byte	0x0
 16058 1300 05        		.uleb128 0x5
 16059 1301 02        		.byte	0x2
 16060 1302 0000 0000 		.long	.LM563
 16061 1306 16        		.byte	0x16
 16062 1307 00        		.byte	0x0
 16063 1308 05        		.uleb128 0x5
 16064 1309 02        		.byte	0x2
 16065 130a 0000 0000 		.long	.LM564
 16066 130e 15        		.byte	0x15
 16067 130f 00        		.byte	0x0
 16068 1310 05        		.uleb128 0x5
 16069 1311 02        		.byte	0x2
 16070 1312 0000 0000 		.long	.LM565
 16071 1316 04        		.byte	0x4
 16072 1317 01        		.uleb128 0x1
 16073 1318 03        		.byte	0x3
GAS LISTING C:\DOCUME~1\KEUNSO~1\LOCALS~1\Temp/ccWaaqlF.s 			page 286


 16074 1319 8C09      		.sleb128 1164
 16075 131b 01        		.byte	0x1
 16076 131c 00        		.byte	0x0
 16077 131d 05        		.uleb128 0x5
 16078 131e 02        		.byte	0x2
 16079 131f 0000 0000 		.long	.LM566
 16080 1323 15        		.byte	0x15
 16081 1324 00        		.byte	0x0
 16082 1325 05        		.uleb128 0x5
 16083 1326 02        		.byte	0x2
 16084 1327 0000 0000 		.long	.LM567
 16085 132b 15        		.byte	0x15
 16086 132c 00        		.byte	0x0
 16087 132d 05        		.uleb128 0x5
 16088 132e 02        		.byte	0x2
 16089 132f 0000 0000 		.long	.LM568
 16090 1333 15        		.byte	0x15
 16091 1334 00        		.byte	0x0
 16092 1335 05        		.uleb128 0x5
 16093 1336 02        		.byte	0x2
 16094 1337 0000 0000 		.long	.LM569
 16095 133b 15        		.byte	0x15
 16096 133c 00        		.byte	0x0
 16097 133d 05        		.uleb128 0x5
 16098 133e 02        		.byte	0x2
 16099 133f 0000 0000 		.long	.LM570
 16100 1343 15        		.byte	0x15
 16101 1344 00        		.byte	0x0
 16102 1345 05        		.uleb128 0x5
 16103 1346 02        		.byte	0x2
 16104 1347 0000 0000 		.long	.LM571
 16105 134b 15        		.byte	0x15
 16106 134c 00        		.byte	0x0
 16107 134d 05        		.uleb128 0x5
 16108 134e 02        		.byte	0x2
 16109 134f 0000 0000 		.long	.LM572
 16110 1353 16        		.byte	0x16
 16111 1354 00        		.byte	0x0
 16112 1355 05        		.uleb128 0x5
 16113 1356 02        		.byte	0x2
 16114 1357 0000 0000 		.long	.LM573
 16115 135b 16        		.byte	0x16
 16116 135c 00        		.byte	0x0
 16117 135d 05        		.uleb128 0x5
 16118 135e 02        		.byte	0x2
 16119 135f 0000 0000 		.long	.LM574
 16120 1363 15        		.byte	0x15
 16121 1364 00        		.byte	0x0
 16122 1365 05        		.uleb128 0x5
 16123 1366 02        		.byte	0x2
 16124 1367 0000 0000 		.long	.LM575
 16125 136b 18        		.byte	0x18
 16126 136c 00        		.byte	0x0
 16127 136d 05        		.uleb128 0x5
 16128 136e 02        		.byte	0x2
 16129 136f 0000 0000 		.long	.LM576
 16130 1373 62        		.byte	0x62
GAS LISTING C:\DOCUME~1\KEUNSO~1\LOCALS~1\Temp/ccWaaqlF.s 			page 287


 16131 1374 00        		.byte	0x0
 16132 1375 05        		.uleb128 0x5
 16133 1376 02        		.byte	0x2
 16134 1377 0000 0000 		.long	.LM577
 16135 137b 17        		.byte	0x17
 16136 137c 00        		.byte	0x0
 16137 137d 05        		.uleb128 0x5
 16138 137e 02        		.byte	0x2
 16139 137f 0000 0000 		.long	.LM578
 16140 1383 1C        		.byte	0x1c
 16141 1384 00        		.byte	0x0
 16142 1385 05        		.uleb128 0x5
 16143 1386 02        		.byte	0x2
 16144 1387 0000 0000 		.long	.LM579
 16145 138b 04        		.byte	0x4
 16146 138c 04        		.uleb128 0x4
 16147 138d 03        		.byte	0x3
 16148 138e 8B76      		.sleb128 -1269
 16149 1390 01        		.byte	0x1
 16150 1391 00        		.byte	0x0
 16151 1392 05        		.uleb128 0x5
 16152 1393 02        		.byte	0x2
 16153 1394 0000 0000 		.long	.LM580
 16154 1398 04        		.byte	0x4
 16155 1399 01        		.uleb128 0x1
 16156 139a 03        		.byte	0x3
 16157 139b EF09      		.sleb128 1263
 16158 139d 01        		.byte	0x1
 16159 139e 00        		.byte	0x0
 16160 139f 05        		.uleb128 0x5
 16161 13a0 02        		.byte	0x2
 16162 13a1 0000 0000 		.long	.LM581
 16163 13a5 15        		.byte	0x15
 16164 13a6 00        		.byte	0x0
 16165 13a7 05        		.uleb128 0x5
 16166 13a8 02        		.byte	0x2
 16167 13a9 0000 0000 		.long	.LM582
 16168 13ad 15        		.byte	0x15
 16169 13ae 00        		.byte	0x0
 16170 13af 05        		.uleb128 0x5
 16171 13b0 02        		.byte	0x2
 16172 13b1 0000 0000 		.long	.LM583
 16173 13b5 15        		.byte	0x15
 16174 13b6 00        		.byte	0x0
 16175 13b7 05        		.uleb128 0x5
 16176 13b8 02        		.byte	0x2
 16177 13b9 0000 0000 		.long	.LM584
 16178 13bd 15        		.byte	0x15
 16179 13be 00        		.byte	0x0
 16180 13bf 05        		.uleb128 0x5
 16181 13c0 02        		.byte	0x2
 16182 13c1 0000 0000 		.long	.LM585
 16183 13c5 15        		.byte	0x15
 16184 13c6 00        		.byte	0x0
 16185 13c7 05        		.uleb128 0x5
 16186 13c8 02        		.byte	0x2
 16187 13c9 0000 0000 		.long	.LM586
GAS LISTING C:\DOCUME~1\KEUNSO~1\LOCALS~1\Temp/ccWaaqlF.s 			page 288


 16188 13cd 15        		.byte	0x15
 16189 13ce 00        		.byte	0x0
 16190 13cf 05        		.uleb128 0x5
 16191 13d0 02        		.byte	0x2
 16192 13d1 0000 0000 		.long	.LM587
 16193 13d5 15        		.byte	0x15
 16194 13d6 00        		.byte	0x0
 16195 13d7 05        		.uleb128 0x5
 16196 13d8 02        		.byte	0x2
 16197 13d9 0000 0000 		.long	.LM588
 16198 13dd 15        		.byte	0x15
 16199 13de 00        		.byte	0x0
 16200 13df 05        		.uleb128 0x5
 16201 13e0 02        		.byte	0x2
 16202 13e1 0000 0000 		.long	.LM589
 16203 13e5 1C        		.byte	0x1c
 16204 13e6 00        		.byte	0x0
 16205 13e7 05        		.uleb128 0x5
 16206 13e8 02        		.byte	0x2
 16207 13e9 0000 0000 		.long	.LM590
 16208 13ed 04        		.byte	0x4
 16209 13ee 03        		.uleb128 0x3
 16210 13ef 03        		.byte	0x3
 16211 13f0 CD7B      		.sleb128 -563
 16212 13f2 01        		.byte	0x1
 16213 13f3 00        		.byte	0x0
 16214 13f4 05        		.uleb128 0x5
 16215 13f5 02        		.byte	0x2
 16216 13f6 0000 0000 		.long	.LM591
 16217 13fa 18        		.byte	0x18
 16218 13fb 00        		.byte	0x0
 16219 13fc 05        		.uleb128 0x5
 16220 13fd 02        		.byte	0x2
 16221 13fe 0000 0000 		.long	.LM592
 16222 1402 15        		.byte	0x15
 16223 1403 00        		.byte	0x0
 16224 1404 05        		.uleb128 0x5
 16225 1405 02        		.byte	0x2
 16226 1406 0000 0000 		.long	.LM593
 16227 140a 04        		.byte	0x4
 16228 140b 01        		.uleb128 0x1
 16229 140c 03        		.byte	0x3
 16230 140d DB04      		.sleb128 603
 16231 140f 01        		.byte	0x1
 16232 1410 00        		.byte	0x0
 16233 1411 05        		.uleb128 0x5
 16234 1412 02        		.byte	0x2
 16235 1413 0000 0000 		.long	.LM594
 16236 1417 03        		.byte	0x3
 16237 1418 72        		.sleb128 -14
 16238 1419 01        		.byte	0x1
 16239 141a 00        		.byte	0x0
 16240 141b 05        		.uleb128 0x5
 16241 141c 02        		.byte	0x2
 16242 141d 0000 0000 		.long	.LM595
 16243 1421 04        		.byte	0x4
 16244 1422 03        		.uleb128 0x3
GAS LISTING C:\DOCUME~1\KEUNSO~1\LOCALS~1\Temp/ccWaaqlF.s 			page 289


 16245 1423 03        		.byte	0x3
 16246 1424 A57B      		.sleb128 -603
 16247 1426 01        		.byte	0x1
 16248 1427 00        		.byte	0x0
 16249 1428 05        		.uleb128 0x5
 16250 1429 02        		.byte	0x2
 16251 142a 0000 0000 		.long	.LM596
 16252 142e 18        		.byte	0x18
 16253 142f 00        		.byte	0x0
 16254 1430 05        		.uleb128 0x5
 16255 1431 02        		.byte	0x2
 16256 1432 0000 0000 		.long	.LM597
 16257 1436 15        		.byte	0x15
 16258 1437 00        		.byte	0x0
 16259 1438 05        		.uleb128 0x5
 16260 1439 02        		.byte	0x2
 16261 143a 0000 0000 		.long	.LM598
 16262 143e 15        		.byte	0x15
 16263 143f 00        		.byte	0x0
 16264 1440 05        		.uleb128 0x5
 16265 1441 02        		.byte	0x2
 16266 1442 0000 0000 		.long	.LM599
 16267 1446 04        		.byte	0x4
 16268 1447 01        		.uleb128 0x1
 16269 1448 03        		.byte	0x3
 16270 1449 E304      		.sleb128 611
 16271 144b 01        		.byte	0x1
 16272 144c 00        		.byte	0x0
 16273 144d 05        		.uleb128 0x5
 16274 144e 02        		.byte	0x2
 16275 144f 0000 0000 		.long	.LM600
 16276 1453 03        		.byte	0x3
 16277 1454 72        		.sleb128 -14
 16278 1455 01        		.byte	0x1
 16279 1456 00        		.byte	0x0
 16280 1457 05        		.uleb128 0x5
 16281 1458 02        		.byte	0x2
 16282 1459 0000 0000 		.long	.LM601
 16283 145d 04        		.byte	0x4
 16284 145e 04        		.uleb128 0x4
 16285 145f 03        		.byte	0x3
 16286 1460 DC75      		.sleb128 -1316
 16287 1462 01        		.byte	0x1
 16288 1463 00        		.byte	0x0
 16289 1464 05        		.uleb128 0x5
 16290 1465 02        		.byte	0x2
 16291 1466 0000 0000 		.long	.LM602
 16292 146a 15        		.byte	0x15
 16293 146b 00        		.byte	0x0
 16294 146c 05        		.uleb128 0x5
 16295 146d 02        		.byte	0x2
 16296 146e 0000 0000 		.long	.LM603
 16297 1472 15        		.byte	0x15
 16298 1473 00        		.byte	0x0
 16299 1474 05        		.uleb128 0x5
 16300 1475 02        		.byte	0x2
 16301 1476 0000 0000 		.long	.LM604
GAS LISTING C:\DOCUME~1\KEUNSO~1\LOCALS~1\Temp/ccWaaqlF.s 			page 290


 16302 147a 15        		.byte	0x15
 16303 147b 00        		.byte	0x0
 16304 147c 05        		.uleb128 0x5
 16305 147d 02        		.byte	0x2
 16306 147e 0000 0000 		.long	.LM605
 16307 1482 15        		.byte	0x15
 16308 1483 00        		.byte	0x0
 16309 1484 05        		.uleb128 0x5
 16310 1485 02        		.byte	0x2
 16311 1486 0000 0000 		.long	.LM606
 16312 148a 16        		.byte	0x16
 16313 148b 00        		.byte	0x0
 16314 148c 05        		.uleb128 0x5
 16315 148d 02        		.byte	0x2
 16316 148e 0000 0000 		.long	.LM607
 16317 1492 15        		.byte	0x15
 16318 1493 00        		.byte	0x0
 16319 1494 05        		.uleb128 0x5
 16320 1495 02        		.byte	0x2
 16321 1496 0000 0000 		.long	.LM608
 16322 149a 04        		.byte	0x4
 16323 149b 01        		.uleb128 0x1
 16324 149c 03        		.byte	0x3
 16325 149d 8C09      		.sleb128 1164
 16326 149f 01        		.byte	0x1
 16327 14a0 00        		.byte	0x0
 16328 14a1 05        		.uleb128 0x5
 16329 14a2 02        		.byte	0x2
 16330 14a3 0000 0000 		.long	.LM609
 16331 14a7 15        		.byte	0x15
 16332 14a8 00        		.byte	0x0
 16333 14a9 05        		.uleb128 0x5
 16334 14aa 02        		.byte	0x2
 16335 14ab 0000 0000 		.long	.LM610
 16336 14af 15        		.byte	0x15
 16337 14b0 00        		.byte	0x0
 16338 14b1 05        		.uleb128 0x5
 16339 14b2 02        		.byte	0x2
 16340 14b3 0000 0000 		.long	.LM611
 16341 14b7 15        		.byte	0x15
 16342 14b8 00        		.byte	0x0
 16343 14b9 05        		.uleb128 0x5
 16344 14ba 02        		.byte	0x2
 16345 14bb 0000 0000 		.long	.LM612
 16346 14bf 15        		.byte	0x15
 16347 14c0 00        		.byte	0x0
 16348 14c1 05        		.uleb128 0x5
 16349 14c2 02        		.byte	0x2
 16350 14c3 0000 0000 		.long	.LM613
 16351 14c7 15        		.byte	0x15
 16352 14c8 00        		.byte	0x0
 16353 14c9 05        		.uleb128 0x5
 16354 14ca 02        		.byte	0x2
 16355 14cb 0000 0000 		.long	.LM614
 16356 14cf 15        		.byte	0x15
 16357 14d0 00        		.byte	0x0
 16358 14d1 05        		.uleb128 0x5
GAS LISTING C:\DOCUME~1\KEUNSO~1\LOCALS~1\Temp/ccWaaqlF.s 			page 291


 16359 14d2 02        		.byte	0x2
 16360 14d3 0000 0000 		.long	.LM615
 16361 14d7 16        		.byte	0x16
 16362 14d8 00        		.byte	0x0
 16363 14d9 05        		.uleb128 0x5
 16364 14da 02        		.byte	0x2
 16365 14db 0000 0000 		.long	.LM616
 16366 14df 16        		.byte	0x16
 16367 14e0 00        		.byte	0x0
 16368 14e1 05        		.uleb128 0x5
 16369 14e2 02        		.byte	0x2
 16370 14e3 0000 0000 		.long	.LM617
 16371 14e7 15        		.byte	0x15
 16372 14e8 00        		.byte	0x0
 16373 14e9 05        		.uleb128 0x5
 16374 14ea 02        		.byte	0x2
 16375 14eb 0000 0000 		.long	.LM618
 16376 14ef 18        		.byte	0x18
 16377 14f0 00        		.byte	0x0
 16378 14f1 05        		.uleb128 0x5
 16379 14f2 02        		.byte	0x2
 16380 14f3 0000 0000 		.long	.LM619
 16381 14f7 04        		.byte	0x4
 16382 14f8 03        		.uleb128 0x3
 16383 14f9 03        		.byte	0x3
 16384 14fa B17C      		.sleb128 -463
 16385 14fc 01        		.byte	0x1
 16386 14fd 00        		.byte	0x0
 16387 14fe 05        		.uleb128 0x5
 16388 14ff 02        		.byte	0x2
 16389 1500 0000 0000 		.long	.LM620
 16390 1504 1C        		.byte	0x1c
 16391 1505 00        		.byte	0x0
 16392 1506 05        		.uleb128 0x5
 16393 1507 02        		.byte	0x2
 16394 1508 0000 0000 		.long	.LM621
 16395 150c 15        		.byte	0x15
 16396 150d 00        		.byte	0x0
 16397 150e 05        		.uleb128 0x5
 16398 150f 02        		.byte	0x2
 16399 1510 0000 0000 		.long	.LM622
 16400 1514 15        		.byte	0x15
 16401 1515 00        		.byte	0x0
 16402 1516 05        		.uleb128 0x5
 16403 1517 02        		.byte	0x2
 16404 1518 0000 0000 		.long	.LM623
 16405 151c 16        		.byte	0x16
 16406 151d 00        		.byte	0x0
 16407 151e 05        		.uleb128 0x5
 16408 151f 02        		.byte	0x2
 16409 1520 0000 0000 		.long	.LM624
 16410 1524 15        		.byte	0x15
 16411 1525 00        		.byte	0x0
 16412 1526 05        		.uleb128 0x5
 16413 1527 02        		.byte	0x2
 16414 1528 0000 0000 		.long	.LM625
 16415 152c 13        		.byte	0x13
GAS LISTING C:\DOCUME~1\KEUNSO~1\LOCALS~1\Temp/ccWaaqlF.s 			page 292


 16416 152d 00        		.byte	0x0
 16417 152e 05        		.uleb128 0x5
 16418 152f 02        		.byte	0x2
 16419 1530 0000 0000 		.long	.LM626
 16420 1534 04        		.byte	0x4
 16421 1535 01        		.uleb128 0x1
 16422 1536 03        		.byte	0x3
 16423 1537 CF04      		.sleb128 591
 16424 1539 01        		.byte	0x1
 16425 153a 00        		.byte	0x0
 16426 153b 05        		.uleb128 0x5
 16427 153c 02        		.byte	0x2
 16428 153d 0000 0000 		.long	.LM627
 16429 1541 18        		.byte	0x18
 16430 1542 00        		.byte	0x0
 16431 1543 05        		.uleb128 0x5
 16432 1544 02        		.byte	0x2
 16433 1545 0000 0000 		.long	.LM628
 16434 1549 03        		.byte	0x3
 16435 154a 50        		.sleb128 -48
 16436 154b 01        		.byte	0x1
 16437 154c 00        		.byte	0x0
 16438 154d 05        		.uleb128 0x5
 16439 154e 02        		.byte	0x2
 16440 154f 0000 0000 		.long	.LM629
 16441 1553 15        		.byte	0x15
 16442 1554 00        		.byte	0x0
 16443 1555 05        		.uleb128 0x5
 16444 1556 02        		.byte	0x2
 16445 1557 0000 0000 		.long	.LM630
 16446 155b 04        		.byte	0x4
 16447 155c 03        		.uleb128 0x3
 16448 155d 03        		.byte	0x3
 16449 155e DC7B      		.sleb128 -548
 16450 1560 01        		.byte	0x1
 16451 1561 00        		.byte	0x0
 16452 1562 05        		.uleb128 0x5
 16453 1563 02        		.byte	0x2
 16454 1564 0000 0000 		.long	.LM631
 16455 1568 04        		.byte	0x4
 16456 1569 01        		.uleb128 0x1
 16457 156a 03        		.byte	0x3
 16458 156b A004      		.sleb128 544
 16459 156d 01        		.byte	0x1
 16460 156e 00        		.byte	0x0
 16461 156f 05        		.uleb128 0x5
 16462 1570 02        		.byte	0x2
 16463 1571 0000 0000 		.long	.LM632
 16464 1575 04        		.byte	0x4
 16465 1576 04        		.uleb128 0x4
 16466 1577 03        		.byte	0x3
 16467 1578 F975      		.sleb128 -1287
 16468 157a 01        		.byte	0x1
 16469 157b 00        		.byte	0x0
 16470 157c 05        		.uleb128 0x5
 16471 157d 02        		.byte	0x2
 16472 157e 0000 0000 		.long	.LM633
GAS LISTING C:\DOCUME~1\KEUNSO~1\LOCALS~1\Temp/ccWaaqlF.s 			page 293


 16473 1582 1B        		.byte	0x1b
 16474 1583 00        		.byte	0x0
 16475 1584 05        		.uleb128 0x5
 16476 1585 02        		.byte	0x2
 16477 1586 0000 0000 		.long	.LM634
 16478 158a 15        		.byte	0x15
 16479 158b 00        		.byte	0x0
 16480 158c 05        		.uleb128 0x5
 16481 158d 02        		.byte	0x2
 16482 158e 0000 0000 		.long	.LM635
 16483 1592 15        		.byte	0x15
 16484 1593 00        		.byte	0x0
 16485 1594 05        		.uleb128 0x5
 16486 1595 02        		.byte	0x2
 16487 1596 0000 0000 		.long	.LM636
 16488 159a 15        		.byte	0x15
 16489 159b 00        		.byte	0x0
 16490 159c 05        		.uleb128 0x5
 16491 159d 02        		.byte	0x2
 16492 159e 0000 0000 		.long	.LM637
 16493 15a2 15        		.byte	0x15
 16494 15a3 00        		.byte	0x0
 16495 15a4 05        		.uleb128 0x5
 16496 15a5 02        		.byte	0x2
 16497 15a6 0000 0000 		.long	.LM638
 16498 15aa 15        		.byte	0x15
 16499 15ab 00        		.byte	0x0
 16500 15ac 05        		.uleb128 0x5
 16501 15ad 02        		.byte	0x2
 16502 15ae 0000 0000 		.long	.LM639
 16503 15b2 16        		.byte	0x16
 16504 15b3 00        		.byte	0x0
 16505 15b4 05        		.uleb128 0x5
 16506 15b5 02        		.byte	0x2
 16507 15b6 0000 0000 		.long	.LM640
 16508 15ba 15        		.byte	0x15
 16509 15bb 00        		.byte	0x0
 16510 15bc 05        		.uleb128 0x5
 16511 15bd 02        		.byte	0x2
 16512 15be 0000 0000 		.long	.LM641
 16513 15c2 04        		.byte	0x4
 16514 15c3 01        		.uleb128 0x1
 16515 15c4 03        		.byte	0x3
 16516 15c5 8C09      		.sleb128 1164
 16517 15c7 01        		.byte	0x1
 16518 15c8 00        		.byte	0x0
 16519 15c9 05        		.uleb128 0x5
 16520 15ca 02        		.byte	0x2
 16521 15cb 0000 0000 		.long	.LM642
 16522 15cf 15        		.byte	0x15
 16523 15d0 00        		.byte	0x0
 16524 15d1 05        		.uleb128 0x5
 16525 15d2 02        		.byte	0x2
 16526 15d3 0000 0000 		.long	.LM643
 16527 15d7 15        		.byte	0x15
 16528 15d8 00        		.byte	0x0
 16529 15d9 05        		.uleb128 0x5
GAS LISTING C:\DOCUME~1\KEUNSO~1\LOCALS~1\Temp/ccWaaqlF.s 			page 294


 16530 15da 02        		.byte	0x2
 16531 15db 0000 0000 		.long	.LM644
 16532 15df 15        		.byte	0x15
 16533 15e0 00        		.byte	0x0
 16534 15e1 05        		.uleb128 0x5
 16535 15e2 02        		.byte	0x2
 16536 15e3 0000 0000 		.long	.LM645
 16537 15e7 15        		.byte	0x15
 16538 15e8 00        		.byte	0x0
 16539 15e9 05        		.uleb128 0x5
 16540 15ea 02        		.byte	0x2
 16541 15eb 0000 0000 		.long	.LM646
 16542 15ef 15        		.byte	0x15
 16543 15f0 00        		.byte	0x0
 16544 15f1 05        		.uleb128 0x5
 16545 15f2 02        		.byte	0x2
 16546 15f3 0000 0000 		.long	.LM647
 16547 15f7 15        		.byte	0x15
 16548 15f8 00        		.byte	0x0
 16549 15f9 05        		.uleb128 0x5
 16550 15fa 02        		.byte	0x2
 16551 15fb 0000 0000 		.long	.LM648
 16552 15ff 16        		.byte	0x16
 16553 1600 00        		.byte	0x0
 16554 1601 05        		.uleb128 0x5
 16555 1602 02        		.byte	0x2
 16556 1603 0000 0000 		.long	.LM649
 16557 1607 16        		.byte	0x16
 16558 1608 00        		.byte	0x0
 16559 1609 05        		.uleb128 0x5
 16560 160a 02        		.byte	0x2
 16561 160b 0000 0000 		.long	.LM650
 16562 160f 15        		.byte	0x15
 16563 1610 00        		.byte	0x0
 16564 1611 05        		.uleb128 0x5
 16565 1612 02        		.byte	0x2
 16566 1613 0000 0000 		.long	.LM651
 16567 1617 18        		.byte	0x18
 16568 1618 00        		.byte	0x0
 16569 1619 05        		.uleb128 0x5
 16570 161a 02        		.byte	0x2
 16571 161b 0000 0000 		.long	.LM652
 16572 161f 03        		.byte	0x3
 16573 1620 9A7B      		.sleb128 -614
 16574 1622 01        		.byte	0x1
 16575 1623 00        		.byte	0x0
 16576 1624 05        		.uleb128 0x5
 16577 1625 02        		.byte	0x2
 16578 1626 0000 0000 		.long	.LM653
 16579 162a 04        		.byte	0x4
 16580 162b 04        		.uleb128 0x4
 16581 162c 03        		.byte	0x3
 16582 162d C47B      		.sleb128 -572
 16583 162f 01        		.byte	0x1
 16584 1630 00        		.byte	0x0
 16585 1631 05        		.uleb128 0x5
 16586 1632 02        		.byte	0x2
GAS LISTING C:\DOCUME~1\KEUNSO~1\LOCALS~1\Temp/ccWaaqlF.s 			page 295


 16587 1633 0000 0000 		.long	.LM654
 16588 1637 15        		.byte	0x15
 16589 1638 00        		.byte	0x0
 16590 1639 05        		.uleb128 0x5
 16591 163a 02        		.byte	0x2
 16592 163b 0000 0000 		.long	.LM655
 16593 163f 15        		.byte	0x15
 16594 1640 00        		.byte	0x0
 16595 1641 05        		.uleb128 0x5
 16596 1642 02        		.byte	0x2
 16597 1643 0000 0000 		.long	.LM656
 16598 1647 15        		.byte	0x15
 16599 1648 00        		.byte	0x0
 16600 1649 05        		.uleb128 0x5
 16601 164a 02        		.byte	0x2
 16602 164b 0000 0000 		.long	.LM657
 16603 164f 15        		.byte	0x15
 16604 1650 00        		.byte	0x0
 16605 1651 05        		.uleb128 0x5
 16606 1652 02        		.byte	0x2
 16607 1653 0000 0000 		.long	.LM658
 16608 1657 16        		.byte	0x16
 16609 1658 00        		.byte	0x0
 16610 1659 05        		.uleb128 0x5
 16611 165a 02        		.byte	0x2
 16612 165b 0000 0000 		.long	.LM659
 16613 165f 15        		.byte	0x15
 16614 1660 00        		.byte	0x0
 16615 1661 05        		.uleb128 0x5
 16616 1662 02        		.byte	0x2
 16617 1663 0000 0000 		.long	.LM660
 16618 1667 04        		.byte	0x4
 16619 1668 01        		.uleb128 0x1
 16620 1669 03        		.byte	0x3
 16621 166a 8C09      		.sleb128 1164
 16622 166c 01        		.byte	0x1
 16623 166d 00        		.byte	0x0
 16624 166e 05        		.uleb128 0x5
 16625 166f 02        		.byte	0x2
 16626 1670 0000 0000 		.long	.LM661
 16627 1674 15        		.byte	0x15
 16628 1675 00        		.byte	0x0
 16629 1676 05        		.uleb128 0x5
 16630 1677 02        		.byte	0x2
 16631 1678 0000 0000 		.long	.LM662
 16632 167c 15        		.byte	0x15
 16633 167d 00        		.byte	0x0
 16634 167e 05        		.uleb128 0x5
 16635 167f 02        		.byte	0x2
 16636 1680 0000 0000 		.long	.LM663
 16637 1684 15        		.byte	0x15
 16638 1685 00        		.byte	0x0
 16639 1686 05        		.uleb128 0x5
 16640 1687 02        		.byte	0x2
 16641 1688 0000 0000 		.long	.LM664
 16642 168c 15        		.byte	0x15
 16643 168d 00        		.byte	0x0
GAS LISTING C:\DOCUME~1\KEUNSO~1\LOCALS~1\Temp/ccWaaqlF.s 			page 296


 16644 168e 05        		.uleb128 0x5
 16645 168f 02        		.byte	0x2
 16646 1690 0000 0000 		.long	.LM665
 16647 1694 15        		.byte	0x15
 16648 1695 00        		.byte	0x0
 16649 1696 05        		.uleb128 0x5
 16650 1697 02        		.byte	0x2
 16651 1698 0000 0000 		.long	.LM666
 16652 169c 15        		.byte	0x15
 16653 169d 00        		.byte	0x0
 16654 169e 05        		.uleb128 0x5
 16655 169f 02        		.byte	0x2
 16656 16a0 0000 0000 		.long	.LM667
 16657 16a4 16        		.byte	0x16
 16658 16a5 00        		.byte	0x0
 16659 16a6 05        		.uleb128 0x5
 16660 16a7 02        		.byte	0x2
 16661 16a8 0000 0000 		.long	.LM668
 16662 16ac 16        		.byte	0x16
 16663 16ad 00        		.byte	0x0
 16664 16ae 05        		.uleb128 0x5
 16665 16af 02        		.byte	0x2
 16666 16b0 0000 0000 		.long	.LM669
 16667 16b4 15        		.byte	0x15
 16668 16b5 00        		.byte	0x0
 16669 16b6 05        		.uleb128 0x5
 16670 16b7 02        		.byte	0x2
 16671 16b8 0000 0000 		.long	.LM670
 16672 16bc 18        		.byte	0x18
 16673 16bd 00        		.byte	0x0
 16674 16be 05        		.uleb128 0x5
 16675 16bf 02        		.byte	0x2
 16676 16c0 0000 0000 		.long	.LM671
 16677 16c4 03        		.byte	0x3
 16678 16c5 A17B      		.sleb128 -607
 16679 16c7 01        		.byte	0x1
 16680 16c8 00        		.byte	0x0
 16681 16c9 05        		.uleb128 0x5
 16682 16ca 02        		.byte	0x2
 16683 16cb 0000 0000 		.long	.LM672
 16684 16cf 15        		.byte	0x15
 16685 16d0 00        		.byte	0x0
 16686 16d1 05        		.uleb128 0x5
 16687 16d2 02        		.byte	0x2
 16688 16d3 0000 0000 		.long	.LM673
 16689 16d7 15        		.byte	0x15
 16690 16d8 00        		.byte	0x0
 16691 16d9 05        		.uleb128 0x5
 16692 16da 02        		.byte	0x2
 16693 16db 0000 0000 		.long	.LM674
 16694 16df 04        		.byte	0x4
 16695 16e0 04        		.uleb128 0x4
 16696 16e1 03        		.byte	0x3
 16697 16e2 BB7B      		.sleb128 -581
 16698 16e4 01        		.byte	0x1
 16699 16e5 00        		.byte	0x0
 16700 16e6 05        		.uleb128 0x5
GAS LISTING C:\DOCUME~1\KEUNSO~1\LOCALS~1\Temp/ccWaaqlF.s 			page 297


 16701 16e7 02        		.byte	0x2
 16702 16e8 0000 0000 		.long	.LM675
 16703 16ec 16        		.byte	0x16
 16704 16ed 00        		.byte	0x0
 16705 16ee 05        		.uleb128 0x5
 16706 16ef 02        		.byte	0x2
 16707 16f0 0000 0000 		.long	.LM676
 16708 16f4 15        		.byte	0x15
 16709 16f5 00        		.byte	0x0
 16710 16f6 05        		.uleb128 0x5
 16711 16f7 02        		.byte	0x2
 16712 16f8 0000 0000 		.long	.LM677
 16713 16fc 15        		.byte	0x15
 16714 16fd 00        		.byte	0x0
 16715 16fe 05        		.uleb128 0x5
 16716 16ff 02        		.byte	0x2
 16717 1700 0000 0000 		.long	.LM678
 16718 1704 16        		.byte	0x16
 16719 1705 00        		.byte	0x0
 16720 1706 05        		.uleb128 0x5
 16721 1707 02        		.byte	0x2
 16722 1708 0000 0000 		.long	.LM679
 16723 170c 15        		.byte	0x15
 16724 170d 00        		.byte	0x0
 16725 170e 05        		.uleb128 0x5
 16726 170f 02        		.byte	0x2
 16727 1710 0000 0000 		.long	.LM680
 16728 1714 04        		.byte	0x4
 16729 1715 01        		.uleb128 0x1
 16730 1716 03        		.byte	0x3
 16731 1717 8C09      		.sleb128 1164
 16732 1719 01        		.byte	0x1
 16733 171a 00        		.byte	0x0
 16734 171b 05        		.uleb128 0x5
 16735 171c 02        		.byte	0x2
 16736 171d 0000 0000 		.long	.LM681
 16737 1721 15        		.byte	0x15
 16738 1722 00        		.byte	0x0
 16739 1723 05        		.uleb128 0x5
 16740 1724 02        		.byte	0x2
 16741 1725 0000 0000 		.long	.LM682
 16742 1729 15        		.byte	0x15
 16743 172a 00        		.byte	0x0
 16744 172b 05        		.uleb128 0x5
 16745 172c 02        		.byte	0x2
 16746 172d 0000 0000 		.long	.LM683
 16747 1731 15        		.byte	0x15
 16748 1732 00        		.byte	0x0
 16749 1733 05        		.uleb128 0x5
 16750 1734 02        		.byte	0x2
 16751 1735 0000 0000 		.long	.LM684
 16752 1739 15        		.byte	0x15
 16753 173a 00        		.byte	0x0
 16754 173b 05        		.uleb128 0x5
 16755 173c 02        		.byte	0x2
 16756 173d 0000 0000 		.long	.LM685
 16757 1741 15        		.byte	0x15
GAS LISTING C:\DOCUME~1\KEUNSO~1\LOCALS~1\Temp/ccWaaqlF.s 			page 298


 16758 1742 00        		.byte	0x0
 16759 1743 05        		.uleb128 0x5
 16760 1744 02        		.byte	0x2
 16761 1745 0000 0000 		.long	.LM686
 16762 1749 15        		.byte	0x15
 16763 174a 00        		.byte	0x0
 16764 174b 05        		.uleb128 0x5
 16765 174c 02        		.byte	0x2
 16766 174d 0000 0000 		.long	.LM687
 16767 1751 16        		.byte	0x16
 16768 1752 00        		.byte	0x0
 16769 1753 05        		.uleb128 0x5
 16770 1754 02        		.byte	0x2
 16771 1755 0000 0000 		.long	.LM688
 16772 1759 16        		.byte	0x16
 16773 175a 00        		.byte	0x0
 16774 175b 05        		.uleb128 0x5
 16775 175c 02        		.byte	0x2
 16776 175d 0000 0000 		.long	.LM689
 16777 1761 15        		.byte	0x15
 16778 1762 00        		.byte	0x0
 16779 1763 05        		.uleb128 0x5
 16780 1764 02        		.byte	0x2
 16781 1765 0000 0000 		.long	.LM690
 16782 1769 18        		.byte	0x18
 16783 176a 00        		.byte	0x0
 16784 176b 05        		.uleb128 0x5
 16785 176c 02        		.byte	0x2
 16786 176d 0000 0000 		.long	.LM691
 16787 1771 03        		.byte	0x3
 16788 1772 A57B      		.sleb128 -603
 16789 1774 01        		.byte	0x1
 16790 1775 00        		.byte	0x0
 16791 1776 05        		.uleb128 0x5
 16792 1777 02        		.byte	0x2
 16793 1778 0000 0000 		.long	.LM692
 16794 177c 15        		.byte	0x15
 16795 177d 00        		.byte	0x0
 16796 177e 05        		.uleb128 0x5
 16797 177f 02        		.byte	0x2
 16798 1780 0000 0000 		.long	.LM693
 16799 1784 15        		.byte	0x15
 16800 1785 00        		.byte	0x0
 16801 1786 05        		.uleb128 0x5
 16802 1787 02        		.byte	0x2
 16803 1788 0000 0000 		.long	.LM694
 16804 178c 15        		.byte	0x15
 16805 178d 00        		.byte	0x0
 16806 178e 05        		.uleb128 0x5
 16807 178f 02        		.byte	0x2
 16808 1790 0000 0000 		.long	.LM695
 16809 1794 15        		.byte	0x15
 16810 1795 00        		.byte	0x0
 16811 1796 05        		.uleb128 0x5
 16812 1797 02        		.byte	0x2
 16813 1798 0000 0000 		.long	.LM696
 16814 179c 04        		.byte	0x4
GAS LISTING C:\DOCUME~1\KEUNSO~1\LOCALS~1\Temp/ccWaaqlF.s 			page 299


 16815 179d 04        		.uleb128 0x4
 16816 179e 03        		.byte	0x3
 16817 179f DC7B      		.sleb128 -548
 16818 17a1 01        		.byte	0x1
 16819 17a2 00        		.byte	0x0
 16820 17a3 05        		.uleb128 0x5
 16821 17a4 02        		.byte	0x2
 16822 17a5 0000 0000 		.long	.LM697
 16823 17a9 19        		.byte	0x19
 16824 17aa 00        		.byte	0x0
 16825 17ab 05        		.uleb128 0x5
 16826 17ac 02        		.byte	0x2
 16827 17ad 0000 0000 		.long	.LM698
 16828 17b1 1D        		.byte	0x1d
 16829 17b2 00        		.byte	0x0
 16830 17b3 05        		.uleb128 0x5
 16831 17b4 02        		.byte	0x2
 16832 17b5 0000 0000 		.long	.LM699
 16833 17b9 17        		.byte	0x17
 16834 17ba 00        		.byte	0x0
 16835 17bb 05        		.uleb128 0x5
 16836 17bc 02        		.byte	0x2
 16837 17bd 0000 0000 		.long	.LM700
 16838 17c1 17        		.byte	0x17
 16839 17c2 00        		.byte	0x0
 16840 17c3 05        		.uleb128 0x5
 16841 17c4 02        		.byte	0x2
 16842 17c5 0000 0000 		.long	.LM701
 16843 17c9 24        		.byte	0x24
 16844 17ca 00        		.byte	0x0
 16845 17cb 05        		.uleb128 0x5
 16846 17cc 02        		.byte	0x2
 16847 17cd 0000 0000 		.long	.LM702
 16848 17d1 03        		.byte	0x3
 16849 17d2 6D        		.sleb128 -19
 16850 17d3 01        		.byte	0x1
 16851 17d4 00        		.byte	0x0
 16852 17d5 05        		.uleb128 0x5
 16853 17d6 02        		.byte	0x2
 16854 17d7 0000 0000 		.long	.LM703
 16855 17db 03        		.byte	0x3
 16856 17dc 75        		.sleb128 -11
 16857 17dd 01        		.byte	0x1
 16858 17de 00        		.byte	0x0
 16859 17df 05        		.uleb128 0x5
 16860 17e0 02        		.byte	0x2
 16861 17e1 0000 0000 		.long	.LM704
 16862 17e5 15        		.byte	0x15
 16863 17e6 00        		.byte	0x0
 16864 17e7 05        		.uleb128 0x5
 16865 17e8 02        		.byte	0x2
 16866 17e9 0000 0000 		.long	.LM705
 16867 17ed 15        		.byte	0x15
 16868 17ee 00        		.byte	0x0
 16869 17ef 05        		.uleb128 0x5
 16870 17f0 02        		.byte	0x2
 16871 17f1 0000 0000 		.long	.LM706
GAS LISTING C:\DOCUME~1\KEUNSO~1\LOCALS~1\Temp/ccWaaqlF.s 			page 300


 16872 17f5 1A        		.byte	0x1a
 16873 17f6 00        		.byte	0x0
 16874 17f7 05        		.uleb128 0x5
 16875 17f8 02        		.byte	0x2
 16876 17f9 0000 0000 		.long	.LM707
 16877 17fd 1F        		.byte	0x1f
 16878 17fe 00        		.byte	0x0
 16879 17ff 05        		.uleb128 0x5
 16880 1800 02        		.byte	0x2
 16881 1801 0000 0000 		.long	.LM708
 16882 1805 16        		.byte	0x16
 16883 1806 00        		.byte	0x0
 16884 1807 05        		.uleb128 0x5
 16885 1808 02        		.byte	0x2
 16886 1809 0000 0000 		.long	.LM709
 16887 180d 16        		.byte	0x16
 16888 180e 00        		.byte	0x0
 16889 180f 05        		.uleb128 0x5
 16890 1810 02        		.byte	0x2
 16891 1811 0000 0000 		.long	.LM710
 16892 1815 03        		.byte	0x3
 16893 1816 BB7F      		.sleb128 -69
 16894 1818 01        		.byte	0x1
 16895 1819 00        		.byte	0x0
 16896 181a 05        		.uleb128 0x5
 16897 181b 02        		.byte	0x2
 16898 181c 0000 0000 		.long	.LM711
 16899 1820 15        		.byte	0x15
 16900 1821 00        		.byte	0x0
 16901 1822 05        		.uleb128 0x5
 16902 1823 02        		.byte	0x2
 16903 1824 0000 0000 		.long	.LM712
 16904 1828 15        		.byte	0x15
 16905 1829 00        		.byte	0x0
 16906 182a 05        		.uleb128 0x5
 16907 182b 02        		.byte	0x2
 16908 182c 0000 0000 		.long	.LM713
 16909 1830 15        		.byte	0x15
 16910 1831 00        		.byte	0x0
 16911 1832 05        		.uleb128 0x5
 16912 1833 02        		.byte	0x2
 16913 1834 0000 0000 		.long	.LM714
 16914 1838 15        		.byte	0x15
 16915 1839 00        		.byte	0x0
 16916 183a 05        		.uleb128 0x5
 16917 183b 02        		.byte	0x2
 16918 183c 0000 0000 		.long	.LM715
 16919 1840 15        		.byte	0x15
 16920 1841 00        		.byte	0x0
 16921 1842 05        		.uleb128 0x5
 16922 1843 02        		.byte	0x2
 16923 1844 0000 0000 		.long	.LM716
 16924 1848 16        		.byte	0x16
 16925 1849 00        		.byte	0x0
 16926 184a 05        		.uleb128 0x5
 16927 184b 02        		.byte	0x2
 16928 184c 0000 0000 		.long	.LM717
GAS LISTING C:\DOCUME~1\KEUNSO~1\LOCALS~1\Temp/ccWaaqlF.s 			page 301


 16929 1850 15        		.byte	0x15
 16930 1851 00        		.byte	0x0
 16931 1852 05        		.uleb128 0x5
 16932 1853 02        		.byte	0x2
 16933 1854 0000 0000 		.long	.LM718
 16934 1858 04        		.byte	0x4
 16935 1859 01        		.uleb128 0x1
 16936 185a 03        		.byte	0x3
 16937 185b 8C09      		.sleb128 1164
 16938 185d 01        		.byte	0x1
 16939 185e 00        		.byte	0x0
 16940 185f 05        		.uleb128 0x5
 16941 1860 02        		.byte	0x2
 16942 1861 0000 0000 		.long	.LM719
 16943 1865 15        		.byte	0x15
 16944 1866 00        		.byte	0x0
 16945 1867 05        		.uleb128 0x5
 16946 1868 02        		.byte	0x2
 16947 1869 0000 0000 		.long	.LM720
 16948 186d 15        		.byte	0x15
 16949 186e 00        		.byte	0x0
 16950 186f 05        		.uleb128 0x5
 16951 1870 02        		.byte	0x2
 16952 1871 0000 0000 		.long	.LM721
 16953 1875 15        		.byte	0x15
 16954 1876 00        		.byte	0x0
 16955 1877 05        		.uleb128 0x5
 16956 1878 02        		.byte	0x2
 16957 1879 0000 0000 		.long	.LM722
 16958 187d 15        		.byte	0x15
 16959 187e 00        		.byte	0x0
 16960 187f 05        		.uleb128 0x5
 16961 1880 02        		.byte	0x2
 16962 1881 0000 0000 		.long	.LM723
 16963 1885 15        		.byte	0x15
 16964 1886 00        		.byte	0x0
 16965 1887 05        		.uleb128 0x5
 16966 1888 02        		.byte	0x2
 16967 1889 0000 0000 		.long	.LM724
 16968 188d 15        		.byte	0x15
 16969 188e 00        		.byte	0x0
 16970 188f 05        		.uleb128 0x5
 16971 1890 02        		.byte	0x2
 16972 1891 0000 0000 		.long	.LM725
 16973 1895 16        		.byte	0x16
 16974 1896 00        		.byte	0x0
 16975 1897 05        		.uleb128 0x5
 16976 1898 02        		.byte	0x2
 16977 1899 0000 0000 		.long	.LM726
 16978 189d 16        		.byte	0x16
 16979 189e 00        		.byte	0x0
 16980 189f 05        		.uleb128 0x5
 16981 18a0 02        		.byte	0x2
 16982 18a1 0000 0000 		.long	.LM727
 16983 18a5 15        		.byte	0x15
 16984 18a6 00        		.byte	0x0
 16985 18a7 05        		.uleb128 0x5
GAS LISTING C:\DOCUME~1\KEUNSO~1\LOCALS~1\Temp/ccWaaqlF.s 			page 302


 16986 18a8 02        		.byte	0x2
 16987 18a9 0000 0000 		.long	.LM728
 16988 18ad 18        		.byte	0x18
 16989 18ae 00        		.byte	0x0
 16990 18af 05        		.uleb128 0x5
 16991 18b0 02        		.byte	0x2
 16992 18b1 0000 0000 		.long	.LM729
 16993 18b5 04        		.byte	0x4
 16994 18b6 04        		.uleb128 0x4
 16995 18b7 03        		.byte	0x3
 16996 18b8 A377      		.sleb128 -1117
 16997 18ba 01        		.byte	0x1
 16998 18bb 00        		.byte	0x0
 16999 18bc 05        		.uleb128 0x5
 17000 18bd 02        		.byte	0x2
 17001 18be 0000 0000 		.long	.LM730
 17002 18c2 03        		.byte	0x3
 17003 18c3 41        		.sleb128 -63
 17004 18c4 01        		.byte	0x1
 17005 18c5 00        		.byte	0x0
 17006 18c6 05        		.uleb128 0x5
 17007 18c7 02        		.byte	0x2
 17008 18c8 0000 0000 		.long	.LM731
 17009 18cc 0E        		.byte	0xe
 17010 18cd 00        		.byte	0x0
 17011 18ce 05        		.uleb128 0x5
 17012 18cf 02        		.byte	0x2
 17013 18d0 0000 0000 		.long	.LM732
 17014 18d4 15        		.byte	0x15
 17015 18d5 00        		.byte	0x0
 17016 18d6 05        		.uleb128 0x5
 17017 18d7 02        		.byte	0x2
 17018 18d8 0000 0000 		.long	.LM733
 17019 18dc 15        		.byte	0x15
 17020 18dd 00        		.byte	0x0
 17021 18de 05        		.uleb128 0x5
 17022 18df 02        		.byte	0x2
 17023 18e0 0000 0000 		.long	.LM734
 17024 18e4 15        		.byte	0x15
 17025 18e5 00        		.byte	0x0
 17026 18e6 05        		.uleb128 0x5
 17027 18e7 02        		.byte	0x2
 17028 18e8 0000 0000 		.long	.LM735
 17029 18ec 15        		.byte	0x15
 17030 18ed 00        		.byte	0x0
 17031 18ee 05        		.uleb128 0x5
 17032 18ef 02        		.byte	0x2
 17033 18f0 0000 0000 		.long	.LM736
 17034 18f4 16        		.byte	0x16
 17035 18f5 00        		.byte	0x0
 17036 18f6 05        		.uleb128 0x5
 17037 18f7 02        		.byte	0x2
 17038 18f8 0000 0000 		.long	.LM737
 17039 18fc 15        		.byte	0x15
 17040 18fd 00        		.byte	0x0
 17041 18fe 05        		.uleb128 0x5
 17042 18ff 02        		.byte	0x2
GAS LISTING C:\DOCUME~1\KEUNSO~1\LOCALS~1\Temp/ccWaaqlF.s 			page 303


 17043 1900 0000 0000 		.long	.LM738
 17044 1904 04        		.byte	0x4
 17045 1905 01        		.uleb128 0x1
 17046 1906 03        		.byte	0x3
 17047 1907 8C09      		.sleb128 1164
 17048 1909 01        		.byte	0x1
 17049 190a 00        		.byte	0x0
 17050 190b 05        		.uleb128 0x5
 17051 190c 02        		.byte	0x2
 17052 190d 0000 0000 		.long	.LM739
 17053 1911 15        		.byte	0x15
 17054 1912 00        		.byte	0x0
 17055 1913 05        		.uleb128 0x5
 17056 1914 02        		.byte	0x2
 17057 1915 0000 0000 		.long	.LM740
 17058 1919 15        		.byte	0x15
 17059 191a 00        		.byte	0x0
 17060 191b 05        		.uleb128 0x5
 17061 191c 02        		.byte	0x2
 17062 191d 0000 0000 		.long	.LM741
 17063 1921 15        		.byte	0x15
 17064 1922 00        		.byte	0x0
 17065 1923 05        		.uleb128 0x5
 17066 1924 02        		.byte	0x2
 17067 1925 0000 0000 		.long	.LM742
 17068 1929 15        		.byte	0x15
 17069 192a 00        		.byte	0x0
 17070 192b 05        		.uleb128 0x5
 17071 192c 02        		.byte	0x2
 17072 192d 0000 0000 		.long	.LM743
 17073 1931 15        		.byte	0x15
 17074 1932 00        		.byte	0x0
 17075 1933 05        		.uleb128 0x5
 17076 1934 02        		.byte	0x2
 17077 1935 0000 0000 		.long	.LM744
 17078 1939 15        		.byte	0x15
 17079 193a 00        		.byte	0x0
 17080 193b 05        		.uleb128 0x5
 17081 193c 02        		.byte	0x2
 17082 193d 0000 0000 		.long	.LM745
 17083 1941 16        		.byte	0x16
 17084 1942 00        		.byte	0x0
 17085 1943 05        		.uleb128 0x5
 17086 1944 02        		.byte	0x2
 17087 1945 0000 0000 		.long	.LM746
 17088 1949 16        		.byte	0x16
 17089 194a 00        		.byte	0x0
 17090 194b 05        		.uleb128 0x5
 17091 194c 02        		.byte	0x2
 17092 194d 0000 0000 		.long	.LM747
 17093 1951 15        		.byte	0x15
 17094 1952 00        		.byte	0x0
 17095 1953 05        		.uleb128 0x5
 17096 1954 02        		.byte	0x2
 17097 1955 0000 0000 		.long	.LM748
 17098 1959 18        		.byte	0x18
 17099 195a 00        		.byte	0x0
GAS LISTING C:\DOCUME~1\KEUNSO~1\LOCALS~1\Temp/ccWaaqlF.s 			page 304


 17100 195b 05        		.uleb128 0x5
 17101 195c 02        		.byte	0x2
 17102 195d 0000 0000 		.long	.LM749
 17103 1961 04        		.byte	0x4
 17104 1962 04        		.uleb128 0x4
 17105 1963 03        		.byte	0x3
 17106 1964 DE76      		.sleb128 -1186
 17107 1966 01        		.byte	0x1
 17108 1967 00        		.byte	0x0
 17109 1968 05        		.uleb128 0x5
 17110 1969 02        		.byte	0x2
 17111 196a 0000 0000 		.long	.LM750
 17112 196e 16        		.byte	0x16
 17113 196f 00        		.byte	0x0
 17114 1970 05        		.uleb128 0x5
 17115 1971 02        		.byte	0x2
 17116 1972 0000 0000 		.long	.LM751
 17117 1976 15        		.byte	0x15
 17118 1977 00        		.byte	0x0
 17119 1978 05        		.uleb128 0x5
 17120 1979 02        		.byte	0x2
 17121 197a 0000 0000 		.long	.LM752
 17122 197e 15        		.byte	0x15
 17123 197f 00        		.byte	0x0
 17124 1980 05        		.uleb128 0x5
 17125 1981 02        		.byte	0x2
 17126 1982 0000 0000 		.long	.LM753
 17127 1986 16        		.byte	0x16
 17128 1987 00        		.byte	0x0
 17129 1988 05        		.uleb128 0x5
 17130 1989 02        		.byte	0x2
 17131 198a 0000 0000 		.long	.LM754
 17132 198e 15        		.byte	0x15
 17133 198f 00        		.byte	0x0
 17134 1990 05        		.uleb128 0x5
 17135 1991 02        		.byte	0x2
 17136 1992 0000 0000 		.long	.LM755
 17137 1996 04        		.byte	0x4
 17138 1997 01        		.uleb128 0x1
 17139 1998 03        		.byte	0x3
 17140 1999 8C09      		.sleb128 1164
 17141 199b 01        		.byte	0x1
 17142 199c 00        		.byte	0x0
 17143 199d 05        		.uleb128 0x5
 17144 199e 02        		.byte	0x2
 17145 199f 0000 0000 		.long	.LM756
 17146 19a3 15        		.byte	0x15
 17147 19a4 00        		.byte	0x0
 17148 19a5 05        		.uleb128 0x5
 17149 19a6 02        		.byte	0x2
 17150 19a7 0000 0000 		.long	.LM757
 17151 19ab 15        		.byte	0x15
 17152 19ac 00        		.byte	0x0
 17153 19ad 05        		.uleb128 0x5
 17154 19ae 02        		.byte	0x2
 17155 19af 0000 0000 		.long	.LM758
 17156 19b3 15        		.byte	0x15
GAS LISTING C:\DOCUME~1\KEUNSO~1\LOCALS~1\Temp/ccWaaqlF.s 			page 305


 17157 19b4 00        		.byte	0x0
 17158 19b5 05        		.uleb128 0x5
 17159 19b6 02        		.byte	0x2
 17160 19b7 0000 0000 		.long	.LM759
 17161 19bb 15        		.byte	0x15
 17162 19bc 00        		.byte	0x0
 17163 19bd 05        		.uleb128 0x5
 17164 19be 02        		.byte	0x2
 17165 19bf 0000 0000 		.long	.LM760
 17166 19c3 15        		.byte	0x15
 17167 19c4 00        		.byte	0x0
 17168 19c5 05        		.uleb128 0x5
 17169 19c6 02        		.byte	0x2
 17170 19c7 0000 0000 		.long	.LM761
 17171 19cb 15        		.byte	0x15
 17172 19cc 00        		.byte	0x0
 17173 19cd 05        		.uleb128 0x5
 17174 19ce 02        		.byte	0x2
 17175 19cf 0000 0000 		.long	.LM762
 17176 19d3 16        		.byte	0x16
 17177 19d4 00        		.byte	0x0
 17178 19d5 05        		.uleb128 0x5
 17179 19d6 02        		.byte	0x2
 17180 19d7 0000 0000 		.long	.LM763
 17181 19db 16        		.byte	0x16
 17182 19dc 00        		.byte	0x0
 17183 19dd 05        		.uleb128 0x5
 17184 19de 02        		.byte	0x2
 17185 19df 0000 0000 		.long	.LM764
 17186 19e3 15        		.byte	0x15
 17187 19e4 00        		.byte	0x0
 17188 19e5 05        		.uleb128 0x5
 17189 19e6 02        		.byte	0x2
 17190 19e7 0000 0000 		.long	.LM765
 17191 19eb 18        		.byte	0x18
 17192 19ec 00        		.byte	0x0
 17193 19ed 05        		.uleb128 0x5
 17194 19ee 02        		.byte	0x2
 17195 19ef 0000 0000 		.long	.LM766
 17196 19f3 04        		.byte	0x4
 17197 19f4 04        		.uleb128 0x4
 17198 19f5 03        		.byte	0x3
 17199 19f6 A677      		.sleb128 -1114
 17200 19f8 01        		.byte	0x1
 17201 19f9 00        		.byte	0x0
 17202 19fa 05        		.uleb128 0x5
 17203 19fb 02        		.byte	0x2
 17204 19fc 0000 0000 		.long	.LM767
 17205 1a00 11        		.byte	0x11
 17206 1a01 00        		.byte	0x0
 17207 1a02 05        		.uleb128 0x5
 17208 1a03 02        		.byte	0x2
 17209 1a04 0000 0000 		.long	.Letext0
 17210 1a08 00        		.byte	0x0
 17211 1a09 01        		.uleb128 0x1
 17212 1a0a 01        		.byte	0x1
 17213               	.LELT0:
GAS LISTING C:\DOCUME~1\KEUNSO~1\LOCALS~1\Temp/ccWaaqlF.s 			page 306


 17214 1a0b 1600 0000 		.section	.debug_str,"MS",@progbits,1
 17214      0200 1000 
 17214      0000 0101 
 17214      FB0E 0A00 
 17214      0101 0101 
 17215               	.LASF116:
 17216 0000 4F53 5F54 		.string	"OS_TaskStat"
 17216      6173 6B53 
 17216      7461 7400 
 17217               	.LASF52:
 17218 000c 4F53 5F49 		.string	"OS_InitRdyList"
 17218      6E69 7452 
 17218      6479 4C69 
 17218      7374 00
 17219               	.LASF92:
 17220 001b 7074 6F73 		.string	"ptos"
 17220      00
 17221               	.LASF124:
 17222 0020 6C6F 6F70 		.string	"loops"
 17222      7300 
 17223               	.LASF101:
 17224 0026 4F53 5461 		.string	"OSTaskCreate"
 17224      736B 4372 
 17224      6561 7465 
 17224      00
 17225               	.LASF155:
 17226 0033 463A 5C70 		.string	"F:\\projects\\truth\\truth\\os\\ucos_ii\\uCOS-II\\AT-AVR\\gcc\\test"
 17226      726F 6A65 
 17226      6374 735C 
 17226      7472 7574 
 17226      685C 7472 
 17227               	.LASF26:
 17228 006e 4F53 5F53 		.string	"OS_STK_DATA"
 17228      544B 5F44 
 17228      4154 4100 
 17229               	.LASF118:
 17230 007a 4F53 5374 		.string	"OSStatInit"
 17230      6174 496E 
 17230      6974 00
 17231               	.LASF51:
 17232 0085 7072 6479 		.string	"prdytbl"
 17232      7462 6C00 
 17233               	.LASF18:
 17234 008d 4F53 4576 		.string	"OSEventTbl"
 17234      656E 7454 
 17234      626C 00
 17235               	.LASF146:
 17236 0098 4F53 5443 		.string	"OSTCBList"
 17236      424C 6973 
 17236      7400 
 17237               	.LASF107:
 17238 00a2 4F53 5374 		.string	"OSStart"
 17238      6172 7400 
 17239               	.LASF133:
 17240 00aa 4F53 496E 		.string	"OSIntExitY"
 17240      7445 7869 
 17240      7459 00
GAS LISTING C:\DOCUME~1\KEUNSO~1\LOCALS~1\Temp/ccWaaqlF.s 			page 307


 17241               	.LASF45:
 17242 00b5 4F53 5443 		.string	"OSTCBCyclesStart"
 17242      4243 7963 
 17242      6C65 7353 
 17242      7461 7274 
 17242      00
 17243               	.LASF9:
 17244 00c6 494E 5438 		.string	"INT8S"
 17244      5300 
 17245               	.LASF8:
 17246 00cc 494E 5438 		.string	"INT8U"
 17246      5500 
 17247               	.LASF57:
 17248 00d2 7065 7665 		.string	"pevent1"
 17248      6E74 3100 
 17249               	.LASF6:
 17250 00da 6C6F 6E67 		.string	"long long unsigned int"
 17250      206C 6F6E 
 17250      6720 756E 
 17250      7369 676E 
 17250      6564 2069 
 17251               	.LASF48:
 17252 00f1 4F53 5443 		.string	"OSTCBTaskName"
 17252      4254 6173 
 17252      6B4E 616D 
 17252      6500 
 17253               	.LASF53:
 17254 00ff 4F53 5F49 		.string	"OS_InitTCBList"
 17254      6E69 7454 
 17254      4342 4C69 
 17254      7374 00
 17255               	.LASF69:
 17256 010e 4F53 5365 		.string	"OSSemAccept"
 17256      6D41 6363 
 17256      6570 7400 
 17257               	.LASF77:
 17258 011a 6672 6565 		.string	"free"
 17258      00
 17259               	.LASF10:
 17260 011f 494E 5431 		.string	"INT16U"
 17260      3655 00
 17261               	.LASF136:
 17262 0126 4F53 5072 		.string	"OSPrioHighRdy"
 17262      696F 4869 
 17262      6768 5264 
 17262      7900 
 17263               	.LASF129:
 17264 0134 4F53 4964 		.string	"OSIdleCtrRun"
 17264      6C65 4374 
 17264      7252 756E 
 17264      00
 17265               	.LASF142:
 17266 0141 4F53 5461 		.string	"OSTaskIdleStk"
 17266      736B 4964 
 17266      6C65 5374 
 17266      6B00 
 17267               	.LASF17:
GAS LISTING C:\DOCUME~1\KEUNSO~1\LOCALS~1\Temp/ccWaaqlF.s 			page 308


 17268 014f 4F53 4576 		.string	"OSEventPtr"
 17268      656E 7450 
 17268      7472 00
 17269               	.LASF5:
 17270 015a 6C6F 6E67 		.string	"long long int"
 17270      206C 6F6E 
 17270      6720 696E 
 17270      7400 
 17271               	.LASF0:
 17272 0168 7369 676E 		.string	"signed char"
 17272      6564 2063 
 17272      6861 7200 
 17273               	.LASF86:
 17274 0174 706E 616D 		.string	"pname"
 17274      6500 
 17275               	.LASF79:
 17276 017a 4F53 5F54 		.string	"OS_TaskStkClr"
 17276      6173 6B53 
 17276      746B 436C 
 17276      7200 
 17277               	.LASF110:
 17278 0188 4F53 5F54 		.string	"OS_TaskStatStkChk"
 17278      6173 6B53 
 17278      7461 7453 
 17278      746B 4368 
 17278      6B00 
 17279               	.LASF54:
 17280 019a 7074 6362 		.string	"ptcb1"
 17280      3100 
 17281               	.LASF55:
 17282 01a0 7074 6362 		.string	"ptcb2"
 17282      3200 
 17283               	.LASF13:
 17284 01a6 4F53 5F53 		.string	"OS_STK"
 17284      544B 00
 17285               	.LASF152:
 17286 01ad 4F53 4465 		.string	"OSDebugEn"
 17286      6275 6745 
 17286      6E00 
 17287               	.LASF3:
 17288 01b7 6C6F 6E67 		.string	"long int"
 17288      2069 6E74 
 17288      00
 17289               	.LASF64:
 17290 01c0 6269 7478 		.string	"bitx"
 17290      00
 17291               	.LASF65:
 17292 01c5 6269 7479 		.string	"bity"
 17292      00
 17293               	.LASF154:
 17294 01ca 2E2E 2F2E 		.string	"../../../source/ucos_ii.c"
 17294      2E2F 2E2E 
 17294      2F73 6F75 
 17294      7263 652F 
 17294      7563 6F73 
 17295               	.LASF36:
 17296 01e4 4F53 5443 		.string	"OSTCBDly"
GAS LISTING C:\DOCUME~1\KEUNSO~1\LOCALS~1\Temp/ccWaaqlF.s 			page 309


 17296      4244 6C79 
 17296      00
 17297               	.LASF37:
 17298 01ed 4F53 5443 		.string	"OSTCBStat"
 17298      4253 7461 
 17298      7400 
 17299               	.LASF88:
 17300 01f7 4F53 4576 		.string	"OSEventNameSet"
 17300      656E 744E 
 17300      616D 6553 
 17300      6574 00
 17301               	.LASF59:
 17302 0206 4F53 5F49 		.string	"OS_InitMisc"
 17302      6E69 744D 
 17302      6973 6300 
 17303               	.LASF11:
 17304 0212 494E 5433 		.string	"INT32U"
 17304      3255 00
 17305               	.LASF32:
 17306 0219 4F53 5443 		.string	"OSTCBId"
 17306      4249 6400 
 17307               	.LASF108:
 17308 0221 4F53 496E 		.string	"OSIntEnter"
 17308      7445 6E74 
 17308      6572 00
 17309               	.LASF125:
 17310 022c 4F53 4374 		.string	"OSCtxSwCtr"
 17310      7853 7743 
 17310      7472 00
 17311               	.LASF80:
 17312 0237 7062 6F73 		.string	"pbos"
 17312      00
 17313               	.LASF62:
 17314 023c 7065 7665 		.string	"pevent"
 17314      6E74 00
 17315               	.LASF123:
 17316 0243 6D69 6C6C 		.string	"milli"
 17316      6900 
 17317               	.LASF60:
 17318 0249 4F53 5F49 		.string	"OS_InitTaskIdle"
 17318      6E69 7454 
 17318      6173 6B49 
 17318      646C 6500 
 17319               	.LASF156:
 17320 0259 6F73 5F74 		.string	"os_tcb"
 17320      6362 00
 17321               	.LASF50:
 17322 0260 7074 626C 		.string	"ptbl"
 17322      00
 17323               	.LASF99:
 17324 0265 4F53 5461 		.string	"OSTaskCreateExt"
 17324      736B 4372 
 17324      6561 7465 
 17324      4578 7400 
 17325               	.LASF153:
 17326 0275 474E 5520 		.string	"GNU C 4.3.3"
 17326      4320 342E 
GAS LISTING C:\DOCUME~1\KEUNSO~1\LOCALS~1\Temp/ccWaaqlF.s 			page 310


 17326      332E 3300 
 17327               	.LASF30:
 17328 0281 4F53 5443 		.string	"OSTCBStkSize"
 17328      4253 746B 
 17328      5369 7A65 
 17328      00
 17329               	.LASF150:
 17330 028e 4F53 4D61 		.string	"OSMapTbl"
 17330      7054 626C 
 17330      00
 17331               	.LASF2:
 17332 0297 756E 7369 		.string	"unsigned int"
 17332      676E 6564 
 17332      2069 6E74 
 17332      00
 17333               	.LASF83:
 17334 02a4 4F53 5469 		.string	"OSTimeSet"
 17334      6D65 5365 
 17334      7400 
 17335               	.LASF109:
 17336 02ae 4F53 496E 		.string	"OSIntExit"
 17336      7445 7869 
 17336      7400 
 17337               	.LASF4:
 17338 02b8 6C6F 6E67 		.string	"long unsigned int"
 17338      2075 6E73 
 17338      6967 6E65 
 17338      6420 696E 
 17338      7400 
 17339               	.LASF135:
 17340 02ca 4F53 5072 		.string	"OSPrioCur"
 17340      696F 4375 
 17340      7200 
 17341               	.LASF104:
 17342 02d4 7469 6D65 		.string	"timeout"
 17342      6F75 7400 
 17343               	.LASF141:
 17344 02dc 4F53 4964 		.string	"OSIdleCtr"
 17344      6C65 4374 
 17344      7200 
 17345               	.LASF78:
 17346 02e6 7369 7A65 		.string	"size"
 17346      00
 17347               	.LASF63:
 17348 02eb 7074 6362 		.string	"ptcb"
 17348      00
 17349               	.LASF43:
 17350 02f0 4F53 5443 		.string	"OSTCBCtxSwCtr"
 17350      4243 7478 
 17350      5377 4374 
 17350      7200 
 17351               	.LASF89:
 17352 02fe 4F53 4576 		.string	"OSEventNameGet"
 17352      656E 744E 
 17352      616D 6547 
 17352      6574 00
 17353               	.LASF95:
GAS LISTING C:\DOCUME~1\KEUNSO~1\LOCALS~1\Temp/ccWaaqlF.s 			page 311


 17354 030d 4F53 5F54 		.string	"OS_TaskIdle"
 17354      6173 6B49 
 17354      646C 6500 
 17355               	.LASF144:
 17356 0319 4F53 5443 		.string	"OSTCBFreeList"
 17356      4246 7265 
 17356      654C 6973 
 17356      7400 
 17357               	.LASF138:
 17358 0327 4F53 5264 		.string	"OSRdyTbl"
 17358      7954 626C 
 17358      00
 17359               	.LASF27:
 17360 0330 4F53 5443 		.string	"OSTCBStkPtr"
 17360      4253 746B 
 17360      5074 7200 
 17361               	.LASF34:
 17362 033c 4F53 5443 		.string	"OSTCBPrev"
 17362      4250 7265 
 17362      7600 
 17363               	.LASF120:
 17364 0346 686F 7572 		.string	"hours"
 17364      7300 
 17365               	.LASF14:
 17366 034c 4F53 4576 		.string	"OSEventType"
 17366      656E 7454 
 17366      7970 6500 
 17367               	.LASF44:
 17368 0358 4F53 5443 		.string	"OSTCBCyclesTot"
 17368      4243 7963 
 17368      6C65 7354 
 17368      6F74 00
 17369               	.LASF139:
 17370 0367 4F53 5275 		.string	"OSRunning"
 17370      6E6E 696E 
 17370      6700 
 17371               	.LASF15:
 17372 0371 4F53 4576 		.string	"OSEventGrp"
 17372      656E 7447 
 17372      7270 00
 17373               	.LASF157:
 17374 037c 4F53 5665 		.string	"OSVersion"
 17374      7273 696F 
 17374      6E00 
 17375               	.LASF81:
 17376 0386 4F53 5469 		.string	"OSTimeGet"
 17376      6D65 4765 
 17376      7400 
 17377               	.LASF82:
 17378 0390 7469 636B 		.string	"ticks"
 17378      7300 
 17379               	.LASF33:
 17380 0396 4F53 5443 		.string	"OSTCBNext"
 17380      424E 6578 
 17380      7400 
 17381               	.LASF47:
 17382 03a0 4F53 5443 		.string	"OSTCBStkUsed"
GAS LISTING C:\DOCUME~1\KEUNSO~1\LOCALS~1\Temp/ccWaaqlF.s 			page 312


 17382      4253 746B 
 17382      5573 6564 
 17382      00
 17383               	.LASF41:
 17384 03ad 4F53 5443 		.string	"OSTCBBitX"
 17384      4242 6974 
 17384      5800 
 17385               	.LASF42:
 17386 03b7 4F53 5443 		.string	"OSTCBBitY"
 17386      4242 6974 
 17386      5900 
 17387               	.LASF119:
 17388 03c1 4F53 5469 		.string	"OSTimeDlyHMSM"
 17388      6D65 446C 
 17388      7948 4D53 
 17388      4D00 
 17389               	.LASF147:
 17390 03cf 4F53 5443 		.string	"OSTCBPrioTbl"
 17390      4250 7269 
 17390      6F54 626C 
 17390      00
 17391               	.LASF23:
 17392 03dc 4F53 5F53 		.string	"OS_SEM_DATA"
 17392      454D 5F44 
 17392      4154 4100 
 17393               	.LASF131:
 17394 03e8 4F53 5461 		.string	"OSTaskStatStk"
 17394      736B 5374 
 17394      6174 5374 
 17394      6B00 
 17395               	.LASF22:
 17396 03f6 4F53 436E 		.string	"OSCnt"
 17396      7400 
 17397               	.LASF72:
 17398 03fc 7073 7263 		.string	"psrc"
 17398      00
 17399               	.LASF114:
 17400 0401 4F53 496E 		.string	"OSInit"
 17400      6974 00
 17401               	.LASF140:
 17402 0408 4F53 5461 		.string	"OSTaskCtr"
 17402      736B 4374 
 17402      7200 
 17403               	.LASF66:
 17404 0412 7072 696F 		.string	"prio"
 17404      00
 17405               	.LASF145:
 17406 0417 4F53 5443 		.string	"OSTCBHighRdy"
 17406      4248 6967 
 17406      6852 6479 
 17406      00
 17407               	.LASF56:
 17408 0424 4F53 5F49 		.string	"OS_InitEventList"
 17408      6E69 7445 
 17408      7665 6E74 
 17408      4C69 7374 
 17408      00
GAS LISTING C:\DOCUME~1\KEUNSO~1\LOCALS~1\Temp/ccWaaqlF.s 			page 313


 17409               	.LASF84:
 17410 0435 4F53 5461 		.string	"OSTaskQuery"
 17410      736B 5175 
 17410      6572 7900 
 17411               	.LASF12:
 17412 0441 666C 6F61 		.string	"float"
 17412      7400 
 17413               	.LASF61:
 17414 0447 4F53 5F49 		.string	"OS_InitTaskStat"
 17414      6E69 7454 
 17414      6173 6B53 
 17414      7461 7400 
 17415               	.LASF151:
 17416 0457 4F53 556E 		.string	"OSUnMapTbl"
 17416      4D61 7054 
 17416      626C 00
 17417               	.LASF122:
 17418 0462 7365 636F 		.string	"seconds"
 17418      6E64 7300 
 17419               	.LASF121:
 17420 046a 6D69 6E75 		.string	"minutes"
 17420      7465 7300 
 17421               	.LASF24:
 17422 0472 4F53 4672 		.string	"OSFree"
 17422      6565 00
 17423               	.LASF21:
 17424 0479 4F53 5F45 		.string	"OS_EVENT"
 17424      5645 4E54 
 17424      00
 17425               	.LASF1:
 17426 0482 756E 7369 		.string	"unsigned char"
 17426      676E 6564 
 17426      2063 6861 
 17426      7200 
 17427               	.LASF70:
 17428 0490 4F53 5365 		.string	"OSSemQuery"
 17428      6D51 7565 
 17428      7279 00
 17429               	.LASF76:
 17430 049b 7063 686B 		.string	"pchk"
 17430      00
 17431               	.LASF106:
 17432 04a0 7374 6570 		.string	"step"
 17432      00
 17433               	.LASF128:
 17434 04a5 4F53 4964 		.string	"OSIdleCtrMax"
 17434      6C65 4374 
 17434      724D 6178 
 17434      00
 17435               	.LASF71:
 17436 04b2 7064 6174 		.string	"pdata"
 17436      6100 
 17437               	.LASF93:
 17438 04b8 7374 6B5F 		.string	"stk_size"
 17438      7369 7A65 
 17438      00
 17439               	.LASF98:
GAS LISTING C:\DOCUME~1\KEUNSO~1\LOCALS~1\Temp/ccWaaqlF.s 			page 314


 17440 04c1 4F53 5469 		.string	"OSTimeDlyResume"
 17440      6D65 446C 
 17440      7952 6573 
 17440      756D 6500 
 17441               	.LASF7:
 17442 04d1 424F 4F4C 		.string	"BOOLEAN"
 17442      4541 4E00 
 17443               	.LASF67:
 17444 04d9 4F53 5F45 		.string	"OS_EventTaskWait"
 17444      7665 6E74 
 17444      5461 736B 
 17444      5761 6974 
 17444      00
 17445               	.LASF16:
 17446 04ea 4F53 4576 		.string	"OSEventCnt"
 17446      656E 7443 
 17446      6E74 00
 17447               	.LASF46:
 17448 04f5 4F53 5443 		.string	"OSTCBStkBase"
 17448      4253 746B 
 17448      4261 7365 
 17448      00
 17449               	.LASF85:
 17450 0502 4F53 5461 		.string	"OSTaskNameSet"
 17450      736B 4E61 
 17450      6D65 5365 
 17450      7400 
 17451               	.LASF113:
 17452 0510 7461 736B 		.string	"tasks_waiting"
 17452      735F 7761 
 17452      6974 696E 
 17452      6700 
 17453               	.LASF97:
 17454 051e 4F53 5F53 		.string	"OS_Sched"
 17454      6368 6564 
 17454      00
 17455               	.LASF19:
 17456 0527 4F53 4576 		.string	"OSEventName"
 17456      656E 744E 
 17456      616D 6500 
 17457               	.LASF28:
 17458 0533 4F53 5443 		.string	"OSTCBExtPtr"
 17458      4245 7874 
 17458      5074 7200 
 17459               	.LASF31:
 17460 053f 4F53 5443 		.string	"OSTCBOpt"
 17460      424F 7074 
 17460      00
 17461               	.LASF49:
 17462 0548 4F53 5F54 		.string	"OS_TCB"
 17462      4342 00
 17463               	.LASF143:
 17464 054f 4F53 5443 		.string	"OSTCBCur"
 17464      4243 7572 
 17464      00
 17465               	.LASF149:
 17466 0558 4F53 5469 		.string	"OSTime"
GAS LISTING C:\DOCUME~1\KEUNSO~1\LOCALS~1\Temp/ccWaaqlF.s 			page 315


 17466      6D65 00
 17467               	.LASF20:
 17468 055f 6368 6172 		.string	"char"
 17468      00
 17469               	.LASF112:
 17470 0564 4F53 5365 		.string	"OSSemDel"
 17470      6D44 656C 
 17470      00
 17471               	.LASF25:
 17472 056d 4F53 5573 		.string	"OSUsed"
 17472      6564 00
 17473               	.LASF90:
 17474 0574 4F53 5365 		.string	"OSSemCreate"
 17474      6D43 7265 
 17474      6174 6500 
 17475               	.LASF126:
 17476 0580 4F53 4576 		.string	"OSEventFreeList"
 17476      656E 7446 
 17476      7265 654C 
 17476      6973 7400 
 17477               	.LASF91:
 17478 0590 4F53 5F54 		.string	"OS_TCBInit"
 17478      4342 496E 
 17478      6974 00
 17479               	.LASF100:
 17480 059b 7461 736B 		.string	"task"
 17480      00
 17481               	.LASF58:
 17482 05a0 7065 7665 		.string	"pevent2"
 17482      6E74 3200 
 17483               	.LASF102:
 17484 05a8 4F53 5365 		.string	"OSSemPost"
 17484      6D50 6F73 
 17484      7400 
 17485               	.LASF96:
 17486 05b2 4F53 5F45 		.string	"OS_EventWaitListInit"
 17486      7665 6E74 
 17486      5761 6974 
 17486      4C69 7374 
 17486      496E 6974 
 17487               	.LASF29:
 17488 05c7 4F53 5443 		.string	"OSTCBStkBottom"
 17488      4253 746B 
 17488      426F 7474 
 17488      6F6D 00
 17489               	.LASF127:
 17490 05d6 4F53 4350 		.string	"OSCPUUsage"
 17490      5555 7361 
 17490      6765 00
 17491               	.LASF117:
 17492 05e1 7573 6167 		.string	"usage"
 17492      6500 
 17493               	.LASF68:
 17494 05e7 4F53 5F45 		.string	"OS_EventTO"
 17494      7665 6E74 
 17494      544F 00
 17495               	.LASF132:
GAS LISTING C:\DOCUME~1\KEUNSO~1\LOCALS~1\Temp/ccWaaqlF.s 			page 316


 17496 05f2 4F53 496E 		.string	"OSIntNesting"
 17496      744E 6573 
 17496      7469 6E67 
 17496      00
 17497               	.LASF87:
 17498 05ff 4F53 5461 		.string	"OSTaskNameGet"
 17498      736B 4E61 
 17498      6D65 4765 
 17498      7400 
 17499               	.LASF105:
 17500 060d 4F53 5469 		.string	"OSTimeTick"
 17500      6D65 5469 
 17500      636B 00
 17501               	.LASF137:
 17502 0618 4F53 5264 		.string	"OSRdyGrp"
 17502      7947 7270 
 17502      00
 17503               	.LASF94:
 17504 0621 7065 7874 		.string	"pext"
 17504      00
 17505               	.LASF74:
 17506 0626 4F53 5F45 		.string	"OS_EventTaskRdy"
 17506      7665 6E74 
 17506      5461 736B 
 17506      5264 7900 
 17507               	.LASF75:
 17508 0636 4F53 5461 		.string	"OSTaskStkChk"
 17508      736B 5374 
 17508      6B43 686B 
 17508      00
 17509               	.LASF130:
 17510 0643 4F53 5374 		.string	"OSStatRdy"
 17510      6174 5264 
 17510      7900 
 17511               	.LASF103:
 17512 064d 4F53 5365 		.string	"OSSemPend"
 17512      6D50 656E 
 17512      6400 
 17513               	.LASF73:
 17514 0657 7064 6573 		.string	"pdest"
 17514      7400 
 17515               	.LASF39:
 17516 065d 4F53 5443 		.string	"OSTCBX"
 17516      4258 00
 17517               	.LASF40:
 17518 0664 4F53 5443 		.string	"OSTCBY"
 17518      4259 00
 17519               	.LASF35:
 17520 066b 4F53 5443 		.string	"OSTCBEventPtr"
 17520      4245 7665 
 17520      6E74 5074 
 17520      7200 
 17521               	.LASF38:
 17522 0679 4F53 5443 		.string	"OSTCBPrio"
 17522      4250 7269 
 17522      6F00 
 17523               	.LASF111:
GAS LISTING C:\DOCUME~1\KEUNSO~1\LOCALS~1\Temp/ccWaaqlF.s 			page 317


 17524 0683 7374 6B5F 		.string	"stk_data"
 17524      6461 7461 
 17524      00
 17525               	.LASF115:
 17526 068c 4F53 5469 		.string	"OSTimeDly"
 17526      6D65 446C 
 17526      7900 
 17527               	.LASF148:
 17528 0696 4F53 5443 		.string	"OSTCBTbl"
 17528      4254 626C 
 17528      00
 17529               	.LASF134:
 17530 069f 4F53 4C6F 		.string	"OSLockNesting"
 17530      636B 4E65 
 17530      7374 696E 
 17530      6700 
 17531               	.global __do_copy_data
 17532               	.global __do_clear_bss
GAS LISTING C:\DOCUME~1\KEUNSO~1\LOCALS~1\Temp/ccWaaqlF.s 			page 318


DEFINED SYMBOLS
                            *ABS*:00000000 ucos_ii.c
C:\DOCUME~1\KEUNSO~1\LOCALS~1\Temp/ccWaaqlF.s:2      *ABS*:0000003f __SREG__
C:\DOCUME~1\KEUNSO~1\LOCALS~1\Temp/ccWaaqlF.s:3      *ABS*:0000003e __SP_H__
C:\DOCUME~1\KEUNSO~1\LOCALS~1\Temp/ccWaaqlF.s:4      *ABS*:0000003d __SP_L__
C:\DOCUME~1\KEUNSO~1\LOCALS~1\Temp/ccWaaqlF.s:5      *ABS*:00000034 __CCP__
C:\DOCUME~1\KEUNSO~1\LOCALS~1\Temp/ccWaaqlF.s:6      *ABS*:00000000 __tmp_reg__
C:\DOCUME~1\KEUNSO~1\LOCALS~1\Temp/ccWaaqlF.s:7      *ABS*:00000001 __zero_reg__
C:\DOCUME~1\KEUNSO~1\LOCALS~1\Temp/ccWaaqlF.s:18     .text:00000000 OSIntEnter
                            *COM*:00000001 OSRunning
                            *COM*:00000001 OSIntNesting
C:\DOCUME~1\KEUNSO~1\LOCALS~1\Temp/ccWaaqlF.s:42     .text:0000001a OSVersion
C:\DOCUME~1\KEUNSO~1\LOCALS~1\Temp/ccWaaqlF.s:56     .text:00000020 OS_EventTaskRdy
C:\DOCUME~1\KEUNSO~1\LOCALS~1\Temp/ccWaaqlF.s:5641   .data:00000008 OSUnMapTbl
C:\DOCUME~1\KEUNSO~1\LOCALS~1\Temp/ccWaaqlF.s:5629   .data:00000000 OSMapTbl
                            *COM*:0000001a OSTCBPrioTbl
                            *COM*:00000001 OSRdyGrp
                            *COM*:00000002 OSRdyTbl
C:\DOCUME~1\KEUNSO~1\LOCALS~1\Temp/ccWaaqlF.s:189    .text:000000d0 OS_EventTaskWait
                            *COM*:00000002 OSTCBCur
C:\DOCUME~1\KEUNSO~1\LOCALS~1\Temp/ccWaaqlF.s:265    .text:00000140 OS_EventTO
C:\DOCUME~1\KEUNSO~1\LOCALS~1\Temp/ccWaaqlF.s:325    .text:00000192 OS_EventWaitListInit
C:\DOCUME~1\KEUNSO~1\LOCALS~1\Temp/ccWaaqlF.s:346    .text:0000019e OSSemAccept
C:\DOCUME~1\KEUNSO~1\LOCALS~1\Temp/ccWaaqlF.s:407    .text:000001d2 OSSemQuery
C:\DOCUME~1\KEUNSO~1\LOCALS~1\Temp/ccWaaqlF.s:465    .text:0000020c OSTaskStkChk
C:\DOCUME~1\KEUNSO~1\LOCALS~1\Temp/ccWaaqlF.s:669    .text:000002fc OS_TaskStkClr
C:\DOCUME~1\KEUNSO~1\LOCALS~1\Temp/ccWaaqlF.s:707    .text:00000320 OSTimeGet
                            *COM*:00000004 OSTime
C:\DOCUME~1\KEUNSO~1\LOCALS~1\Temp/ccWaaqlF.s:744    .text:0000033e OSTimeSet
C:\DOCUME~1\KEUNSO~1\LOCALS~1\Temp/ccWaaqlF.s:774    .text:00000354 OSTaskQuery
C:\DOCUME~1\KEUNSO~1\LOCALS~1\Temp/ccWaaqlF.s:850    .text:00000398 OSTaskNameSet
C:\DOCUME~1\KEUNSO~1\LOCALS~1\Temp/ccWaaqlF.s:969    .text:00000406 OSTaskNameGet
C:\DOCUME~1\KEUNSO~1\LOCALS~1\Temp/ccWaaqlF.s:1085   .text:0000047e OSEventNameSet
C:\DOCUME~1\KEUNSO~1\LOCALS~1\Temp/ccWaaqlF.s:1184   .text:000004dc OSEventNameGet
C:\DOCUME~1\KEUNSO~1\LOCALS~1\Temp/ccWaaqlF.s:1280   .text:0000053c OSSemCreate
                            *COM*:00000002 OSEventFreeList
C:\DOCUME~1\KEUNSO~1\LOCALS~1\Temp/ccWaaqlF.s:1367   .text:00000592 OS_TCBInit
                            *COM*:00000002 OSTCBFreeList
                            *COM*:00000002 OSTCBList
C:\DOCUME~1\KEUNSO~1\LOCALS~1\Temp/ccWaaqlF.s:1600   .text:000006c0 OS_TaskIdle
                            *COM*:00000004 OSIdleCtr
C:\DOCUME~1\KEUNSO~1\LOCALS~1\Temp/ccWaaqlF.s:1639   .text:000006f0 OS_Sched
                            *COM*:00000001 OSLockNesting
                            *COM*:00000001 OSPrioHighRdy
                            *COM*:00000001 OSPrioCur
                            *COM*:00000002 OSTCBHighRdy
                            *COM*:00000004 OSCtxSwCtr
C:\DOCUME~1\KEUNSO~1\LOCALS~1\Temp/ccWaaqlF.s:1745   .text:00000798 OSTimeDlyResume
C:\DOCUME~1\KEUNSO~1\LOCALS~1\Temp/ccWaaqlF.s:1865   .text:00000816 OSTaskCreateExt
                            *COM*:00000001 OSTaskCtr
C:\DOCUME~1\KEUNSO~1\LOCALS~1\Temp/ccWaaqlF.s:2082   .text:0000092a OSTaskCreate
C:\DOCUME~1\KEUNSO~1\LOCALS~1\Temp/ccWaaqlF.s:2235   .text:000009da OSSemPost
C:\DOCUME~1\KEUNSO~1\LOCALS~1\Temp/ccWaaqlF.s:2313   .text:00000a26 OSSemPend
C:\DOCUME~1\KEUNSO~1\LOCALS~1\Temp/ccWaaqlF.s:2473   .text:00000adc OSTimeTick
C:\DOCUME~1\KEUNSO~1\LOCALS~1\Temp/ccWaaqlF.s:2607   .text:00000b9a OSStart
C:\DOCUME~1\KEUNSO~1\LOCALS~1\Temp/ccWaaqlF.s:2666   .text:00000bf4 OSIntExit
                            *COM*:00000001 OSIntExitY
GAS LISTING C:\DOCUME~1\KEUNSO~1\LOCALS~1\Temp/ccWaaqlF.s 			page 319


C:\DOCUME~1\KEUNSO~1\LOCALS~1\Temp/ccWaaqlF.s:2776   .text:00000cb2 OS_TaskStatStkChk
C:\DOCUME~1\KEUNSO~1\LOCALS~1\Temp/ccWaaqlF.s:2956   .text:00000d76 OSSemDel
C:\DOCUME~1\KEUNSO~1\LOCALS~1\Temp/ccWaaqlF.s:3270   .text:00000f04 OSInit
                            *COM*:00000004 OSIdleCtrRun
                            *COM*:00000004 OSIdleCtrMax
                            *COM*:00000001 OSStatRdy
                            *COM*:000003f6 OSTCBTbl
                            *COM*:00000078 OSEventTbl
                            *COM*:00000200 OSTaskIdleStk
                            *COM*:00000200 OSTaskStatStk
C:\DOCUME~1\KEUNSO~1\LOCALS~1\Temp/ccWaaqlF.s:3827   .text:00001290 OS_TaskStat
                            *COM*:00000001 OSCPUUsage
C:\DOCUME~1\KEUNSO~1\LOCALS~1\Temp/ccWaaqlF.s:4458   .text:0000161e OSTimeDly
C:\DOCUME~1\KEUNSO~1\LOCALS~1\Temp/ccWaaqlF.s:4624   .text:00001714 OSStatInit
C:\DOCUME~1\KEUNSO~1\LOCALS~1\Temp/ccWaaqlF.s:4976   .text:00001930 OSTimeDlyHMSM
C:\DOCUME~1\KEUNSO~1\LOCALS~1\Temp/ccWaaqlF.s:5901   .data:00000108 OSDebugEn

UNDEFINED SYMBOLS
strcpy
OSTCBInitHook
OSTaskCreateHook
OSTaskIdleHook
OSCtxSw
OSTaskStkInit
OSTimeTickHook
OSStartHighRdy
OSIntCtxSw
OSInitHookBegin
OSInitHookEnd
__udivmodsi4
OSTaskStatHook
__mulsi3
__do_copy_data
__do_clear_bss
